 sc

 Timestamp is 64dcc406 (Wed Aug 16 21:41:42 2023)

 Preferred load address is 00400000

 Start         Length     Name                   Class
 0001:00000000 00064657H .text$mn                CODE
 0001:00064657 0000121cH .text$x                 CODE
 0002:00000000 00000104H .CRT$XCA                DATA
 0002:00000104 00000104H .CRT$XCAA               DATA
 0002:00000208 00000104H .CRT$XCZ                DATA
 0002:0000030c 00000104H .CRT$XIA                DATA
 0002:00000410 00000104H .CRT$XIAA               DATA
 0002:00000514 00000104H .CRT$XIAC               DATA
 0002:00000618 00000114H .CRT$XIC                DATA
 0002:0000072c 00000104H .CRT$XIZ                DATA
 0002:00000830 00000104H .CRT$XPA                DATA
 0002:00000934 0000010cH .CRT$XPX                DATA
 0002:00000a40 00000104H .CRT$XPXA               DATA
 0002:00000b44 00000104H .CRT$XPZ                DATA
 0002:00000c48 00000104H .CRT$XTA                DATA
 0002:00000d4c 00000104H .CRT$XTZ                DATA
 0002:00000e50 000092b0H .rdata                  DATA
 0002:0000a100 00000180H .rdata$CastGuardVftablesA DATA
 0002:0000a280 0000014cH .rdata$CastGuardVftablesC DATA
 0002:0000a3cc 00000444H .rdata$r                DATA
 0002:0000a810 00000160H .rdata$sxdata           DATA
 0002:0000a970 00000178H .rdata$zzzdbg           DATA
 0002:0000aae8 00000104H .rtc$IAA                DATA
 0002:0000abec 00000104H .rtc$IZZ                DATA
 0002:0000acf0 00000104H .rtc$TAA                DATA
 0002:0000adf4 00000104H .rtc$TZZ                DATA
 0002:0000aef8 00000d3cH .xdata$x                DATA
 0002:0000bc34 00000000H .edata                  DATA
 0003:00000000 00000b9cH .data                   DATA
 0003:00000b9c 00000170H .data$r                 DATA
 0003:00000d0c 000001d4H .data$rs                DATA
 0003:00000ee0 00001684H .bss                    DATA
 0004:00000000 000001b0H .idata$5                DATA
 0004:000001b0 00000014H .idata$2                DATA
 0004:000001c4 00000014H .idata$3                DATA
 0004:000001d8 000001b0H .idata$4                DATA
 0004:00000388 00000795H .idata$6                DATA
 0005:00000000 0000010eH .00cfg                  DATA

  Address         Publics by Value              Rva+Base       Lib:Object

 0000:00000000       ___AbsoluteZero            00000000     <absolute>
 0000:00000000       ___arm64x_extra_rfe_table  00000000     <absolute>
 0000:00000000       ___arm64x_extra_rfe_table_size 00000000     <absolute>
 0000:00000000       ___arm64x_native_entrypoint 00000000     <absolute>
 0000:00000000       ___arm64x_redirection_metadata 00000000     <absolute>
 0000:00000000       ___arm64x_redirection_metadata_count 00000000     <absolute>
 0000:00000000       ___dynamic_value_reloc_table 00000000     <absolute>
 0000:00000000       ___enclave_config          00000000     <absolute>
 0000:00000000       ___guard_check_icall_a64n_fptr 00000000     <absolute>
 0000:00000000       ___guard_eh_cont_count     00000000     <absolute>
 0000:00000000       ___guard_eh_cont_table     00000000     <absolute>
 0000:00000000       ___guard_fids_count        00000000     <absolute>
 0000:00000000       ___guard_fids_table        00000000     <absolute>
 0000:00000000       ___guard_iat_count         00000000     <absolute>
 0000:00000000       ___guard_iat_table         00000000     <absolute>
 0000:00000000       ___guard_longjmp_count     00000000     <absolute>
 0000:00000000       ___guard_longjmp_table     00000000     <absolute>
 0000:00000000       ___hybrid_auxiliary_delayload_iat 00000000     <absolute>
 0000:00000000       ___hybrid_auxiliary_delayload_iat_copy 00000000     <absolute>
 0000:00000000       ___hybrid_auxiliary_iat    00000000     <absolute>
 0000:00000000       ___hybrid_auxiliary_iat_copy 00000000     <absolute>
 0000:00000000       ___hybrid_code_map         00000000     <absolute>
 0000:00000000       ___hybrid_code_map_count   00000000     <absolute>
 0000:00000000       ___volatile_metadata       00000000     <absolute>
 0000:00000000       ___x64_code_ranges_to_entry_points 00000000     <absolute>
 0000:00000000       ___x64_code_ranges_to_entry_points_count 00000000     <absolute>
 0000:00000000       __except_list              00000000     <absolute>
 0000:00000014       ___safe_se_handler_count   00000014     <absolute>
 0000:00000100       ___guard_flags             00000100     <absolute>
 0000:00000000       ___ImageBase               00400000     <linker-defined>
 0001:00006220       _main                      00407220 f   main.obj
 0001:000062d0       ___local_stdio_printf_options 004072d0 f i main.obj
 0001:000062e0       __vfprintf_l               004072e0 f i main.obj
 0001:00006320       _printf                    00407320 f i main.obj
 0001:00006370       ?MoveShellCode@@YAXPAX@Z   00407370 f   sc.obj
 0001:00006506       _GetLastError@0            00407506 f   Kernel32:KERNEL32.dll
 0001:0000650c       _VirtualAlloc@16           0040750c f   Kernel32:KERNEL32.dll
 0001:000067f5       ?configure_argv@__scrt_narrow_argv_policy@@SAHXZ 004077f5 f i LIBCMT:exe_main.obj
 0001:00006805       ?initialize_environment@__scrt_narrow_environment_policy@@SAHXZ 00407805 f i LIBCMT:exe_main.obj
 0001:00006837       ?set_app_type@__scrt_main_policy@@SAXXZ 00407837 f i LIBCMT:exe_main.obj
 0001:00006842       ?set_commode@__scrt_file_policy@@SAXXZ 00407842 f i LIBCMT:exe_main.obj
 0001:00006857       ?set_fmode@__scrt_file_policy@@SAXXZ 00407857 f i LIBCMT:exe_main.obj
 0001:00006867       _mainCRTStartup            00407867 f   LIBCMT:exe_main.obj
 0001:00006907       _NtCurrentTeb              00407907 f i LIBCMT:utility.obj
 0001:0000690e       ___scrt_acquire_startup_lock 0040790e f   LIBCMT:utility.obj
 0001:0000694c       ___scrt_dllmain_after_initialize_c 0040794c f   LIBCMT:utility.obj
 0001:00006981       ___scrt_dllmain_before_initialize_c 00407981 f   LIBCMT:utility.obj
 0001:00006992       ___scrt_dllmain_crt_thread_attach 00407992 f   LIBCMT:utility.obj
 0001:000069b8       ___scrt_dllmain_crt_thread_detach 004079b8 f   LIBCMT:utility.obj
 0001:000069c8       ___scrt_dllmain_exception_filter 004079c8 f   LIBCMT:utility.obj
 0001:00006a09       ___scrt_dllmain_uninitialize_c 00407a09 f   LIBCMT:utility.obj
 0001:00006a34       ___scrt_dllmain_uninitialize_critical 00407a34 f   LIBCMT:utility.obj
 0001:00006a44       ___scrt_initialize_crt     00407a44 f   LIBCMT:utility.obj
 0001:00006a8b       ___scrt_initialize_onexit_tables 00407a8b f   LIBCMT:utility.obj
 0001:00006b33       ___scrt_is_nonwritable_in_current_image 00407b33 f   LIBCMT:utility.obj
 0001:00006bec       ___scrt_release_startup_lock 00407bec f   LIBCMT:utility.obj
 0001:00006c10       ___scrt_uninitialize_crt   00407c10 f   LIBCMT:utility.obj
 0001:00006c42       __onexit                   00407c42 f   LIBCMT:utility.obj
 0001:00006c7a       _at_quick_exit             00407c7a f   LIBCMT:utility.obj
 0001:00006ca5       _atexit                    00407ca5 f   LIBCMT:utility.obj
 0001:00006d1f       ___security_init_cookie    00407d1f f   LIBCMT:gs_support.obj
 0001:00006d7c       __matherr                  00407d7c f   LIBCMT:matherr.obj
 0001:00006d7f       __get_startup_argv_mode    00407d7f f   LIBCMT:argv_mode.obj
 0001:00006d83       __get_startup_commit_mode  00407d83 f   LIBCMT:commit_mode.obj
 0001:00006d86       __get_startup_file_mode    00407d86 f   LIBCMT:file_mode.obj
 0001:00006d8c       __get_startup_new_mode     00407d8c f   LIBCMT:new_mode.obj
 0001:00006d8f       __get_startup_thread_locale_mode 00407d8f f   LIBCMT:thread_locale.obj
 0001:00006d92       ?__scrt_initialize_type_info@@YAXXZ 00407d92 f   LIBCMT:tncleanup.obj
 0001:00006da1       ?__scrt_uninitialize_type_info@@YAXXZ 00407da1 f   LIBCMT:tncleanup.obj
 0001:00006db0       __should_initialize_environment 00407db0 f   LIBCMT:env_mode.obj
 0001:00006db3       __initialize_default_precision 00407db3 f   LIBCMT:default_precision.obj
 0001:00006ddc       __initialize_invalid_parameter_handler 00407ddc f   LIBCMT:invalid_parameter_handler.obj
 0001:00006ddf       __initialize_denormal_control 00407ddf f   LIBCMT:denormal_control.obj
 0001:00006de2       ___local_stdio_scanf_options 00407de2 f i LIBCMT:default_local_stdio_options.obj
 0001:00006de8       ___scrt_initialize_default_local_stdio_options 00407de8 f   LIBCMT:default_local_stdio_options.obj
 0001:00006e0c       ___scrt_is_user_matherr_present 00407e0c f   LIBCMT:matherr_detection.obj
 0001:00006e1b       ___scrt_get_dyn_tls_init_callback 00407e1b f   LIBCMT:dyn_tls_init.obj
 0001:00006e21       ___scrt_get_dyn_tls_dtor_callback 00407e21 f   LIBCMT:dyn_tls_dtor.obj
 0001:00006e27       ___scrt_fastfail           00407e27 f   LIBCMT:utility_desktop.obj
 0001:00006f88       ___scrt_get_show_window_mode 00407f88 f   LIBCMT:utility_desktop.obj
 0001:00006fc5       ___scrt_initialize_mta     00407fc5 f   LIBCMT:utility_desktop.obj
 0001:00006fca       ___scrt_initialize_winrt   00407fca f   LIBCMT:utility_desktop.obj
 0001:00006fcd       ___scrt_is_managed_app     00407fcd f   LIBCMT:utility_desktop.obj
 0001:0000701f       ___scrt_set_unhandled_exception_filter 0040801f f   LIBCMT:utility_desktop.obj
 0001:0000702e       ___scrt_exe_initialize_mta 0040802e f   LIBCMT:utility_desktop.obj
 0001:0000702e       ___scrt_stub_for_initialize_mta 0040802e f   LIBCMT:utility_desktop.obj
 0001:00007031       ___scrt_unhandled_exception_filter@4 00408031 f   LIBCMT:utility_desktop.obj
 0001:0000709c       __crt_debugger_hook        0040809c f   LIBCMT:utility_desktop.obj
 0001:000070a6       __RTC_Initialize           004080a6 f   LIBCMT:initsect.obj
 0001:000070dd       __RTC_Terminate            004080dd f   LIBCMT:initsect.obj
 0001:00007120       __SEH_prolog4              00408120 f   LIBCMT:sehprolg4.obj
 0001:00007180       __SEH_epilog4              00408180 f   LIBCMT:sehprolg4.obj
 0001:00007199       @_guard_check_icall_nop@4  00408199 f i LIBCMT:guard_support.obj
 0001:0000719c       _ReadNoFence               0040819c f i LIBCMT:guard_support.obj
 0001:000071a8       _ReadPointerNoFence        004081a8 f i LIBCMT:guard_support.obj
 0001:000071b4       __InlineInterlockedExchangePointer 004081b4 f i LIBCMT:guard_support.obj
 0001:000071c4       ___castguard_check_failure_debugbreak 004081c4 f i LIBCMT:guard_support.obj
 0001:000071e5       ___castguard_check_failure_fastfail 004081e5 f i LIBCMT:guard_support.obj
 0001:0000720b       ___castguard_check_failure_nop 0040820b f i LIBCMT:guard_support.obj
 0001:0000720e       ___castguard_check_failure_os_handled 0040820e f i LIBCMT:guard_support.obj
 0001:0000725e       ___castguard_check_failure_user_handled 0040825e f i LIBCMT:guard_support.obj
 0001:000072e6       ___castguard_set_user_handler 004082e6 f i LIBCMT:guard_support.obj
 0001:000072f8       ___castguard_slow_path_check_debugbreak 004082f8 f i LIBCMT:guard_support.obj
 0001:00007330       ___castguard_slow_path_check_fastfail 00408330 f i LIBCMT:guard_support.obj
 0001:0000736d       ___castguard_slow_path_check_nop 0040836d f i LIBCMT:guard_support.obj
 0001:00007370       ___castguard_slow_path_check_os_handled 00408370 f i LIBCMT:guard_support.obj
 0001:000073c1       ___castguard_slow_path_check_user_handled 004083c1 f i LIBCMT:guard_support.obj
 0001:00007439       __guard_icall_checks_enforced 00408439 f i LIBCMT:guard_support.obj
 0001:0000744f       ___isa_available_init      0040844f f   LIBCMT:cpu_disp.obj
 0001:00007698       ___scrt_is_ucrt_dll_in_use 00408698 f   LIBCMT:ucrt_detection.obj
 0001:000076a7       @__security_check_cookie@4 004086a7 f   LIBCMT:secchk.obj
 0001:000076b8       ___raise_securityfailure   004086b8 f   LIBCMT:gs_report.obj
 0001:000076ea       ___report_gsfailure        004086ea f   LIBCMT:gs_report.obj
 0001:00007822       ___report_rangecheckfailure 00408822 f   LIBCMT:gs_report.obj
 0001:00007831       ___report_securityfailure  00408831 f   LIBCMT:gs_report.obj
 0001:00007933       ___report_securityfailureEx 00408933 f   LIBCMT:gs_report.obj
 0001:00007a90       _memset                    00408a90 f   libvcruntime:memset.obj
 0001:00007c80       __except_handler4          00408c80 f   libvcruntime:chandler4.obj
 0001:00007e35       ___vcrt_initialize         00408e35 f   libvcruntime:initialization.obj
 0001:00007e5b       ___vcrt_thread_attach      00408e5b f   libvcruntime:initialization.obj
 0001:00007e68       ___vcrt_thread_detach      00408e68 f   libvcruntime:initialization.obj
 0001:00007e75       ___vcrt_uninitialize       00408e75 f   libvcruntime:initialization.obj
 0001:00007e91       ___vcrt_uninitialize_critical 00408e91 f   libvcruntime:initialization.obj
 0001:00007eae       ??$?RD@__crt_internal_free_policy@@QBEXQBD@Z 00408eae f i libvcruntime:std_type_info.obj
 0001:00007ec2       ??$?RX@__crt_internal_free_policy@@QBEXQBX@Z 00408ec2 f i libvcruntime:std_type_info.obj
 0001:00007ed6       ??$__crt_interlocked_compare_exchange_pointer@$$CBDPAD$$T@@YAPBDPDSBDQAD$$T@Z 00408ed6 f i libvcruntime:std_type_info.obj
 0001:00007eec       ??$__crt_interlocked_read_pointer@$$CBD@@YAPBDPDSBD@Z 00408eec f i libvcruntime:std_type_info.obj
 0001:00007ef9       ??0?$__crt_unique_heap_ptr@DU__crt_internal_free_policy@@@@QAE@QAD@Z 00408ef9 f i libvcruntime:std_type_info.obj
 0001:00007f0a       ??0?$__crt_unique_heap_ptr@XU__crt_internal_free_policy@@@@QAE@QAX@Z 00408f0a f i libvcruntime:std_type_info.obj
 0001:00007f1b       ??1?$__crt_unique_heap_ptr@DU__crt_internal_free_policy@@@@QAE@XZ 00408f1b f i libvcruntime:std_type_info.obj
 0001:00007f2f       ??1?$__crt_unique_heap_ptr@XU__crt_internal_free_policy@@@@QAE@XZ 00408f2f f i libvcruntime:std_type_info.obj
 0001:00007f43       ??B?$__crt_unique_heap_ptr@DU__crt_internal_free_policy@@@@QBE_NXZ 00408f43 f i libvcruntime:std_type_info.obj
 0001:00007f4a       ??B?$__crt_unique_heap_ptr@XU__crt_internal_free_policy@@@@QBE_NXZ 00408f4a f i libvcruntime:std_type_info.obj
 0001:00007f79       ?__crt_interlocked_read_32@@YAHPDH@Z 00408f79 f i libvcruntime:std_type_info.obj
 0001:00007f86       ?detach@?$__crt_unique_heap_ptr@XU__crt_internal_free_policy@@@@QAEPAXXZ 00408f86 f i libvcruntime:std_type_info.obj
 0001:00007f8c       ?get@?$__crt_unique_heap_ptr@DU__crt_internal_free_policy@@@@QBEPADXZ 00408f8c f i libvcruntime:std_type_info.obj
 0001:00007f8f       ?get@?$__crt_unique_heap_ptr@XU__crt_internal_free_policy@@@@QBEPAXXZ 00408f8f f i libvcruntime:std_type_info.obj
 0001:00007f92       ?is_valid@?$__crt_unique_heap_ptr@DU__crt_internal_free_policy@@@@QBE_NXZ 00408f92 f i libvcruntime:std_type_info.obj
 0001:00007f99       ?is_valid@?$__crt_unique_heap_ptr@XU__crt_internal_free_policy@@@@QBE_NXZ 00408f99 f i libvcruntime:std_type_info.obj
 0001:00007fa0       ?release@?$__crt_unique_heap_ptr@DU__crt_internal_free_policy@@@@QAEXXZ 00408fa0 f i libvcruntime:std_type_info.obj
 0001:00007fb4       ?release@?$__crt_unique_heap_ptr@XU__crt_internal_free_policy@@@@QAEXXZ 00408fb4 f i libvcruntime:std_type_info.obj
 0001:00007fc8       ___std_type_info_compare   00408fc8 f   libvcruntime:std_type_info.obj
 0001:00008013       ___std_type_info_destroy_list 00409013 f   libvcruntime:std_type_info.obj
 0001:0000803e       ___std_type_info_hash      0040903e f   libvcruntime:std_type_info.obj
 0001:0000806d       ___std_type_info_name      0040906d f   libvcruntime:std_type_info.obj
 0001:00008164       ___DestructExceptionObject 00409164 f   libvcruntime:ehhelpers.obj
 0001:0000822d       ?_CallMemberFunction0@@YGXQAX0@Z 0040922d f i libvcruntime:ehhelpers.obj
 0001:000082ab       ?raw_name@type_info@@QBEPBDXZ 004092ab f i libvcruntime:ehhelpers.obj
 0001:000082af       __IsExceptionObjectToBeDestroyed 004092af f   libvcruntime:ehhelpers.obj
 0001:000082de       __SetWinRTOutOfMemoryExceptionCallback 004092de f   libvcruntime:ehhelpers.obj
 0001:000082ee       ___AdjustPointer           004092ee f   libvcruntime:ehhelpers.obj
 0001:0000831c       ___FrameUnwindFilter       0040931c f   libvcruntime:ehhelpers.obj
 0001:00008387       ___GetPlatformExceptionInfo 00409387 f   libvcruntime:ehhelpers.obj
 0001:000083e6       ___current_exception       004093e6 f   libvcruntime:ehhelpers.obj
 0001:000083f1       ___current_exception_context 004093f1 f   libvcruntime:ehhelpers.obj
 0001:000083fc       ___processing_throw        004093fc f   libvcruntime:ehhelpers.obj
 0001:00008407       ___std_terminate           00409407 f   libvcruntime:ehhelpers.obj
 0001:0000840c       __is_exception_typeof      0040940c f   libvcruntime:ehhelpers.obj
 0001:000084e0       __local_unwind4            004094e0 f   libvcruntime:exsup4.obj
 0001:00008610       __seh_longjmp_unwind4@4    00409610 f   libvcruntime:exsup4.obj
 0001:00008650       @_EH4_CallFilterFunc@8     00409650 f   libvcruntime:exsup4.obj
 0001:00008670       @_EH4_TransferToHandler@8  00409670 f   libvcruntime:exsup4.obj
 0001:00008690       @_EH4_GlobalUnwind2@8      00409690 f   libvcruntime:exsup4.obj
 0001:000086b0       @_EH4_LocalUnwind@16       004096b0 f   libvcruntime:exsup4.obj
 0001:000086d9       ___except_validate_context_record 004096d9 f   libvcruntime:jbcxrval.obj
 0001:00008715       ___except_validate_jump_buffer 00409715 f   libvcruntime:jbcxrval.obj
 0001:0000874d       ___except_validate_jump_buffer_common 0040974d f i libvcruntime:jbcxrval.obj
 0001:00008794       ??$?RU__vcrt_ptd@@@__crt_internal_free_policy@@QBEXQBU__vcrt_ptd@@@Z 00409794 f i libvcruntime:per_thread_data.obj
 0001:000087a8       ??0?$__crt_unique_heap_ptr@U__vcrt_ptd@@U__crt_internal_free_policy@@@@QAE@QAU__vcrt_ptd@@@Z 004097a8 f i libvcruntime:per_thread_data.obj
 0001:000087cb       ??1?$__crt_unique_heap_ptr@U__vcrt_ptd@@U__crt_internal_free_policy@@@@QAE@XZ 004097cb f i libvcruntime:per_thread_data.obj
 0001:000087ea       ??B?$__crt_unique_heap_ptr@U__vcrt_ptd@@U__crt_internal_free_policy@@@@QBE_NXZ 004097ea f i libvcruntime:per_thread_data.obj
 0001:000087f1       ?detach@?$__crt_unique_heap_ptr@U__vcrt_ptd@@U__crt_internal_free_policy@@@@QAEPAU__vcrt_ptd@@XZ 004097f1 f i libvcruntime:per_thread_data.obj
 0001:000087f7       ?get@?$__crt_unique_heap_ptr@U__vcrt_ptd@@U__crt_internal_free_policy@@@@QBEPAU__vcrt_ptd@@XZ 004097f7 f i libvcruntime:per_thread_data.obj
 0001:000087fa       ?is_valid@?$__crt_unique_heap_ptr@U__vcrt_ptd@@U__crt_internal_free_policy@@@@QBE_NXZ 004097fa f i libvcruntime:per_thread_data.obj
 0001:00008801       ?release@?$__crt_unique_heap_ptr@U__vcrt_ptd@@U__crt_internal_free_policy@@@@QAEXXZ 00409801 f i libvcruntime:per_thread_data.obj
 0001:00008835       ___vcrt_freefls@4          00409835 f   libvcruntime:per_thread_data.obj
 0001:00008858       ___vcrt_freeptd            00409858 f   libvcruntime:per_thread_data.obj
 0001:0000889b       ___vcrt_getptd             0040989b f   libvcruntime:per_thread_data.obj
 0001:000088ac       ___vcrt_getptd_noexit      004098ac f   libvcruntime:per_thread_data.obj
 0001:00008962       ___vcrt_getptd_noinit      00409962 f   libvcruntime:per_thread_data.obj
 0001:000089a6       ___vcrt_initialize_ptd     004099a6 f   libvcruntime:per_thread_data.obj
 0001:000089e5       ___vcrt_uninitialize_ptd   004099e5 f   libvcruntime:per_thread_data.obj
 0001:00008a06       ___vcrt_initialize_locks   00409a06 f   libvcruntime:locks.obj
 0001:00008a51       ___vcrt_lock               00409a51 f   libvcruntime:locks.obj
 0001:00008a6b       ___vcrt_uninitialize_locks 00409a6b f   libvcruntime:locks.obj
 0001:00008aa5       ___vcrt_unlock             00409aa5 f   libvcruntime:locks.obj
 0001:00008abf       ??$?0$00@DName@@QAE@PBDU?$StringLifeSelector@$00@@@Z 00409abf f i libvcruntime:undname.obj
 0001:00008afe       ??$?0$00@pcharNode@@QAE@PBDHU?$StringLifeSelector@$00@@@Z 00409afe f i libvcruntime:undname.obj
 0001:00008b1f       ??$?0$01@DName@@QAE@PBDU?$StringLifeSelector@$01@@@Z 00409b1f f i libvcruntime:undname.obj
 0001:00008b5e       ??$?0$01@pcharNode@@QAE@PBDHU?$StringLifeSelector@$01@@@Z 00409b5e f i libvcruntime:undname.obj
 0001:00008bae       ??$?0$0A@@DName@@QAE@PBDU?$StringLifeSelector@$0A@@@@Z 00409bae f i libvcruntime:undname.obj
 0001:00008bed       ??$?0$0A@@pcharNode@@QAE@PBDHU?$StringLifeSelector@$0A@@@@Z 00409bed f i libvcruntime:undname.obj
 0001:00008c3d       ??$?0_K$0A@@?$optional@_K@std@@QAE@$$QA_K@Z 00409c3d f i libvcruntime:undname.obj
 0001:00008c5d       ??$?0_K@?$_Optional_construct_base@_K@std@@QAE@Uin_place_t@1@$$QA_K@Z 00409c5d f i libvcruntime:undname.obj
 0001:00008c7d       ??$?0_K@?$_Optional_destruct_base@_K$00@std@@QAE@Uin_place_t@1@$$QA_K@Z 00409c7d f i libvcruntime:undname.obj
 0001:00008c9d       ??$append@VDNameNode@@@DName@@AAEXPBVDNameNode@@@Z 00409c9d f i libvcruntime:undname.obj
 0001:00008cee       ??$append@VDNameStatusNode@@@DName@@AAEXPBVDNameStatusNode@@@Z 00409cee f i libvcruntime:undname.obj
 0001:00008d3f       ??$append@VcharNode@@@DName@@AAEXPBVcharNode@@@Z 00409d3f f i libvcruntime:undname.obj
 0001:00008d90       ??$append@VpDNameNode@@@DName@@AAEXPBVpDNameNode@@@Z 00409d90 f i libvcruntime:undname.obj
 0001:00008de1       ??$append@VpcharNode@@@DName@@AAEXPBVpcharNode@@@Z 00409de1 f i libvcruntime:undname.obj
 0001:00008e32       ??$doPchar@$00@DName@@AAEXPBDH@Z 00409e32 f i libvcruntime:undname.obj
 0001:00008eb7       ??$doPchar@$01@DName@@AAEXPBDH@Z 00409eb7 f i libvcruntime:undname.obj
 0001:00008f44       ??$doPchar@$0A@@DName@@AAEXPBDH@Z 00409f44 f i libvcruntime:undname.obj
 0001:00008fd1       ??$forward@_K@std@@YA$$QA_KAA_K@Z 00409fd1 f i libvcruntime:undname.obj
 0001:000090c6       ??$size@D$04@std@@YAIAAY04$$CBD@Z 0040a0c6 f i libvcruntime:undname.obj
 0001:000090ca       ??0?$_Optional_construct_base@_K@std@@QAE@XZ 0040a0ca f i libvcruntime:undname.obj
 0001:000090d1       ??0?$_Optional_destruct_base@_K$00@std@@QAE@XZ 0040a0d1 f i libvcruntime:undname.obj
 0001:000090d8       ??0?$optional@_K@std@@QAE@XZ 0040a0d8 f i libvcruntime:undname.obj
 0001:000090df       ??0Block@_HeapManager@@QAE@XZ 0040a0df f i libvcruntime:undname.obj
 0001:000090e5       ??0DName@@QAE@AAPBDD@Z     0040a0e5 f   libvcruntime:undname.obj
 0001:00009185       ??0DName@@QAE@ABUStringLiteral@@@Z 0040a185 f   libvcruntime:undname.obj
 0001:000091b5       ??0DName@@QAE@ABV0@@Z      0040a1b5 f i libvcruntime:undname.obj
 0001:000091d0       ??0DName@@QAE@D@Z          0040a1d0 f   libvcruntime:undname.obj
 0001:000091f3       ??0DName@@QAE@PAV0@@Z      0040a1f3 f   libvcruntime:undname.obj
 0001:0000924e       ??0DName@@QAE@W4DNameStatus@@@Z 0040a24e f   libvcruntime:undname.obj
 0001:0000929e       ??0DName@@QAE@XZ           0040a29e f i libvcruntime:undname.obj
 0001:000092aa       ??0DName@@QAE@_J@Z         0040a2aa f   libvcruntime:undname.obj
 0001:00009356       ??0DName@@QAE@_K@Z         0040a356 f   libvcruntime:undname.obj
 0001:000093d3       ??0DNameNode@@IAE@XZ       0040a3d3 f i libvcruntime:undname.obj
 0001:000093de       ??0Replicator@@QAE@XZ      0040a3de f i libvcruntime:undname.obj
 0001:000093ef       ??0UnDecorator@@QAE@PBDP6APADJ@ZK@Z 0040a3ef f i libvcruntime:undname.obj
 0001:0000944e       ??0_Nontrivial_dummy_type@std@@QAE@XZ 0040a44e f i libvcruntime:undname.obj
 0001:00009451       ??0charNode@@QAE@D@Z       0040a451 f i libvcruntime:undname.obj
 0001:0000946b       ??0pDNameNode@@QAE@PAVDName@@@Z 0040a46b f   libvcruntime:undname.obj
 0001:0000949d       ??0pairNode@@QAE@PBVDNameNode@@0@Z 0040a49d f i libvcruntime:undname.obj
 0001:000094ca       ??2@YAPAXIAAV_HeapManager@@H@Z 0040a4ca f   libvcruntime:undname.obj
 0001:000094f0       ??4DName@@QAEAAV0@ABUStringLiteral@@@Z 0040a4f0 f   libvcruntime:undname.obj
 0001:00009519       ??4DName@@QAEAAV0@ABV0@@Z  0040a519 f   libvcruntime:undname.obj
 0001:00009534       ??4DName@@QAEAAV0@D@Z      0040a534 f i libvcruntime:undname.obj
 0001:00009557       ??4DName@@QAEAAV0@PAV0@@Z  0040a557 f   libvcruntime:undname.obj
 0001:000095aa       ??4DName@@QAEAAV0@W4DNameStatus@@@Z 0040a5aa f   libvcruntime:undname.obj
 0001:000095e8       ??AReplicator@@QBE?AVDName@@H@Z 0040a5e8 f   libvcruntime:undname.obj
 0001:00009633       ??B?$optional@_K@std@@QBE_NXZ 0040a633 f i libvcruntime:undname.obj
 0001:00009637       ??D?$_Optional_construct_base@_K@std@@QGAEAA_KXZ 0040a637 f i libvcruntime:undname.obj
 0001:0000963a       ??H@YA?AVDName@@ABUStringLiteral@@ABV0@@Z 0040a63a f i libvcruntime:undname.obj
 0001:00009664       ??H@YA?AVDName@@DABV0@@Z   0040a664 f i libvcruntime:undname.obj
 0001:00009699       ??H@YA?AVDName@@W4DNameStatus@@ABV0@@Z 0040a699 f i libvcruntime:undname.obj
 0001:000096c3       ??HDName@@QBE?AV0@ABUStringLiteral@@@Z 0040a6c3 f   libvcruntime:undname.obj
 0001:000096ed       ??HDName@@QBE?AV0@ABV0@@Z  0040a6ed f   libvcruntime:undname.obj
 0001:00009717       ??HDName@@QBE?AV0@D@Z      0040a717 f   libvcruntime:undname.obj
 0001:00009741       ??HDName@@QBE?AV0@PAV0@@Z  0040a741 f   libvcruntime:undname.obj
 0001:0000976b       ??HDName@@QBE?AV0@W4DNameStatus@@@Z 0040a76b f   libvcruntime:undname.obj
 0001:00009795       ??HStringLiteral@@QBE?AU0@H@Z 0040a795 f i libvcruntime:undname.obj
 0001:000097b5       ??YDName@@QAEAAV0@ABUStringLiteral@@@Z 0040a7b5 f   libvcruntime:undname.obj
 0001:00009823       ??YDName@@QAEAAV0@ABV0@@Z  0040a823 f   libvcruntime:undname.obj
 0001:0000988f       ??YDName@@QAEAAV0@D@Z      0040a88f f   libvcruntime:undname.obj
 0001:000098f9       ??YDName@@QAEAAV0@PAV0@@Z  0040a8f9 f   libvcruntime:undname.obj
 0001:00009976       ??YDName@@QAEAAV0@W4DNameStatus@@@Z 0040a976 f   libvcruntime:undname.obj
 0001:000099c6       ??YReplicator@@QAEAAV0@ABVDName@@@Z 0040a9c6 f   libvcruntime:undname.obj
 0001:00009a16       ??_5DName@@QAEAAV0@ABV0@@Z 0040aa16 f   libvcruntime:undname.obj
 0001:00009a3c       ??__K_l@@YA?AUStringLiteral@@PBDI@Z 0040aa3c f i libvcruntime:undname.obj
 0001:00009a49       ?Constructor@_HeapManager@@QAEXP6APAXI@ZP6AXPAX@Z@Z 0040aa49 f i libvcruntime:undname.obj
 0001:00009a6d       ?Destructor@_HeapManager@@QAEXXZ 0040aa6d f i libvcruntime:undname.obj
 0001:00009ac1       ?UScore@UnDecorator@@SA?AUStringLiteral@@W4Tokens@@@Z 0040aac1 f   libvcruntime:undname.obj
 0001:00009af1       ?composeDeclaration@UnDecorator@@CA?AVDName@@ABV2@@Z 0040aaf1 f i libvcruntime:undname.obj
 0001:0000ab27       ?doAccessSpecifiers@UnDecorator@@SAHXZ 0040bb27 f i libvcruntime:undname.obj
 0001:0000ab38       ?doAllocationLanguage@UnDecorator@@SAHXZ 0040bb38 f i libvcruntime:undname.obj
 0001:0000ab49       ?doAllocationModel@UnDecorator@@SAHXZ 0040bb49 f i libvcruntime:undname.obj
 0001:0000ab5a       ?doEcsu@UnDecorator@@SAHXZ 0040bb5a f i libvcruntime:undname.obj
 0001:0000ab6b       ?doEllipsis@UnDecorator@@SAHXZ 0040bb6b f i libvcruntime:undname.obj
 0001:0000ab7c       ?doFunctionReturns@UnDecorator@@SAHXZ 0040bb7c f i libvcruntime:undname.obj
 0001:0000ab8d       ?doMSKeywords@UnDecorator@@SAHXZ 0040bb8d f i libvcruntime:undname.obj
 0001:0000ab9d       ?doMemberTypes@UnDecorator@@SAHXZ 0040bb9d f i libvcruntime:undname.obj
 0001:0000abae       ?doNameOnly@UnDecorator@@SAHXZ 0040bbae f i libvcruntime:undname.obj
 0001:0000abbb       ?doNoIdentCharCheck@UnDecorator@@SAHXZ 0040bbbb f i libvcruntime:undname.obj
 0001:0000abc8       ?doPchar@DName@@AAEXD@Z    0040bbc8 f   libvcruntime:undname.obj
 0001:0000ac0e       ?doPtr64@UnDecorator@@SAHXZ 0040bc0e f i libvcruntime:undname.obj
 0001:0000ac1f       ?doRestrictionSpec@UnDecorator@@SAHXZ 0040bc1f f i libvcruntime:undname.obj
 0001:0000ac30       ?doThisTypes@UnDecorator@@SAHXZ 0040bc30 f i libvcruntime:undname.obj
 0001:0000ac46       ?doThrowTypes@UnDecorator@@SAHXZ 0040bc46 f i libvcruntime:undname.obj
 0001:0000ac57       ?doTypeOnly@UnDecorator@@SAHXZ 0040bc57 f i libvcruntime:undname.obj
 0001:0000ac64       ?doUnderScore@UnDecorator@@SAHXZ 0040bc64 f i libvcruntime:undname.obj
 0001:0000ac71       ?getAddressOf@UnDecorator@@CA?AVDName@@XZ 0040bc71 f   libvcruntime:undname.obj
 0001:0000acf3       ?getArgumentList@UnDecorator@@CA?AVDName@@XZ 0040bcf3 f   libvcruntime:undname.obj
 0001:0000aeb7       ?getArgumentTypes@UnDecorator@@CA?AVDName@@XZ 0040beb7 f   libvcruntime:undname.obj
 0001:0000b001       ?getArrayAccess@UnDecorator@@CA?AVDName@@XZ 0040c001 f   libvcruntime:undname.obj
 0001:0000b092       ?getArrayObject@UnDecorator@@CA?AVDName@@XZ 0040c092 f   libvcruntime:undname.obj
 0001:0000b13f       ?getArrayType@UnDecorator@@CA?AVDName@@ABV2@@Z 0040c13f f i libvcruntime:undname.obj
 0001:0000b343       ?getBasedType@UnDecorator@@CA?AVDName@@XZ 0040c343 f   libvcruntime:undname.obj
 0001:0000b41d       ?getBasicDataType@UnDecorator@@CA?AVDName@@ABV2@@Z 0040c41d f   libvcruntime:undname.obj
 0001:0000bad0       ?getCHPEName@UnDecorator@@QAEPADPADH@Z 0040cad0 f i libvcruntime:undname.obj
 0001:0000bbe4       ?getCallIndex@UnDecorator@@CA?AVDName@@XZ 0040cbe4 f i libvcruntime:undname.obj
 0001:0000bbfd       ?getCallingConvention@UnDecorator@@CA?AVDName@@XZ 0040cbfd f   libvcruntime:undname.obj
 0001:0000bd07       ?getDataIndirectType@UnDecorator@@CA?AVDName@@ABV2@W4IndirectionKind@@0H@Z 0040cd07 f   libvcruntime:undname.obj
 0001:0000c6a5       ?getDataIndirectType@UnDecorator@@CA?AVDName@@XZ 0040d6a5 f i libvcruntime:undname.obj
 0001:0000c6de       ?getDataType@UnDecorator@@CA?AVDName@@PAV2@@Z 0040d6de f   libvcruntime:undname.obj
 0001:0000c7ea       ?getDecoratedName@UnDecorator@@CA?AVDName@@XZ 0040d7ea f   libvcruntime:undname.obj
 0001:0000cad3       ?getDimension@UnDecorator@@CA?AVDName@@_N@Z 0040dad3 f   libvcruntime:undname.obj
 0001:0000cc1b       ?getDispatchTarget@UnDecorator@@CA?AVDName@@XZ 0040dc1b f   libvcruntime:undname.obj
 0001:0000cc80       ?getDisplacement@UnDecorator@@CA?AVDName@@XZ 0040dc80 f i libvcruntime:undname.obj
 0001:0000cc99       ?getECSUDataType@UnDecorator@@CA?AVDName@@XZ 0040dc99 f   libvcruntime:undname.obj
 0001:0000cead       ?getECSUName@UnDecorator@@CA?AVDName@@XZ 0040dead f i libvcruntime:undname.obj
 0001:0000cec2       ?getEnumType@UnDecorator@@CA?AVDName@@XZ 0040dec2 f i libvcruntime:undname.obj
 0001:0000d02a       ?getExtendedDataIndirectType@UnDecorator@@CA?AVDName@@AAW4IndirectionKind@@AA_NH@Z 0040e02a f   libvcruntime:undname.obj
 0001:0000d241       ?getExternalDataType@UnDecorator@@CA?AVDName@@ABV2@@Z 0040e241 f i libvcruntime:undname.obj
 0001:0000d2bf       ?getFloatingPoint@UnDecorator@@CA?AVDName@@H@Z 0040e2bf f   libvcruntime:undname.obj
 0001:0000d3ac       ?getFunctionIndirectType@UnDecorator@@CA?AVDName@@ABV2@@Z 0040e3ac f   libvcruntime:undname.obj
 0001:0000d840       ?getGuardNumber@UnDecorator@@CA?AVDName@@XZ 0040e840 f i libvcruntime:undname.obj
 0001:0000d859       ?getLastChar@DName@@QBEDXZ 0040e859 f i libvcruntime:undname.obj
 0001:0000d881       ?getLastChar@DNameStatusNode@@UBEDXZ 0040e881 f i libvcruntime:undname.obj
 0001:0000d890       ?getLastChar@charNode@@UBEDXZ 0040e890 f i libvcruntime:undname.obj
 0001:0000d894       ?getLastChar@pDNameNode@@UBEDXZ 0040e894 f i libvcruntime:undname.obj
 0001:0000d8a5       ?getLastChar@pairNode@@UBEDXZ 0040e8a5 f i libvcruntime:undname.obj
 0001:0000d8e7       ?getLastChar@pcharNode@@UBEDXZ 0040e8e7 f i libvcruntime:undname.obj
 0001:0000d8fd       ?getLexicalFrame@UnDecorator@@CA?AVDName@@XZ 0040e8fd f i libvcruntime:undname.obj
 0001:0000d93a       ?getMemberAccess@UnDecorator@@CA?AVDName@@XZ 0040e93a f   libvcruntime:undname.obj
 0001:0000d9c6       ?getMemoryWithBuffer@_HeapManager@@QAEPAXI@Z 0040e9c6 f   libvcruntime:undname.obj
 0001:0000da4a       ?getMemoryWithoutBuffer@_HeapManager@@QAEPAXI@Z 0040ea4a f   libvcruntime:undname.obj
 0001:0000da72       ?getNoexcept@UnDecorator@@CA?AVDName@@XZ 0040ea72 f   libvcruntime:undname.obj
 0001:0000dacc       ?getNumberOfDimensions@UnDecorator@@CAHXZ 0040eacc f   libvcruntime:undname.obj
 0001:0000db46       ?getOperatorName@UnDecorator@@CA?AVDName@@_NPA_N@Z 0040eb46 f i libvcruntime:undname.obj
 0001:0000e57a       ?getPointerToMember@UnDecorator@@CA?AVDName@@XZ 0040f57a f   libvcruntime:undname.obj
 0001:0000e665       ?getPointerType@UnDecorator@@CA?AVDName@@ABV2@0@Z 0040f665 f i libvcruntime:undname.obj
 0001:0000e686       ?getPointerTypeArray@UnDecorator@@CA?AVDName@@ABV2@0@Z 0040f686 f i libvcruntime:undname.obj
 0001:0000e6a7       ?getPrimaryDataType@UnDecorator@@CA?AVDName@@ABV2@@Z 0040f6a7 f   libvcruntime:undname.obj
 0001:0000e988       ?getPtrRefDataType@UnDecorator@@CA?AVDName@@ABV2@H@Z 0040f988 f   libvcruntime:undname.obj
 0001:0000eb50       ?getPtrRefType@UnDecorator@@CA?AVDName@@ABV2@0W4IndirectionKind@@@Z 0040fb50 f   libvcruntime:undname.obj
 0001:0000eca5       ?getReferenceType@UnDecorator@@CA?AVDName@@ABV2@0W4IndirectionKind@@@Z 0040fca5 f i libvcruntime:undname.obj
 0001:0000ecc8       ?getRestrictionSpec@UnDecorator@@CA?AVDName@@XZ 0040fcc8 f   libvcruntime:undname.obj
 0001:0000ee27       ?getReturnType@UnDecorator@@CA?AVDName@@PAV2@@Z 0040fe27 f   libvcruntime:undname.obj
 0001:0000ee61       ?getScope@UnDecorator@@CA?AVDName@@XZ 0040fe61 f   libvcruntime:undname.obj
 0001:0000f30e       ?getScopedName@UnDecorator@@CA?AVDName@@XZ 0041030e f   libvcruntime:undname.obj
 0001:0000f43d       ?getSignedDimension@UnDecorator@@CA?AVDName@@XZ 0041043d f   libvcruntime:undname.obj
 0001:0000f4a2       ?getStorageConvention@UnDecorator@@CA?AVDName@@XZ 004104a2 f i libvcruntime:undname.obj
 0001:0000f4b7       ?getString@DName@@QBEPADPAD0@Z 004104b7 f i libvcruntime:undname.obj
 0001:0000f4ef       ?getString@DName@@QBEPADPADH@Z 004104ef f i libvcruntime:undname.obj
 0001:0000f559       ?getString@DNameStatusNode@@UBEPADPAD0@Z 00410559 f i libvcruntime:undname.obj
 0001:0000f5b1       ?getString@charNode@@UBEPADPAD0@Z 004105b1 f i libvcruntime:undname.obj
 0001:0000f5cb       ?getString@pDNameNode@@UBEPADPAD0@Z 004105cb f i libvcruntime:undname.obj
 0001:0000f5e7       ?getString@pairNode@@UBEPADPAD0@Z 004105e7 f i libvcruntime:undname.obj
 0001:0000f63e       ?getString@pcharNode@@UBEPADPAD0@Z 0041063e f i libvcruntime:undname.obj
 0001:0000f65f       ?getStringEncoding@UnDecorator@@CA?AVDName@@W4PrefixKind@@H@Z 0041065f f   libvcruntime:undname.obj
 0001:0000f716       ?getStringHelper@@YAPADPADPBD1H@Z 00410716 f i libvcruntime:undname.obj
 0001:0000f74a       ?getStringObject@UnDecorator@@CA?AVDName@@XZ 0041074a f   libvcruntime:undname.obj
 0001:0000f7a7       ?getSymbolName@UnDecorator@@CA?AVDName@@XZ 004107a7 f i libvcruntime:undname.obj
 0001:0000f801       ?getTemplateArgumentList@UnDecorator@@CA?AVDName@@XZ 00410801 f   libvcruntime:undname.obj
 0001:0000fa1d       ?getTemplateName@UnDecorator@@CA?AVDName@@_N@Z 00410a1d f   libvcruntime:undname.obj
 0001:0000fbd5       ?getTemplateNonTypeArgument@UnDecorator@@CA?AVDName@@XZ 00410bd5 f   libvcruntime:undname.obj
 0001:0001008f       ?getTemplateTypeArgument@UnDecorator@@CA?AVDName@@XZ 0041108f f   libvcruntime:undname.obj
 0001:000101e4       ?getThisType@UnDecorator@@CA?AVDName@@XZ 004111e4 f i libvcruntime:undname.obj
 0001:0001021e       ?getThrowTypes@UnDecorator@@CA?AVDName@@XZ 0041121e f   libvcruntime:undname.obj
 0001:00010244       ?getTypeEncoding@UnDecorator@@CAHXZ 00411244 f i libvcruntime:undname.obj
 0001:00010654       ?getUndecoratedName@UnDecorator@@QAEPADPADH@Z 00411654 f i libvcruntime:undname.obj
 0001:000107ba       ?getUnionObject@UnDecorator@@CA?AVDName@@XZ 004117ba f   libvcruntime:undname.obj
 0001:0001088a       ?getVCallThunkType@UnDecorator@@CA?AVDName@@XZ 0041188a f i libvcruntime:undname.obj
 0001:000108e6       ?getValue@UnDecorator@@CA?AV?$optional@_K@std@@XZ 004118e6 f   libvcruntime:undname.obj
 0001:00010952       ?getValueObject@UnDecorator@@CA?AVDName@@XZ 00411952 f   libvcruntime:undname.obj
 0001:00010a8a       ?getVbTableType@UnDecorator@@CA?AVDName@@ABV2@@Z 00411a8a f i libvcruntime:undname.obj
 0001:00010aa4       ?getVdispMapType@UnDecorator@@CA?AVDName@@ABV2@@Z 00411aa4 f i libvcruntime:undname.obj
 0001:00010b1d       ?getVfTableType@UnDecorator@@CA?AVDName@@ABV2@@Z 00411b1d f i libvcruntime:undname.obj
 0001:00010cc6       ?getZName@UnDecorator@@CA?AVDName@@_N0@Z 00411cc6 f   libvcruntime:undname.obj
 0001:00010f65       ?get_current_character_and_increment_buffer@UnDecorator@@CADXZ 00411f65 f i libvcruntime:undname.obj
 0001:00010f7e       ?haveTemplateParameters@UnDecorator@@SAHXZ 00411f7e f i libvcruntime:undname.obj
 0001:00010f8b       ?increment_buffer@UnDecorator@@CA_NI@Z 00411f8b f i libvcruntime:undname.obj
 0001:00010fbd       ?increment_buffer_no_check@UnDecorator@@CAXI@Z 00411fbd f i libvcruntime:undname.obj
 0001:00010fce       ?increment_buffer_no_check@UnDecorator@@CAXXZ 00411fce f i libvcruntime:undname.obj
 0001:00010fd5       ?isArray@DName@@QBEHXZ     00411fd5 f i libvcruntime:undname.obj
 0001:00010fe1       ?isComArray@DName@@QBEHXZ  00411fe1 f i libvcruntime:undname.obj
 0001:00010fed       ?isEmpty@DName@@QBEHXZ     00411fed f i libvcruntime:undname.obj
 0001:00010ff7       ?isFull@Replicator@@QBEHXZ 00411ff7 f i libvcruntime:undname.obj
 0001:00011002       ?isNoTE@DName@@QBEHXZ      00412002 f i libvcruntime:undname.obj
 0001:0001100e       ?isPinPtr@DName@@QBEHXZ    0041200e f i libvcruntime:undname.obj
 0001:0001101a       ?isPtrRef@DName@@QBEHXZ    0041201a f i libvcruntime:undname.obj
 0001:00011026       ?isUDC@DName@@QBEHXZ       00412026 f i libvcruntime:undname.obj
 0001:0001103b       ?isUDTThunk@DName@@QBEHXZ  0041203b f i libvcruntime:undname.obj
 0001:00011050       ?isVCallThunk@DName@@QBEHXZ 00412050 f i libvcruntime:undname.obj
 0001:0001105c       ?isValid@DName@@QBEHXZ     0041205c f i libvcruntime:undname.obj
 0001:00011068       ?length@DName@@QBEHXZ      00412068 f i libvcruntime:undname.obj
 0001:0001108e       ?length@DNameStatusNode@@UBEHXZ 0041208e f i libvcruntime:undname.obj
 0001:00011092       ?length@charNode@@UBEHXZ   00412092 f i libvcruntime:undname.obj
 0001:00011096       ?length@pDNameNode@@UBEHXZ 00412096 f i libvcruntime:undname.obj
 0001:000110a7       ?length@pairNode@@UBEHXZ   004120a7 f i libvcruntime:undname.obj
 0001:00011102       ?length@pcharNode@@UBEHXZ  00412102 f i libvcruntime:undname.obj
 0001:00011106       ?make@DNameStatusNode@@SAPBV1@W4DNameStatus@@@Z 00412106 f i libvcruntime:undname.obj
 0001:00011129       ?parseDecoratedName@UnDecorator@@CA?AVDName@@XZ 00412129 f   libvcruntime:undname.obj
 0001:00011262       ?raw_length@DNameStatusNode@@UBEHXZ 00412262 f i libvcruntime:undname.obj
 0001:00011266       ?raw_length@charNode@@UBEHXZ 00412266 f i libvcruntime:undname.obj
 0001:0001126a       ?raw_length@pDNameNode@@UBEHXZ 0041226a f i libvcruntime:undname.obj
 0001:0001126e       ?raw_length@pairNode@@UBEHXZ 0041226e f i libvcruntime:undname.obj
 0001:00011272       ?raw_length@pcharNode@@UBEHXZ 00412272 f i libvcruntime:undname.obj
 0001:00011276       ?setIsArray@DName@@QAEXXZ  00412276 f i libvcruntime:undname.obj
 0001:00011280       ?setIsComArray@DName@@QAEXXZ 00412280 f i libvcruntime:undname.obj
 0001:0001128a       ?setIsNoTE@DName@@QAEXXZ   0041228a f i libvcruntime:undname.obj
 0001:00011294       ?setIsPinPtr@DName@@QAEXXZ 00412294 f i libvcruntime:undname.obj
 0001:0001129e       ?setIsUDC@DName@@QAEXXZ    0041229e f i libvcruntime:undname.obj
 0001:000112ae       ?setIsVCallThunk@DName@@QAEXXZ 004122ae f i libvcruntime:undname.obj
 0001:000112b8       ?setPtrRef@DName@@QAEAAV1@XZ 004122b8 f i libvcruntime:undname.obj
 0001:000112c4       ?status@DName@@QBE?AW4DNameStatus@@XZ 004122c4 f i libvcruntime:undname.obj
 0001:00011349       ___unDName                 00412349 f   libvcruntime:undname.obj
 0001:00011374       ___unDNameEx               00412374 f   libvcruntime:undname.obj
 0001:0001143a       __vsprintf_s_l             0041243a f i libvcruntime:undname.obj
 0001:00011472       _snprintf                  00412472 f i libvcruntime:undname.obj
 0001:00011492       _sprintf_s                 00412492 f i libvcruntime:undname.obj
 0001:000114b5       _unDNameGenerateCHPE       004124b5 f   libvcruntime:undname.obj
 0001:00011579       _vsnprintf                 00412579 f i libvcruntime:undname.obj
 0001:000115c0       __global_unwind2           004125c0 f   libvcruntime:exsup.obj
 0001:00011650       __local_unwind2            00412650 f   libvcruntime:exsup.obj
 0001:00011710       __abnormal_termination     00412710 f   libvcruntime:exsup.obj
 0001:00011750       __NLG_Notify1              00412750 f   libvcruntime:exsup.obj
 0001:00011760       __NLG_Notify               00412760 f   libvcruntime:exsup.obj
 0001:00011777       __NLG_Dispatch             00412777     libvcruntime:exsup.obj
 0001:00011777       __NLG_Dispatch2            00412777     libvcruntime:exsup.obj
 0001:00011790       __NLG_Call                 00412790 f   libvcruntime:exsup.obj
 0001:00011792       __NLG_Return2              00412792     libvcruntime:exsup.obj
 0001:00011793       ??$__crt_interlocked_exchange_pointer@UHINSTANCE__@@PAU1@@@YAPAUHINSTANCE__@@PDSAU0@QAU0@@Z 00412793 f i libvcruntime:winapi_downlevel.obj
 0001:000117a3       ??$__crt_interlocked_exchange_pointer@UHINSTANCE__@@PAX@@YAPAUHINSTANCE__@@PDSAU0@QAX@Z 004127a3 f i libvcruntime:winapi_downlevel.obj
 0001:000117b3       ??$__crt_interlocked_exchange_pointer@XPAX@@YAPAXPDSAXQAX@Z 004127b3 f i libvcruntime:winapi_downlevel.obj
 0001:000117c3       ??$__crt_interlocked_read_pointer@UHINSTANCE__@@@@YAPAUHINSTANCE__@@PDSAU0@@Z 004127c3 f i libvcruntime:winapi_downlevel.obj
 0001:000117d0       ??$__crt_interlocked_read_pointer@X@@YAPAXPDSAX@Z 004127d0 f i libvcruntime:winapi_downlevel.obj
 0001:00011afa       ___vcrt_FlsAlloc           00412afa f   libvcruntime:winapi_downlevel.obj
 0001:00011b43       ___vcrt_FlsFree            00412b43 f   libvcruntime:winapi_downlevel.obj
 0001:00011b8c       ___vcrt_FlsGetValue        00412b8c f   libvcruntime:winapi_downlevel.obj
 0001:00011bd5       ___vcrt_FlsSetValue        00412bd5 f   libvcruntime:winapi_downlevel.obj
 0001:00011c22       ___vcrt_InitializeCriticalSectionEx 00412c22 f   libvcruntime:winapi_downlevel.obj
 0001:00011c7a       ??$__crt_interlocked_exchange_pointer@$$A6AXXZP6AXXZ@@YAP6AXXZPDS6AXXZQ6AXXZ@Z 00412c7a f i libvcruntime:purevirt.obj
 0001:00011c8a       ??$__crt_interlocked_read_pointer@$$A6AXXZ@@YAP6AXXZPDS6AXXZ@Z 00412c8a f i libvcruntime:purevirt.obj
 0001:00011c97       __get_purecall_handler     00412c97 f   libvcruntime:purevirt.obj
 0001:00011c9e       __purecall                 00412c9e f   libvcruntime:purevirt.obj
 0001:00011cc1       __set_purecall_handler     00412cc1 f   libvcruntime:purevirt.obj
 0001:00011cd3       ??$?0AAViterator@TryBlockMap@__FrameHandler3@@AAV012@$0A@@?$pair@Viterator@TryBlockMap@__FrameHandler3@@V123@@std@@QAE@AAViterator@TryBlockMap@__FrameHandler3@@0@Z 00412cd3 f i libvcruntime:trnsctrl.obj
 0001:00011d00       ??$forward@AAViterator@TryBlockMap@__FrameHandler3@@@std@@YAAAViterator@TryBlockMap@__FrameHandler3@@AAV123@@Z 00412d00 f i libvcruntime:trnsctrl.obj
 0001:00011d0a       ??0iterator@TryBlockMap@__FrameHandler3@@QAE@AAV12@I@Z 00412d0a f i libvcruntime:trnsctrl.obj
 0001:00011d23       ?GetRangeOfTrysToCheck@__FrameHandler3@@SA?AU?$pair@Viterator@TryBlockMap@__FrameHandler3@@V123@@std@@AAVTryBlockMap@1@HPAXPBU_s_FuncInfo@@H@Z 00412d23 f   libvcruntime:trnsctrl.obj
 0001:00011daf       ?_CallCatchBlock2@@YAPAXPAUEHRegistrationNode@@PBU_s_FuncInfo@@PAXHK@Z 00412daf f   libvcruntime:trnsctrl.obj
 0001:00011e23       ?_CallSETranslator@@YAHPAUEHExceptionRecord@@PAUEHRegistrationNode@@PAX2PBU_s_FuncInfo@@H1@Z 00412e23 f   libvcruntime:trnsctrl.obj
 0001:00011f56       ?_JumpToContinuation@@YGXPAXPAUEHRegistrationNode@@@Z 00412f56 f   libvcruntime:trnsctrl.obj
 0001:00011f92       ?_UnwindNestedFrames@@YGXPAUEHRegistrationNode@@PAUEHExceptionRecord@@@Z 00412f92 f   libvcruntime:trnsctrl.obj
 0001:00011ff9       __CatchGuardHandler        00412ff9 f   libvcruntime:trnsctrl.obj
 0001:00012036       __CreateFrameInfo          00413036 f   libvcruntime:trnsctrl.obj
 0001:00012063       __FindAndUnlinkFrame       00413063 f   libvcruntime:trnsctrl.obj
 0001:000120bd       __TranslatorGuardHandler   004130bd f   libvcruntime:trnsctrl.obj
 0001:00012181       ___CxxFrameHandler         00413181 f   libvcruntime:trnsctrl.obj
 0001:000121c4       ___CxxFrameHandler2        004131c4 f   libvcruntime:trnsctrl.obj
 0001:00012207       ___CxxFrameHandler3        00413207 f   libvcruntime:trnsctrl.obj
 0001:0001224a       ___CxxLongjmpUnwind@4      0041324a f   libvcruntime:trnsctrl.obj
 0001:00012280       _memcpy                    00413280 f   libvcruntime:memcpy.obj
 0001:0001324e       ??$TypeMatchHelper@V__FrameHandler3@@@@YAHPBU_s_HandlerType@@PBU_s_CatchableType@@PBU_s_ThrowInfo@@@Z 0041424e f i libvcruntime:frame.obj
 0001:000132ff       ??$__InternalCxxFrameHandler@V__FrameHandler3@@@@YA?AW4_EXCEPTION_DISPOSITION@@PAUEHExceptionRecord@@PAUEHRegistrationNode@@PAU_CONTEXT@@PAXPBU_s_FuncInfo@@H1E@Z 004142ff f i libvcruntime:frame.obj
 0001:00013441       ??$__InternalCxxFrameHandlerWrapper@V__FrameHandler3@@@@YA?AW4_EXCEPTION_DISPOSITION@@PAUEHExceptionRecord@@PAUEHRegistrationNode@@PAU_CONTEXT@@PAXPBU_s_FuncInfo@@H1E@Z 00414441 f i libvcruntime:frame.obj
 0001:0001344c       ??0HandlerMap@__FrameHandler3@@QAE@PBU_s_TryBlockMapEntry@@II@Z 0041444c f i libvcruntime:frame.obj
 0001:00013468       ??0TryBlockMap@__FrameHandler3@@QAE@PBU_s_FuncInfo@@I@Z 00414468 f i libvcruntime:frame.obj
 0001:00013481       ??0bad_exception@std@@QAE@ABV01@@Z 00414481 f i libvcruntime:frame.obj
 0001:000134a2       ??0bad_exception@std@@QAE@XZ 004144a2 f i libvcruntime:frame.obj
 0001:000134c0       ??0exception@std@@QAE@ABV01@@Z 004144c0 f i libvcruntime:frame.obj
 0001:000134f7       ??0exception@std@@QAE@QBDH@Z 004144f7 f i libvcruntime:frame.obj
 0001:0001351b       ??0iterator@HandlerMap@__FrameHandler3@@QAE@AAV12@I@Z 0041451b f i libvcruntime:frame.obj
 0001:00013534       ??1bad_exception@std@@UAE@XZ 00414534 f i libvcruntime:frame.obj
 0001:00013549       ??1exception@std@@UAE@XZ   00414549 f i libvcruntime:frame.obj
 0001:0001355e       ??8iterator@HandlerMap@__FrameHandler3@@QBE_NABV012@@Z 0041455e f i libvcruntime:frame.obj
 0001:00013575       ??8type_info@@QBE_NABV0@@Z 00414575 f i libvcruntime:frame.obj
 0001:0001359b       ??9iterator@HandlerMap@__FrameHandler3@@QBE_NABV012@@Z 0041459b f i libvcruntime:frame.obj
 0001:000135b2       ??Diterator@HandlerMap@__FrameHandler3@@QAE?BU_s_HandlerType@@XZ 004145b2 f i libvcruntime:frame.obj
 0001:000135d8       ??Diterator@TryBlockMap@__FrameHandler3@@QAE?BU_s_TryBlockMapEntry@@XZ 004145d8 f i libvcruntime:frame.obj
 0001:00013602       ??Eiterator@HandlerMap@__FrameHandler3@@QAEAAV012@XZ 00414602 f i libvcruntime:frame.obj
 0001:00013608       ??Eiterator@TryBlockMap@__FrameHandler3@@QAEAAV012@XZ 00414608 f i libvcruntime:frame.obj
 0001:0001360e       ??Miterator@TryBlockMap@__FrameHandler3@@QBE_NABV012@@Z 0041460e f i libvcruntime:frame.obj
 0001:00013625       ??_Ebad_exception@std@@UAEPAXI@Z 00414625 f i libvcruntime:frame.obj
 0001:00013625       ??_Gbad_exception@std@@UAEPAXI@Z 00414625 f i libvcruntime:frame.obj
 0001:0001365d       ??_Eexception@std@@UAEPAXI@Z 0041465d f i libvcruntime:frame.obj
 0001:0001365d       ??_Gexception@std@@UAEPAXI@Z 0041465d f i libvcruntime:frame.obj
 0001:00013695       ?BuildCatchObject@__FrameHandler3@@SAXPAUEHExceptionRecord@@PAXPBU_s_HandlerType@@PBU_s_CatchableType@@@Z 00414695 f   libvcruntime:frame.obj
 0001:0001369a       ?BuildCatchObjectHelper@__FrameHandler3@@SAHPAUEHExceptionRecord@@PAXPBU_s_HandlerType@@PBU_s_CatchableType@@@Z 0041469a f   libvcruntime:frame.obj
 0001:00013991       ?FrameUnwindToEmptyState@__FrameHandler3@@SAXPAUEHRegistrationNode@@PAXPBU_s_FuncInfo@@@Z 00414991 f   libvcruntime:frame.obj
 0001:000139af       ?FrameUnwindToState@__FrameHandler3@@SAXPAUEHRegistrationNode@@PAXPBU_s_FuncInfo@@H@Z 004149af f   libvcruntime:frame.obj
 0001:00013ad1       ?GetMaxState@__FrameHandler3@@SAHPAXPBU_s_FuncInfo@@@Z 00414ad1 f i libvcruntime:frame.obj
 0001:00013be5       ?TypeMatch@__FrameHandler3@@SAHPBU_s_HandlerType@@PBU_s_CatchableType@@PBU_s_ThrowInfo@@@Z 00414be5 f   libvcruntime:frame.obj
 0001:00013bf0       ?_CallMemberFunction1@@YGXQAX00@Z 00414bf0 f i libvcruntime:frame.obj
 0001:00013c04       ?_CallMemberFunction2@@YGXQAX00H@Z 00414c04 f i libvcruntime:frame.obj
 0001:00013c1b       ?begin@HandlerMap@__FrameHandler3@@QAE?AViterator@12@XZ 00414c1b f i libvcruntime:frame.obj
 0001:00013c2f       ?end@HandlerMap@__FrameHandler3@@QAE?AViterator@12@XZ 00414c2f f i libvcruntime:frame.obj
 0001:00013c44       ?getESTypes@__FrameHandler3@@SAPBU_s_ESTypeList@@PBU_s_FuncInfo@@@Z 00414c44 f i libvcruntime:frame.obj
 0001:00013c51       ?getLastEntry@HandlerMap@__FrameHandler3@@QAEPBU_s_HandlerType@@XZ 00414c51 f i libvcruntime:frame.obj
 0001:00013c62       ?getMagicNum@__FrameHandler3@@SAIPBU_s_FuncInfo@@@Z 00414c62 f i libvcruntime:frame.obj
 0001:00013c74       ?getNumTryBlocks@TryBlockMap@__FrameHandler3@@QAEIXZ 00414c74 f i libvcruntime:frame.obj
 0001:00013c7a       ?isEHs@__FrameHandler3@@SA_NPBU_s_FuncInfo@@@Z 00414c7a f i libvcruntime:frame.obj
 0001:00013c8a       ?isNoExcept@__FrameHandler3@@SA_NPBU_s_FuncInfo@@@Z 00414c8a f i libvcruntime:frame.obj
 0001:00013c9e       ?what@exception@std@@UBEPBDXZ 00414c9e f i libvcruntime:frame.obj
 0001:00013cae       ___BuildCatchObject        00414cae f   libvcruntime:frame.obj
 0001:00013cb3       ___BuildCatchObjectHelper  00414cb3 f   libvcruntime:frame.obj
 0001:00013cbe       ___TypeMatch               00414cbe f   libvcruntime:frame.obj
 0001:00013cc9       ___vcrt_EncodePointer      00414cc9 f i libvcruntime:frame.obj
 0001:00013ce0       __CallSettingFrame@12      00414ce0 f   libvcruntime:lowhelpr.obj
 0001:00013d07       __NLG_Return               00414d07     libvcruntime:lowhelpr.obj
 0001:00013d58       __get_unexpected           00414d58 f   libvcruntime:unexpected.obj
 0001:00013d6e       _set_unexpected            00414d6e f   libvcruntime:unexpected.obj
 0001:00013d93       _unexpected                00414d93 f   libvcruntime:unexpected.obj
 0001:00013db7       ?GetCurrentState@__FrameHandler3@@SAHPAUEHRegistrationNode@@PAXPBU_s_FuncInfo@@@Z 00414db7 f   libvcruntime:ehstate.obj
 0001:00013ddb       ?SetState@__FrameHandler3@@SAXPAUEHRegistrationNode@@PBU_s_FuncInfo@@H@Z 00414ddb f   libvcruntime:ehstate.obj
 0001:00013dec       ??$?RD@__crt_public_free_policy@@QBEXQBD@Z 00414dec f i libvcruntime:std_exception.obj
 0001:00013e00       ??0?$__crt_unique_heap_ptr@DU__crt_public_free_policy@@@@QAE@QAD@Z 00414e00 f i libvcruntime:std_exception.obj
 0001:00013e11       ??1?$__crt_unique_heap_ptr@DU__crt_public_free_policy@@@@QAE@XZ 00414e11 f i libvcruntime:std_exception.obj
 0001:00013e25       ??B?$__crt_unique_heap_ptr@DU__crt_public_free_policy@@@@QBE_NXZ 00414e25 f i libvcruntime:std_exception.obj
 0001:00013e2c       ?detach@?$__crt_unique_heap_ptr@DU__crt_public_free_policy@@@@QAEPADXZ 00414e2c f i libvcruntime:std_exception.obj
 0001:00013e32       ?get@?$__crt_unique_heap_ptr@DU__crt_public_free_policy@@@@QBEPADXZ 00414e32 f i libvcruntime:std_exception.obj
 0001:00013e35       ?is_valid@?$__crt_unique_heap_ptr@DU__crt_public_free_policy@@@@QBE_NXZ 00414e35 f i libvcruntime:std_exception.obj
 0001:00013e3c       ?release@?$__crt_unique_heap_ptr@DU__crt_public_free_policy@@@@QAEXXZ 00414e3c f i libvcruntime:std_exception.obj
 0001:00013e50       ___std_exception_copy      00414e50 f   libvcruntime:std_exception.obj
 0001:00013ecb       ___std_exception_destroy   00414ecb f   libvcruntime:std_exception.obj
 0001:00013ef1       __CxxThrowException@8      00414ef1 f   libvcruntime:throw.obj
 0001:00013f80       _memmove                   00414f80 f   libvcruntime:memmove.obj
 0001:00014660       _strlen                    00415660 f   libucrt:strlen.obj
 0001:0001470d       ??$?RPAU__crt_stdio_stream_data@@@__crt_internal_free_policy@@QBEXQBQAU__crt_stdio_stream_data@@@Z 0041570d f i libucrt:_file.obj
 0001:00014723       ??0?$__crt_unique_heap_ptr@PAU__crt_stdio_stream_data@@U__crt_internal_free_policy@@@@QAE@QAPAU__crt_stdio_stream_data@@@Z 00415723 f i libucrt:_file.obj
 0001:00014737       ??0__crt_stdio_stream@@QAE@QAU_iobuf@@@Z 00415737 f i libucrt:_file.obj
 0001:0001474b       ??1?$__crt_unique_heap_ptr@PAU__crt_stdio_stream_data@@U__crt_internal_free_policy@@@@QAE@XZ 0041574b f i libucrt:_file.obj
 0001:00014761       ??C__crt_stdio_stream@@QBEPAU__crt_stdio_stream_data@@XZ 00415761 f i libucrt:_file.obj
 0001:00014764       ?detach@?$__crt_unique_heap_ptr@PAU__crt_stdio_stream_data@@U__crt_internal_free_policy@@@@QAEPAPAU__crt_stdio_stream_data@@XZ 00415764 f i libucrt:_file.obj
 0001:0001476a       ?release@?$__crt_unique_heap_ptr@PAU__crt_stdio_stream_data@@U__crt_internal_free_policy@@@@QAEXXZ 0041576a f i libucrt:_file.obj
 0001:00014780       ___acrt_initialize_stdio   00415780 f   libucrt:_file.obj
 0001:0001487a       ___acrt_iob_func           0041587a f   libucrt:_file.obj
 0001:0001488e       ___acrt_uninitialize_stdio 0041588e f   libucrt:_file.obj
 0001:000148ed       __get_stream_buffer_pointers 004158ed f   libucrt:_file.obj
 0001:00014944       __lock_file                00415944 f   libucrt:_file.obj
 0001:0001495d       __unlock_file              0041595d f   libucrt:_file.obj
 0001:00014976       ??$__crt_interlocked_read@J@@YAJPDJ@Z 00415976 f i libucrt:fgetc.obj
 0001:00014986       ?get_flags@__crt_stdio_stream@@QBEJXZ 00415986 f i libucrt:fgetc.obj
 0001:0001498d       ?is_string_backed@__crt_stdio_stream@@QBE_NXZ 0041598d f i libucrt:fgetc.obj
 0001:0001499c       ?public_stream@__crt_stdio_stream@@QBEPAU_iobuf@@XZ 0041599c f i libucrt:fgetc.obj
 0001:0001499f       ?valid@__crt_stdio_stream@@QBE_NXZ 0041599f f i libucrt:fgetc.obj
 0001:000149a6       __fgetc_nolock             004159a6 f   libucrt:fgetc.obj
 0001:000149f1       __fgetchar                 004159f1 f   libucrt:fgetc.obj
 0001:00014a05       __getc_nolock              00415a05 f   libucrt:fgetc.obj
 0001:00014a12       _fgetc                     00415a12 f   libucrt:fgetc.obj
 0001:00014b61       _getc                      00415b61 f   libucrt:fgetc.obj
 0001:00014b6e       _getchar                   00415b6e f   libucrt:fgetc.obj
 0001:00014b73       ??$?0ABV?$stream_output_adapter@D@__crt_stdio_output@@AB_KABQBDAAV__crt_cached_ptd_host@@ABQAD@?$format_validation_base@DV?$stream_output_adapter@D@__crt_stdio_output@@@__crt_stdio_output@@IAE@ABV?$stream_output_adapter@D@1@AB_KABQBDAAV__crt_cached_ptd_host@@ABQAD@Z 00415b73 f i libucrt:output.obj
 0001:00014b9e       ??$?0ABV?$stream_output_adapter@D@__crt_stdio_output@@AB_KABQBDAAV__crt_cached_ptd_host@@ABQAD@?$positional_parameter_base@DV?$stream_output_adapter@D@__crt_stdio_output@@@__crt_stdio_output@@IAE@ABV?$stream_output_adapter@D@1@AB_KABQBDAAV__crt_cached_ptd_host@@ABQAD@Z 00415b9e f i libucrt:output.obj
 0001:00014bf8       ??$?0ABV?$stream_output_adapter@D@__crt_stdio_output@@AB_KABQBDAAV__crt_cached_ptd_host@@ABQAD@?$standard_base@DV?$stream_output_adapter@D@__crt_stdio_output@@@__crt_stdio_output@@IAE@ABV?$stream_output_adapter@D@1@AB_KABQBDAAV__crt_cached_ptd_host@@ABQAD@Z 00415bf8 f i libucrt:output.obj
 0001:00014c37       ??$?0ABV?$stream_output_adapter@_W@__crt_stdio_output@@AB_KABQB_WAAV__crt_cached_ptd_host@@ABQAD@?$format_validation_base@_WV?$stream_output_adapter@_W@__crt_stdio_output@@@__crt_stdio_output@@IAE@ABV?$stream_output_adapter@_W@1@AB_KABQB_WAAV__crt_cached_ptd_host@@ABQAD@Z 00415c37 f i libucrt:output.obj
 0001:00014c62       ??$?0ABV?$stream_output_adapter@_W@__crt_stdio_output@@AB_KABQB_WAAV__crt_cached_ptd_host@@ABQAD@?$positional_parameter_base@_WV?$stream_output_adapter@_W@__crt_stdio_output@@@__crt_stdio_output@@IAE@ABV?$stream_output_adapter@_W@1@AB_KABQB_WAAV__crt_cached_ptd_host@@ABQAD@Z 00415c62 f i libucrt:output.obj
 0001:00014cbc       ??$?0ABV?$stream_output_adapter@_W@__crt_stdio_output@@AB_KABQB_WAAV__crt_cached_ptd_host@@ABQAD@?$standard_base@_WV?$stream_output_adapter@_W@__crt_stdio_output@@@__crt_stdio_output@@IAE@ABV?$stream_output_adapter@_W@1@AB_KABQB_WAAV__crt_cached_ptd_host@@ABQAD@Z 00415cbc f i libucrt:output.obj
 0001:00014cfb       ??$?0ABV?$string_output_adapter@D@__crt_stdio_output@@AB_KABQBDAAV__crt_cached_ptd_host@@ABQAD@?$format_validation_base@DV?$string_output_adapter@D@__crt_stdio_output@@@__crt_stdio_output@@IAE@ABV?$string_output_adapter@D@1@AB_KABQBDAAV__crt_cached_ptd_host@@ABQAD@Z 00415cfb f i libucrt:output.obj
 0001:00014d26       ??$?0ABV?$string_output_adapter@D@__crt_stdio_output@@AB_KABQBDAAV__crt_cached_ptd_host@@ABQAD@?$positional_parameter_base@DV?$string_output_adapter@D@__crt_stdio_output@@@__crt_stdio_output@@IAE@ABV?$string_output_adapter@D@1@AB_KABQBDAAV__crt_cached_ptd_host@@ABQAD@Z 00415d26 f i libucrt:output.obj
 0001:00014d80       ??$?0ABV?$string_output_adapter@D@__crt_stdio_output@@AB_KABQBDAAV__crt_cached_ptd_host@@ABQAD@?$standard_base@DV?$string_output_adapter@D@__crt_stdio_output@@@__crt_stdio_output@@IAE@ABV?$string_output_adapter@D@1@AB_KABQBDAAV__crt_cached_ptd_host@@ABQAD@Z 00415d80 f i libucrt:output.obj
 0001:00014dbf       ??$?0ABV?$string_output_adapter@_W@__crt_stdio_output@@AB_KABQB_WAAV__crt_cached_ptd_host@@ABQAD@?$format_validation_base@_WV?$string_output_adapter@_W@__crt_stdio_output@@@__crt_stdio_output@@IAE@ABV?$string_output_adapter@_W@1@AB_KABQB_WAAV__crt_cached_ptd_host@@ABQAD@Z 00415dbf f i libucrt:output.obj
 0001:00014dea       ??$?0ABV?$string_output_adapter@_W@__crt_stdio_output@@AB_KABQB_WAAV__crt_cached_ptd_host@@ABQAD@?$positional_parameter_base@_WV?$string_output_adapter@_W@__crt_stdio_output@@@__crt_stdio_output@@IAE@ABV?$string_output_adapter@_W@1@AB_KABQB_WAAV__crt_cached_ptd_host@@ABQAD@Z 00415dea f i libucrt:output.obj
 0001:00014e44       ??$?0ABV?$string_output_adapter@_W@__crt_stdio_output@@AB_KABQB_WAAV__crt_cached_ptd_host@@ABQAD@?$standard_base@_WV?$string_output_adapter@_W@__crt_stdio_output@@@__crt_stdio_output@@IAE@ABV?$string_output_adapter@_W@1@AB_KABQB_WAAV__crt_cached_ptd_host@@ABQAD@Z 00415e44 f i libucrt:output.obj
 0001:00015243       ??$_tcstol_internal@DPAPAD$0A@@@YAJAAV__crt_cached_ptd_host@@QBDQAPADH@Z 00416243 f i libucrt:output.obj
 0001:00015278       ??$_tcstol_internal@_WPAPA_W$0A@@@YAJAAV__crt_cached_ptd_host@@QB_WQAPA_WH@Z 00416278 f i libucrt:output.obj
 0001:000165a1       ??$count@D@formatting_buffer@__crt_stdio_output@@QBEIXZ 004175a1 f i libucrt:output.obj
 0001:000165bf       ??$count@_W@formatting_buffer@__crt_stdio_output@@QBEIXZ 004175bf f i libucrt:output.obj
 0001:000165de       ??$data@D@formatting_buffer@__crt_stdio_output@@QAEPADXZ 004175de f i libucrt:output.obj
 0001:000165ee       ??$data@_W@formatting_buffer@__crt_stdio_output@@QAEPA_WXZ 004175ee f i libucrt:output.obj
 0001:000165fe       ??$ensure_buffer_is_big_enough@D@formatting_buffer@__crt_stdio_output@@QAE_NIAAV__crt_cached_ptd_host@@@Z 004175fe f i libucrt:output.obj
 0001:0001669f       ??$ensure_buffer_is_big_enough@_W@formatting_buffer@__crt_stdio_output@@QAE_NIAAV__crt_cached_ptd_host@@@Z 0041769f f i libucrt:output.obj
 0001:00016741       ??$extract_argument_from_va_list@C_J@?$positional_parameter_base@DV?$stream_output_adapter@D@__crt_stdio_output@@@__crt_stdio_output@@IAE_NAA_J@Z 00417741 f i libucrt:output.obj
 0001:000167eb       ??$extract_argument_from_va_list@C_J@?$positional_parameter_base@DV?$string_output_adapter@D@__crt_stdio_output@@@__crt_stdio_output@@IAE_NAA_J@Z 004177eb f i libucrt:output.obj
 0001:00016895       ??$extract_argument_from_va_list@C_J@?$positional_parameter_base@_WV?$stream_output_adapter@_W@__crt_stdio_output@@@__crt_stdio_output@@IAE_NAA_J@Z 00417895 f i libucrt:output.obj
 0001:00016940       ??$extract_argument_from_va_list@C_J@?$positional_parameter_base@_WV?$string_output_adapter@_W@__crt_stdio_output@@@__crt_stdio_output@@IAE_NAA_J@Z 00417940 f i libucrt:output.obj
 0001:000169eb       ??$extract_argument_from_va_list@C_J@?$standard_base@DV?$stream_output_adapter@D@__crt_stdio_output@@@__crt_stdio_output@@IAE_NAA_J@Z 004179eb f i libucrt:output.obj
 0001:00016a11       ??$extract_argument_from_va_list@C_J@?$standard_base@DV?$string_output_adapter@D@__crt_stdio_output@@@__crt_stdio_output@@IAE_NAA_J@Z 00417a11 f i libucrt:output.obj
 0001:00016a37       ??$extract_argument_from_va_list@C_J@?$standard_base@_WV?$stream_output_adapter@_W@__crt_stdio_output@@@__crt_stdio_output@@IAE_NAA_J@Z 00417a37 f i libucrt:output.obj
 0001:00016a5d       ??$extract_argument_from_va_list@C_J@?$standard_base@_WV?$string_output_adapter@_W@__crt_stdio_output@@@__crt_stdio_output@@IAE_NAA_J@Z 00417a5d f i libucrt:output.obj
 0001:00016a83       ??$extract_argument_from_va_list@E_J@?$positional_parameter_base@DV?$stream_output_adapter@D@__crt_stdio_output@@@__crt_stdio_output@@IAE_NAA_J@Z 00417a83 f i libucrt:output.obj
 0001:00016b2d       ??$extract_argument_from_va_list@E_J@?$positional_parameter_base@DV?$string_output_adapter@D@__crt_stdio_output@@@__crt_stdio_output@@IAE_NAA_J@Z 00417b2d f i libucrt:output.obj
 0001:00016bd7       ??$extract_argument_from_va_list@E_J@?$positional_parameter_base@_WV?$stream_output_adapter@_W@__crt_stdio_output@@@__crt_stdio_output@@IAE_NAA_J@Z 00417bd7 f i libucrt:output.obj
 0001:00016c82       ??$extract_argument_from_va_list@E_J@?$positional_parameter_base@_WV?$string_output_adapter@_W@__crt_stdio_output@@@__crt_stdio_output@@IAE_NAA_J@Z 00417c82 f i libucrt:output.obj
 0001:00016d2d       ??$extract_argument_from_va_list@E_J@?$standard_base@DV?$stream_output_adapter@D@__crt_stdio_output@@@__crt_stdio_output@@IAE_NAA_J@Z 00417d2d f i libucrt:output.obj
 0001:00016d53       ??$extract_argument_from_va_list@E_J@?$standard_base@DV?$string_output_adapter@D@__crt_stdio_output@@@__crt_stdio_output@@IAE_NAA_J@Z 00417d53 f i libucrt:output.obj
 0001:00016d79       ??$extract_argument_from_va_list@E_J@?$standard_base@_WV?$stream_output_adapter@_W@__crt_stdio_output@@@__crt_stdio_output@@IAE_NAA_J@Z 00417d79 f i libucrt:output.obj
 0001:00016d9f       ??$extract_argument_from_va_list@E_J@?$standard_base@_WV?$string_output_adapter@_W@__crt_stdio_output@@@__crt_stdio_output@@IAE_NAA_J@Z 00417d9f f i libucrt:output.obj
 0001:00016dc5       ??$extract_argument_from_va_list@F_J@?$positional_parameter_base@DV?$stream_output_adapter@D@__crt_stdio_output@@@__crt_stdio_output@@IAE_NAA_J@Z 00417dc5 f i libucrt:output.obj
 0001:00016e6f       ??$extract_argument_from_va_list@F_J@?$positional_parameter_base@DV?$string_output_adapter@D@__crt_stdio_output@@@__crt_stdio_output@@IAE_NAA_J@Z 00417e6f f i libucrt:output.obj
 0001:00016f19       ??$extract_argument_from_va_list@F_J@?$positional_parameter_base@_WV?$stream_output_adapter@_W@__crt_stdio_output@@@__crt_stdio_output@@IAE_NAA_J@Z 00417f19 f i libucrt:output.obj
 0001:00016fc4       ??$extract_argument_from_va_list@F_J@?$positional_parameter_base@_WV?$string_output_adapter@_W@__crt_stdio_output@@@__crt_stdio_output@@IAE_NAA_J@Z 00417fc4 f i libucrt:output.obj
 0001:0001706f       ??$extract_argument_from_va_list@F_J@?$standard_base@DV?$stream_output_adapter@D@__crt_stdio_output@@@__crt_stdio_output@@IAE_NAA_J@Z 0041806f f i libucrt:output.obj
 0001:00017095       ??$extract_argument_from_va_list@F_J@?$standard_base@DV?$string_output_adapter@D@__crt_stdio_output@@@__crt_stdio_output@@IAE_NAA_J@Z 00418095 f i libucrt:output.obj
 0001:000170bb       ??$extract_argument_from_va_list@F_J@?$standard_base@_WV?$stream_output_adapter@_W@__crt_stdio_output@@@__crt_stdio_output@@IAE_NAA_J@Z 004180bb f i libucrt:output.obj
 0001:000170e1       ??$extract_argument_from_va_list@F_J@?$standard_base@_WV?$string_output_adapter@_W@__crt_stdio_output@@@__crt_stdio_output@@IAE_NAA_J@Z 004180e1 f i libucrt:output.obj
 0001:00017107       ??$extract_argument_from_va_list@GD@?$positional_parameter_base@DV?$stream_output_adapter@D@__crt_stdio_output@@@__crt_stdio_output@@IAE_NAAD@Z 00418107 f i libucrt:output.obj
 0001:000171af       ??$extract_argument_from_va_list@GD@?$positional_parameter_base@DV?$string_output_adapter@D@__crt_stdio_output@@@__crt_stdio_output@@IAE_NAAD@Z 004181af f i libucrt:output.obj
 0001:00017257       ??$extract_argument_from_va_list@GD@?$standard_base@DV?$stream_output_adapter@D@__crt_stdio_output@@@__crt_stdio_output@@IAE_NAAD@Z 00418257 f i libucrt:output.obj
 0001:00017277       ??$extract_argument_from_va_list@GD@?$standard_base@DV?$string_output_adapter@D@__crt_stdio_output@@@__crt_stdio_output@@IAE_NAAD@Z 00418277 f i libucrt:output.obj
 0001:00017297       ??$extract_argument_from_va_list@G_J@?$positional_parameter_base@DV?$stream_output_adapter@D@__crt_stdio_output@@@__crt_stdio_output@@IAE_NAA_J@Z 00418297 f i libucrt:output.obj
 0001:00017341       ??$extract_argument_from_va_list@G_J@?$positional_parameter_base@DV?$string_output_adapter@D@__crt_stdio_output@@@__crt_stdio_output@@IAE_NAA_J@Z 00418341 f i libucrt:output.obj
 0001:000173eb       ??$extract_argument_from_va_list@G_J@?$positional_parameter_base@_WV?$stream_output_adapter@_W@__crt_stdio_output@@@__crt_stdio_output@@IAE_NAA_J@Z 004183eb f i libucrt:output.obj
 0001:00017496       ??$extract_argument_from_va_list@G_J@?$positional_parameter_base@_WV?$string_output_adapter@_W@__crt_stdio_output@@@__crt_stdio_output@@IAE_NAA_J@Z 00418496 f i libucrt:output.obj
 0001:00017541       ??$extract_argument_from_va_list@G_J@?$standard_base@DV?$stream_output_adapter@D@__crt_stdio_output@@@__crt_stdio_output@@IAE_NAA_J@Z 00418541 f i libucrt:output.obj
 0001:00017567       ??$extract_argument_from_va_list@G_J@?$standard_base@DV?$string_output_adapter@D@__crt_stdio_output@@@__crt_stdio_output@@IAE_NAA_J@Z 00418567 f i libucrt:output.obj
 0001:0001758d       ??$extract_argument_from_va_list@G_J@?$standard_base@_WV?$stream_output_adapter@_W@__crt_stdio_output@@@__crt_stdio_output@@IAE_NAA_J@Z 0041858d f i libucrt:output.obj
 0001:000175b3       ??$extract_argument_from_va_list@G_J@?$standard_base@_WV?$string_output_adapter@_W@__crt_stdio_output@@@__crt_stdio_output@@IAE_NAA_J@Z 004185b3 f i libucrt:output.obj
 0001:000175d9       ??$extract_argument_from_va_list@H_J@?$positional_parameter_base@DV?$stream_output_adapter@D@__crt_stdio_output@@@__crt_stdio_output@@IAE_NAA_J@Z 004185d9 f i libucrt:output.obj
 0001:00017680       ??$extract_argument_from_va_list@H_J@?$positional_parameter_base@DV?$string_output_adapter@D@__crt_stdio_output@@@__crt_stdio_output@@IAE_NAA_J@Z 00418680 f i libucrt:output.obj
 0001:00017727       ??$extract_argument_from_va_list@H_J@?$positional_parameter_base@_WV?$stream_output_adapter@_W@__crt_stdio_output@@@__crt_stdio_output@@IAE_NAA_J@Z 00418727 f i libucrt:output.obj
 0001:000177cf       ??$extract_argument_from_va_list@H_J@?$positional_parameter_base@_WV?$string_output_adapter@_W@__crt_stdio_output@@@__crt_stdio_output@@IAE_NAA_J@Z 004187cf f i libucrt:output.obj
 0001:00017877       ??$extract_argument_from_va_list@H_J@?$standard_base@DV?$stream_output_adapter@D@__crt_stdio_output@@@__crt_stdio_output@@IAE_NAA_J@Z 00418877 f i libucrt:output.obj
 0001:0001789c       ??$extract_argument_from_va_list@H_J@?$standard_base@DV?$string_output_adapter@D@__crt_stdio_output@@@__crt_stdio_output@@IAE_NAA_J@Z 0041889c f i libucrt:output.obj
 0001:000178c1       ??$extract_argument_from_va_list@H_J@?$standard_base@_WV?$stream_output_adapter@_W@__crt_stdio_output@@@__crt_stdio_output@@IAE_NAA_J@Z 004188c1 f i libucrt:output.obj
 0001:000178e6       ??$extract_argument_from_va_list@H_J@?$standard_base@_WV?$string_output_adapter@_W@__crt_stdio_output@@@__crt_stdio_output@@IAE_NAA_J@Z 004188e6 f i libucrt:output.obj
 0001:0001790b       ??$extract_argument_from_va_list@I_J@?$positional_parameter_base@DV?$stream_output_adapter@D@__crt_stdio_output@@@__crt_stdio_output@@IAE_NAA_J@Z 0041890b f i libucrt:output.obj
 0001:000179bd       ??$extract_argument_from_va_list@I_J@?$positional_parameter_base@DV?$string_output_adapter@D@__crt_stdio_output@@@__crt_stdio_output@@IAE_NAA_J@Z 004189bd f i libucrt:output.obj
 0001:00017a6f       ??$extract_argument_from_va_list@I_J@?$positional_parameter_base@_WV?$stream_output_adapter@_W@__crt_stdio_output@@@__crt_stdio_output@@IAE_NAA_J@Z 00418a6f f i libucrt:output.obj
 0001:00017b23       ??$extract_argument_from_va_list@I_J@?$positional_parameter_base@_WV?$string_output_adapter@_W@__crt_stdio_output@@@__crt_stdio_output@@IAE_NAA_J@Z 00418b23 f i libucrt:output.obj
 0001:00017bd7       ??$extract_argument_from_va_list@I_J@?$standard_base@DV?$stream_output_adapter@D@__crt_stdio_output@@@__crt_stdio_output@@IAE_NAA_J@Z 00418bd7 f i libucrt:output.obj
 0001:00017bfc       ??$extract_argument_from_va_list@I_J@?$standard_base@DV?$string_output_adapter@D@__crt_stdio_output@@@__crt_stdio_output@@IAE_NAA_J@Z 00418bfc f i libucrt:output.obj
 0001:00017c21       ??$extract_argument_from_va_list@I_J@?$standard_base@_WV?$stream_output_adapter@_W@__crt_stdio_output@@@__crt_stdio_output@@IAE_NAA_J@Z 00418c21 f i libucrt:output.obj
 0001:00017c46       ??$extract_argument_from_va_list@I_J@?$standard_base@_WV?$string_output_adapter@_W@__crt_stdio_output@@@__crt_stdio_output@@IAE_NAA_J@Z 00418c46 f i libucrt:output.obj
 0001:00017c6b       ??$extract_argument_from_va_list@PADPAD@?$positional_parameter_base@DV?$stream_output_adapter@D@__crt_stdio_output@@@__crt_stdio_output@@IAE_NAAPAD@Z 00418c6b f i libucrt:output.obj
 0001:00017d13       ??$extract_argument_from_va_list@PADPAD@?$positional_parameter_base@DV?$string_output_adapter@D@__crt_stdio_output@@@__crt_stdio_output@@IAE_NAAPAD@Z 00418d13 f i libucrt:output.obj
 0001:00017dbb       ??$extract_argument_from_va_list@PADPAD@?$positional_parameter_base@_WV?$stream_output_adapter@_W@__crt_stdio_output@@@__crt_stdio_output@@IAE_NAAPAD@Z 00418dbb f i libucrt:output.obj
 0001:00017e65       ??$extract_argument_from_va_list@PADPAD@?$positional_parameter_base@_WV?$string_output_adapter@_W@__crt_stdio_output@@@__crt_stdio_output@@IAE_NAAPAD@Z 00418e65 f i libucrt:output.obj
 0001:00017f0f       ??$extract_argument_from_va_list@PADPAD@?$standard_base@DV?$stream_output_adapter@D@__crt_stdio_output@@@__crt_stdio_output@@IAE_NAAPAD@Z 00418f0f f i libucrt:output.obj
 0001:00017f2f       ??$extract_argument_from_va_list@PADPAD@?$standard_base@DV?$string_output_adapter@D@__crt_stdio_output@@@__crt_stdio_output@@IAE_NAAPAD@Z 00418f2f f i libucrt:output.obj
 0001:00017f4f       ??$extract_argument_from_va_list@PADPAD@?$standard_base@_WV?$stream_output_adapter@_W@__crt_stdio_output@@@__crt_stdio_output@@IAE_NAAPAD@Z 00418f4f f i libucrt:output.obj
 0001:00017f6f       ??$extract_argument_from_va_list@PADPAD@?$standard_base@_WV?$string_output_adapter@_W@__crt_stdio_output@@@__crt_stdio_output@@IAE_NAAPAD@Z 00418f6f f i libucrt:output.obj
 0001:00017f8f       ??$extract_argument_from_va_list@PAUansi_string@?1??type_case_Z@?$output_processor@DV?$stream_output_adapter@D@__crt_stdio_output@@V?$format_validation_base@DV?$stream_output_adapter@D@__crt_stdio_output@@@2@@__crt_stdio_output@@AAE_NXZ@PAU1?1??234@AAE_NXZ@@?$standard_base@DV?$stream_output_adapter@D@__crt_stdio_output@@@__crt_stdio_output@@IAE_NAAPAUansi_string@?1??type_case_Z@?$output_processor@DV?$stream_output_adapter@D@__crt_stdio_output@@V?$format_validation_base@DV?$stream_output_adapter@D@__crt_stdio_output@@@2@@1@AAE_NXZ@@Z 00418f8f f i libucrt:output.obj
 0001:00017faf       ??$extract_argument_from_va_list@PAUansi_string@?1??type_case_Z@?$output_processor@DV?$stream_output_adapter@D@__crt_stdio_output@@V?$positional_parameter_base@DV?$stream_output_adapter@D@__crt_stdio_output@@@2@@__crt_stdio_output@@AAE_NXZ@PAU1?1??234@AAE_NXZ@@?$positional_parameter_base@DV?$stream_output_adapter@D@__crt_stdio_output@@@__crt_stdio_output@@IAE_NAAPAUansi_string@?1??type_case_Z@?$output_processor@DV?$stream_output_adapter@D@__crt_stdio_output@@V?$positional_parameter_base@DV?$stream_output_adapter@D@__crt_stdio_output@@@2@@1@AAE_NXZ@@Z 00418faf f i libucrt:output.obj
 0001:00018057       ??$extract_argument_from_va_list@PAUansi_string@?1??type_case_Z@?$output_processor@DV?$stream_output_adapter@D@__crt_stdio_output@@V?$positional_parameter_base@DV?$stream_output_adapter@D@__crt_stdio_output@@@2@@__crt_stdio_output@@AAE_NXZ@PAU1?1??234@AAE_NXZ@@?$standard_base@DV?$stream_output_adapter@D@__crt_stdio_output@@@__crt_stdio_output@@IAE_NAAPAUansi_string@?1??type_case_Z@?$output_processor@DV?$stream_output_adapter@D@__crt_stdio_output@@V?$positional_parameter_base@DV?$stream_output_adapter@D@__crt_stdio_output@@@2@@1@AAE_NXZ@@Z 00419057 f i libucrt:output.obj
 0001:00018077       ??$extract_argument_from_va_list@PAUansi_string@?1??type_case_Z@?$output_processor@DV?$stream_output_adapter@D@__crt_stdio_output@@V?$standard_base@DV?$stream_output_adapter@D@__crt_stdio_output@@@2@@__crt_stdio_output@@AAE_NXZ@PAU1?1??234@AAE_NXZ@@?$standard_base@DV?$stream_output_adapter@D@__crt_stdio_output@@@__crt_stdio_output@@IAE_NAAPAUansi_string@?1??type_case_Z@?$output_processor@DV?$stream_output_adapter@D@__crt_stdio_output@@V?$standard_base@DV?$stream_output_adapter@D@__crt_stdio_output@@@2@@1@AAE_NXZ@@Z 00419077 f i libucrt:output.obj
 0001:00018097       ??$extract_argument_from_va_list@PAUansi_string@?1??type_case_Z@?$output_processor@DV?$string_output_adapter@D@__crt_stdio_output@@V?$format_validation_base@DV?$string_output_adapter@D@__crt_stdio_output@@@2@@__crt_stdio_output@@AAE_NXZ@PAU1?1??234@AAE_NXZ@@?$standard_base@DV?$string_output_adapter@D@__crt_stdio_output@@@__crt_stdio_output@@IAE_NAAPAUansi_string@?1??type_case_Z@?$output_processor@DV?$string_output_adapter@D@__crt_stdio_output@@V?$format_validation_base@DV?$string_output_adapter@D@__crt_stdio_output@@@2@@1@AAE_NXZ@@Z 00419097 f i libucrt:output.obj
 0001:000180b7       ??$extract_argument_from_va_list@PAUansi_string@?1??type_case_Z@?$output_processor@DV?$string_output_adapter@D@__crt_stdio_output@@V?$positional_parameter_base@DV?$string_output_adapter@D@__crt_stdio_output@@@2@@__crt_stdio_output@@AAE_NXZ@PAU1?1??234@AAE_NXZ@@?$positional_parameter_base@DV?$string_output_adapter@D@__crt_stdio_output@@@__crt_stdio_output@@IAE_NAAPAUansi_string@?1??type_case_Z@?$output_processor@DV?$string_output_adapter@D@__crt_stdio_output@@V?$positional_parameter_base@DV?$string_output_adapter@D@__crt_stdio_output@@@2@@1@AAE_NXZ@@Z 004190b7 f i libucrt:output.obj
 0001:0001815f       ??$extract_argument_from_va_list@PAUansi_string@?1??type_case_Z@?$output_processor@DV?$string_output_adapter@D@__crt_stdio_output@@V?$positional_parameter_base@DV?$string_output_adapter@D@__crt_stdio_output@@@2@@__crt_stdio_output@@AAE_NXZ@PAU1?1??234@AAE_NXZ@@?$standard_base@DV?$string_output_adapter@D@__crt_stdio_output@@@__crt_stdio_output@@IAE_NAAPAUansi_string@?1??type_case_Z@?$output_processor@DV?$string_output_adapter@D@__crt_stdio_output@@V?$positional_parameter_base@DV?$string_output_adapter@D@__crt_stdio_output@@@2@@1@AAE_NXZ@@Z 0041915f f i libucrt:output.obj
 0001:0001817f       ??$extract_argument_from_va_list@PAUansi_string@?1??type_case_Z@?$output_processor@DV?$string_output_adapter@D@__crt_stdio_output@@V?$standard_base@DV?$string_output_adapter@D@__crt_stdio_output@@@2@@__crt_stdio_output@@AAE_NXZ@PAU1?1??234@AAE_NXZ@@?$standard_base@DV?$string_output_adapter@D@__crt_stdio_output@@@__crt_stdio_output@@IAE_NAAPAUansi_string@?1??type_case_Z@?$output_processor@DV?$string_output_adapter@D@__crt_stdio_output@@V?$standard_base@DV?$string_output_adapter@D@__crt_stdio_output@@@2@@1@AAE_NXZ@@Z 0041917f f i libucrt:output.obj
 0001:0001819f       ??$extract_argument_from_va_list@PAUansi_string@?1??type_case_Z@?$output_processor@_WV?$stream_output_adapter@_W@__crt_stdio_output@@V?$format_validation_base@_WV?$stream_output_adapter@_W@__crt_stdio_output@@@2@@__crt_stdio_output@@AAE_NXZ@PAU1?1??234@AAE_NXZ@@?$standard_base@_WV?$stream_output_adapter@_W@__crt_stdio_output@@@__crt_stdio_output@@IAE_NAAPAUansi_string@?1??type_case_Z@?$output_processor@_WV?$stream_output_adapter@_W@__crt_stdio_output@@V?$format_validation_base@_WV?$stream_output_adapter@_W@__crt_stdio_output@@@2@@1@AAE_NXZ@@Z 0041919f f i libucrt:output.obj
 0001:000181bf       ??$extract_argument_from_va_list@PAUansi_string@?1??type_case_Z@?$output_processor@_WV?$stream_output_adapter@_W@__crt_stdio_output@@V?$positional_parameter_base@_WV?$stream_output_adapter@_W@__crt_stdio_output@@@2@@__crt_stdio_output@@AAE_NXZ@PAU1?1??234@AAE_NXZ@@?$positional_parameter_base@_WV?$stream_output_adapter@_W@__crt_stdio_output@@@__crt_stdio_output@@IAE_NAAPAUansi_string@?1??type_case_Z@?$output_processor@_WV?$stream_output_adapter@_W@__crt_stdio_output@@V?$positional_parameter_base@_WV?$stream_output_adapter@_W@__crt_stdio_output@@@2@@1@AAE_NXZ@@Z 004191bf f i libucrt:output.obj
 0001:00018269       ??$extract_argument_from_va_list@PAUansi_string@?1??type_case_Z@?$output_processor@_WV?$stream_output_adapter@_W@__crt_stdio_output@@V?$positional_parameter_base@_WV?$stream_output_adapter@_W@__crt_stdio_output@@@2@@__crt_stdio_output@@AAE_NXZ@PAU1?1??234@AAE_NXZ@@?$standard_base@_WV?$stream_output_adapter@_W@__crt_stdio_output@@@__crt_stdio_output@@IAE_NAAPAUansi_string@?1??type_case_Z@?$output_processor@_WV?$stream_output_adapter@_W@__crt_stdio_output@@V?$positional_parameter_base@_WV?$stream_output_adapter@_W@__crt_stdio_output@@@2@@1@AAE_NXZ@@Z 00419269 f i libucrt:output.obj
 0001:00018289       ??$extract_argument_from_va_list@PAUansi_string@?1??type_case_Z@?$output_processor@_WV?$stream_output_adapter@_W@__crt_stdio_output@@V?$standard_base@_WV?$stream_output_adapter@_W@__crt_stdio_output@@@2@@__crt_stdio_output@@AAE_NXZ@PAU1?1??234@AAE_NXZ@@?$standard_base@_WV?$stream_output_adapter@_W@__crt_stdio_output@@@__crt_stdio_output@@IAE_NAAPAUansi_string@?1??type_case_Z@?$output_processor@_WV?$stream_output_adapter@_W@__crt_stdio_output@@V?$standard_base@_WV?$stream_output_adapter@_W@__crt_stdio_output@@@2@@1@AAE_NXZ@@Z 00419289 f i libucrt:output.obj
 0001:000182a9       ??$extract_argument_from_va_list@PAUansi_string@?1??type_case_Z@?$output_processor@_WV?$string_output_adapter@_W@__crt_stdio_output@@V?$format_validation_base@_WV?$string_output_adapter@_W@__crt_stdio_output@@@2@@__crt_stdio_output@@AAE_NXZ@PAU1?1??234@AAE_NXZ@@?$standard_base@_WV?$string_output_adapter@_W@__crt_stdio_output@@@__crt_stdio_output@@IAE_NAAPAUansi_string@?1??type_case_Z@?$output_processor@_WV?$string_output_adapter@_W@__crt_stdio_output@@V?$format_validation_base@_WV?$string_output_adapter@_W@__crt_stdio_output@@@2@@1@AAE_NXZ@@Z 004192a9 f i libucrt:output.obj
 0001:000182c9       ??$extract_argument_from_va_list@PAUansi_string@?1??type_case_Z@?$output_processor@_WV?$string_output_adapter@_W@__crt_stdio_output@@V?$positional_parameter_base@_WV?$string_output_adapter@_W@__crt_stdio_output@@@2@@__crt_stdio_output@@AAE_NXZ@PAU1?1??234@AAE_NXZ@@?$positional_parameter_base@_WV?$string_output_adapter@_W@__crt_stdio_output@@@__crt_stdio_output@@IAE_NAAPAUansi_string@?1??type_case_Z@?$output_processor@_WV?$string_output_adapter@_W@__crt_stdio_output@@V?$positional_parameter_base@_WV?$string_output_adapter@_W@__crt_stdio_output@@@2@@1@AAE_NXZ@@Z 004192c9 f i libucrt:output.obj
 0001:00018373       ??$extract_argument_from_va_list@PAUansi_string@?1??type_case_Z@?$output_processor@_WV?$string_output_adapter@_W@__crt_stdio_output@@V?$positional_parameter_base@_WV?$string_output_adapter@_W@__crt_stdio_output@@@2@@__crt_stdio_output@@AAE_NXZ@PAU1?1??234@AAE_NXZ@@?$standard_base@_WV?$string_output_adapter@_W@__crt_stdio_output@@@__crt_stdio_output@@IAE_NAAPAUansi_string@?1??type_case_Z@?$output_processor@_WV?$string_output_adapter@_W@__crt_stdio_output@@V?$positional_parameter_base@_WV?$string_output_adapter@_W@__crt_stdio_output@@@2@@1@AAE_NXZ@@Z 00419373 f i libucrt:output.obj
 0001:00018393       ??$extract_argument_from_va_list@PAUansi_string@?1??type_case_Z@?$output_processor@_WV?$string_output_adapter@_W@__crt_stdio_output@@V?$standard_base@_WV?$string_output_adapter@_W@__crt_stdio_output@@@2@@__crt_stdio_output@@AAE_NXZ@PAU1?1??234@AAE_NXZ@@?$standard_base@_WV?$string_output_adapter@_W@__crt_stdio_output@@@__crt_stdio_output@@IAE_NAAPAUansi_string@?1??type_case_Z@?$output_processor@_WV?$string_output_adapter@_W@__crt_stdio_output@@V?$standard_base@_WV?$string_output_adapter@_W@__crt_stdio_output@@@2@@1@AAE_NXZ@@Z 00419393 f i libucrt:output.obj
 0001:000183b3       ??$extract_argument_from_va_list@PAXPAX@?$positional_parameter_base@DV?$stream_output_adapter@D@__crt_stdio_output@@@__crt_stdio_output@@IAE_NAAPAX@Z 004193b3 f i libucrt:output.obj
 0001:0001845b       ??$extract_argument_from_va_list@PAXPAX@?$positional_parameter_base@DV?$string_output_adapter@D@__crt_stdio_output@@@__crt_stdio_output@@IAE_NAAPAX@Z 0041945b f i libucrt:output.obj
 0001:00018503       ??$extract_argument_from_va_list@PAXPAX@?$positional_parameter_base@_WV?$stream_output_adapter@_W@__crt_stdio_output@@@__crt_stdio_output@@IAE_NAAPAX@Z 00419503 f i libucrt:output.obj
 0001:000185ad       ??$extract_argument_from_va_list@PAXPAX@?$positional_parameter_base@_WV?$string_output_adapter@_W@__crt_stdio_output@@@__crt_stdio_output@@IAE_NAAPAX@Z 004195ad f i libucrt:output.obj
 0001:00018657       ??$extract_argument_from_va_list@PAXPAX@?$standard_base@DV?$stream_output_adapter@D@__crt_stdio_output@@@__crt_stdio_output@@IAE_NAAPAX@Z 00419657 f i libucrt:output.obj
 0001:00018677       ??$extract_argument_from_va_list@PAXPAX@?$standard_base@DV?$string_output_adapter@D@__crt_stdio_output@@@__crt_stdio_output@@IAE_NAAPAX@Z 00419677 f i libucrt:output.obj
 0001:00018697       ??$extract_argument_from_va_list@PAXPAX@?$standard_base@_WV?$stream_output_adapter@_W@__crt_stdio_output@@@__crt_stdio_output@@IAE_NAAPAX@Z 00419697 f i libucrt:output.obj
 0001:000186b7       ??$extract_argument_from_va_list@PAXPAX@?$standard_base@_WV?$string_output_adapter@_W@__crt_stdio_output@@@__crt_stdio_output@@IAE_NAAPAX@Z 004196b7 f i libucrt:output.obj
 0001:000186d7       ??$extract_argument_from_va_list@U_CRT_DOUBLE@@U1@@?$positional_parameter_base@DV?$stream_output_adapter@D@__crt_stdio_output@@@__crt_stdio_output@@IAE_NAAU_CRT_DOUBLE@@@Z 004196d7 f i libucrt:output.obj
 0001:00018791       ??$extract_argument_from_va_list@U_CRT_DOUBLE@@U1@@?$positional_parameter_base@DV?$string_output_adapter@D@__crt_stdio_output@@@__crt_stdio_output@@IAE_NAAU_CRT_DOUBLE@@@Z 00419791 f i libucrt:output.obj
 0001:0001884b       ??$extract_argument_from_va_list@U_CRT_DOUBLE@@U1@@?$positional_parameter_base@_WV?$stream_output_adapter@_W@__crt_stdio_output@@@__crt_stdio_output@@IAE_NAAU_CRT_DOUBLE@@@Z 0041984b f i libucrt:output.obj
 0001:00018906       ??$extract_argument_from_va_list@U_CRT_DOUBLE@@U1@@?$positional_parameter_base@_WV?$string_output_adapter@_W@__crt_stdio_output@@@__crt_stdio_output@@IAE_NAAU_CRT_DOUBLE@@@Z 00419906 f i libucrt:output.obj
 0001:000189c1       ??$extract_argument_from_va_list@U_CRT_DOUBLE@@U1@@?$standard_base@DV?$stream_output_adapter@D@__crt_stdio_output@@@__crt_stdio_output@@IAE_NAAU_CRT_DOUBLE@@@Z 004199c1 f i libucrt:output.obj
 0001:000189e9       ??$extract_argument_from_va_list@U_CRT_DOUBLE@@U1@@?$standard_base@DV?$string_output_adapter@D@__crt_stdio_output@@@__crt_stdio_output@@IAE_NAAU_CRT_DOUBLE@@@Z 004199e9 f i libucrt:output.obj
 0001:00018a11       ??$extract_argument_from_va_list@U_CRT_DOUBLE@@U1@@?$standard_base@_WV?$stream_output_adapter@_W@__crt_stdio_output@@@__crt_stdio_output@@IAE_NAAU_CRT_DOUBLE@@@Z 00419a11 f i libucrt:output.obj
 0001:00018a39       ??$extract_argument_from_va_list@U_CRT_DOUBLE@@U1@@?$standard_base@_WV?$string_output_adapter@_W@__crt_stdio_output@@@__crt_stdio_output@@IAE_NAAU_CRT_DOUBLE@@@Z 00419a39 f i libucrt:output.obj
 0001:00018a61       ??$extract_argument_from_va_list@_J_J@?$positional_parameter_base@DV?$stream_output_adapter@D@__crt_stdio_output@@@__crt_stdio_output@@IAE_NAA_J@Z 00419a61 f i libucrt:output.obj
 0001:00018b1b       ??$extract_argument_from_va_list@_J_J@?$positional_parameter_base@DV?$string_output_adapter@D@__crt_stdio_output@@@__crt_stdio_output@@IAE_NAA_J@Z 00419b1b f i libucrt:output.obj
 0001:00018bd5       ??$extract_argument_from_va_list@_J_J@?$positional_parameter_base@_WV?$stream_output_adapter@_W@__crt_stdio_output@@@__crt_stdio_output@@IAE_NAA_J@Z 00419bd5 f i libucrt:output.obj
 0001:00018c90       ??$extract_argument_from_va_list@_J_J@?$positional_parameter_base@_WV?$string_output_adapter@_W@__crt_stdio_output@@@__crt_stdio_output@@IAE_NAA_J@Z 00419c90 f i libucrt:output.obj
 0001:00018d4b       ??$extract_argument_from_va_list@_J_J@?$standard_base@DV?$stream_output_adapter@D@__crt_stdio_output@@@__crt_stdio_output@@IAE_NAA_J@Z 00419d4b f i libucrt:output.obj
 0001:00018d73       ??$extract_argument_from_va_list@_J_J@?$standard_base@DV?$string_output_adapter@D@__crt_stdio_output@@@__crt_stdio_output@@IAE_NAA_J@Z 00419d73 f i libucrt:output.obj
 0001:00018d9b       ??$extract_argument_from_va_list@_J_J@?$standard_base@_WV?$stream_output_adapter@_W@__crt_stdio_output@@@__crt_stdio_output@@IAE_NAA_J@Z 00419d9b f i libucrt:output.obj
 0001:00018dc3       ??$extract_argument_from_va_list@_J_J@?$standard_base@_WV?$string_output_adapter@_W@__crt_stdio_output@@@__crt_stdio_output@@IAE_NAA_J@Z 00419dc3 f i libucrt:output.obj
 0001:00018deb       ??$extract_argument_from_va_list@_K_J@?$positional_parameter_base@DV?$stream_output_adapter@D@__crt_stdio_output@@@__crt_stdio_output@@IAE_NAA_J@Z 00419deb f i libucrt:output.obj
 0001:00018ea5       ??$extract_argument_from_va_list@_K_J@?$positional_parameter_base@DV?$string_output_adapter@D@__crt_stdio_output@@@__crt_stdio_output@@IAE_NAA_J@Z 00419ea5 f i libucrt:output.obj
 0001:00018f5f       ??$extract_argument_from_va_list@_K_J@?$positional_parameter_base@_WV?$stream_output_adapter@_W@__crt_stdio_output@@@__crt_stdio_output@@IAE_NAA_J@Z 00419f5f f i libucrt:output.obj
 0001:0001901a       ??$extract_argument_from_va_list@_K_J@?$positional_parameter_base@_WV?$string_output_adapter@_W@__crt_stdio_output@@@__crt_stdio_output@@IAE_NAA_J@Z 0041a01a f i libucrt:output.obj
 0001:000190d5       ??$extract_argument_from_va_list@_K_J@?$standard_base@DV?$stream_output_adapter@D@__crt_stdio_output@@@__crt_stdio_output@@IAE_NAA_J@Z 0041a0d5 f i libucrt:output.obj
 0001:000190fd       ??$extract_argument_from_va_list@_K_J@?$standard_base@DV?$string_output_adapter@D@__crt_stdio_output@@@__crt_stdio_output@@IAE_NAA_J@Z 0041a0fd f i libucrt:output.obj
 0001:00019125       ??$extract_argument_from_va_list@_K_J@?$standard_base@_WV?$stream_output_adapter@_W@__crt_stdio_output@@@__crt_stdio_output@@IAE_NAA_J@Z 0041a125 f i libucrt:output.obj
 0001:0001914d       ??$extract_argument_from_va_list@_K_J@?$standard_base@_WV?$string_output_adapter@_W@__crt_stdio_output@@@__crt_stdio_output@@IAE_NAA_J@Z 0041a14d f i libucrt:output.obj
 0001:00019175       ??$extract_argument_from_va_list@_W_W@?$positional_parameter_base@DV?$stream_output_adapter@D@__crt_stdio_output@@@__crt_stdio_output@@IAE_NAA_W@Z 0041a175 f i libucrt:output.obj
 0001:00019222       ??$extract_argument_from_va_list@_W_W@?$positional_parameter_base@DV?$string_output_adapter@D@__crt_stdio_output@@@__crt_stdio_output@@IAE_NAA_W@Z 0041a222 f i libucrt:output.obj
 0001:000192cf       ??$extract_argument_from_va_list@_W_W@?$positional_parameter_base@_WV?$stream_output_adapter@_W@__crt_stdio_output@@@__crt_stdio_output@@IAE_NAA_W@Z 0041a2cf f i libucrt:output.obj
 0001:0001937e       ??$extract_argument_from_va_list@_W_W@?$positional_parameter_base@_WV?$string_output_adapter@_W@__crt_stdio_output@@@__crt_stdio_output@@IAE_NAA_W@Z 0041a37e f i libucrt:output.obj
 0001:0001942d       ??$extract_argument_from_va_list@_W_W@?$standard_base@DV?$stream_output_adapter@D@__crt_stdio_output@@@__crt_stdio_output@@IAE_NAA_W@Z 0041a42d f i libucrt:output.obj
 0001:00019450       ??$extract_argument_from_va_list@_W_W@?$standard_base@DV?$string_output_adapter@D@__crt_stdio_output@@@__crt_stdio_output@@IAE_NAA_W@Z 0041a450 f i libucrt:output.obj
 0001:00019473       ??$extract_argument_from_va_list@_W_W@?$standard_base@_WV?$stream_output_adapter@_W@__crt_stdio_output@@@__crt_stdio_output@@IAE_NAA_W@Z 0041a473 f i libucrt:output.obj
 0001:00019496       ??$extract_argument_from_va_list@_W_W@?$standard_base@_WV?$string_output_adapter@_W@__crt_stdio_output@@@__crt_stdio_output@@IAE_NAA_W@Z 0041a496 f i libucrt:output.obj
 0001:000194b9       ??$get_parameter_type@D@?$positional_parameter_base@DV?$stream_output_adapter@D@__crt_stdio_output@@@__crt_stdio_output@@CA?AW4parameter_type@01@PAD@Z 0041a4b9 f i libucrt:output.obj
 0001:000194bd       ??$get_parameter_type@D@?$positional_parameter_base@DV?$string_output_adapter@D@__crt_stdio_output@@@__crt_stdio_output@@CA?AW4parameter_type@01@PAD@Z 0041a4bd f i libucrt:output.obj
 0001:000194c1       ??$get_parameter_type@D@?$positional_parameter_base@_WV?$stream_output_adapter@_W@__crt_stdio_output@@@__crt_stdio_output@@CA?AW4parameter_type@01@PAD@Z 0041a4c1 f i libucrt:output.obj
 0001:000194c5       ??$get_parameter_type@D@?$positional_parameter_base@_WV?$string_output_adapter@_W@__crt_stdio_output@@@__crt_stdio_output@@CA?AW4parameter_type@01@PAD@Z 0041a4c5 f i libucrt:output.obj
 0001:000194c9       ??$get_parameter_type@Uansi_string@?1??type_case_Z@?$output_processor@DV?$stream_output_adapter@D@__crt_stdio_output@@V?$positional_parameter_base@DV?$stream_output_adapter@D@__crt_stdio_output@@@2@@__crt_stdio_output@@AAE_NXZ@@?$positional_parameter_base@DV?$stream_output_adapter@D@__crt_stdio_output@@@__crt_stdio_output@@CA?AW4parameter_type@01@PAUansi_string@?1??type_case_Z@?$output_processor@DV?$stream_output_adapter@D@__crt_stdio_output@@V?$positional_parameter_base@DV?$stream_output_adapter@D@__crt_stdio_output@@@2@@1@AAE_NXZ@@Z 0041a4c9 f i libucrt:output.obj
 0001:000194cd       ??$get_parameter_type@Uansi_string@?1??type_case_Z@?$output_processor@DV?$string_output_adapter@D@__crt_stdio_output@@V?$positional_parameter_base@DV?$string_output_adapter@D@__crt_stdio_output@@@2@@__crt_stdio_output@@AAE_NXZ@@?$positional_parameter_base@DV?$string_output_adapter@D@__crt_stdio_output@@@__crt_stdio_output@@CA?AW4parameter_type@01@PAUansi_string@?1??type_case_Z@?$output_processor@DV?$string_output_adapter@D@__crt_stdio_output@@V?$positional_parameter_base@DV?$string_output_adapter@D@__crt_stdio_output@@@2@@1@AAE_NXZ@@Z 0041a4cd f i libucrt:output.obj
 0001:000194d1       ??$get_parameter_type@Uansi_string@?1??type_case_Z@?$output_processor@_WV?$stream_output_adapter@_W@__crt_stdio_output@@V?$positional_parameter_base@_WV?$stream_output_adapter@_W@__crt_stdio_output@@@2@@__crt_stdio_output@@AAE_NXZ@@?$positional_parameter_base@_WV?$stream_output_adapter@_W@__crt_stdio_output@@@__crt_stdio_output@@CA?AW4parameter_type@01@PAUansi_string@?1??type_case_Z@?$output_processor@_WV?$stream_output_adapter@_W@__crt_stdio_output@@V?$positional_parameter_base@_WV?$stream_output_adapter@_W@__crt_stdio_output@@@2@@1@AAE_NXZ@@Z 0041a4d1 f i libucrt:output.obj
 0001:000194d5       ??$get_parameter_type@Uansi_string@?1??type_case_Z@?$output_processor@_WV?$string_output_adapter@_W@__crt_stdio_output@@V?$positional_parameter_base@_WV?$string_output_adapter@_W@__crt_stdio_output@@@2@@__crt_stdio_output@@AAE_NXZ@@?$positional_parameter_base@_WV?$string_output_adapter@_W@__crt_stdio_output@@@__crt_stdio_output@@CA?AW4parameter_type@01@PAUansi_string@?1??type_case_Z@?$output_processor@_WV?$string_output_adapter@_W@__crt_stdio_output@@V?$positional_parameter_base@_WV?$string_output_adapter@_W@__crt_stdio_output@@@2@@1@AAE_NXZ@@Z 0041a4d5 f i libucrt:output.obj
 0001:000194d9       ??$get_parameter_type@X@?$positional_parameter_base@DV?$stream_output_adapter@D@__crt_stdio_output@@@__crt_stdio_output@@CA?AW4parameter_type@01@PAX@Z 0041a4d9 f i libucrt:output.obj
 0001:000194dd       ??$get_parameter_type@X@?$positional_parameter_base@DV?$string_output_adapter@D@__crt_stdio_output@@@__crt_stdio_output@@CA?AW4parameter_type@01@PAX@Z 0041a4dd f i libucrt:output.obj
 0001:000194e1       ??$get_parameter_type@X@?$positional_parameter_base@_WV?$stream_output_adapter@_W@__crt_stdio_output@@@__crt_stdio_output@@CA?AW4parameter_type@01@PAX@Z 0041a4e1 f i libucrt:output.obj
 0001:000194e5       ??$get_parameter_type@X@?$positional_parameter_base@_WV?$string_output_adapter@_W@__crt_stdio_output@@@__crt_stdio_output@@CA?AW4parameter_type@01@PAX@Z 0041a4e5 f i libucrt:output.obj
 0001:000194e9       ??$is_character_specifier@D@?$positional_parameter_base@DV?$stream_output_adapter@D@__crt_stdio_output@@@__crt_stdio_output@@CA_ND@Z 0041a4e9 f i libucrt:output.obj
 0001:00019507       ??$is_character_specifier@D@?$positional_parameter_base@DV?$string_output_adapter@D@__crt_stdio_output@@@__crt_stdio_output@@CA_ND@Z 0041a507 f i libucrt:output.obj
 0001:00019525       ??$is_character_specifier@_W@?$positional_parameter_base@_WV?$stream_output_adapter@_W@__crt_stdio_output@@@__crt_stdio_output@@CA_N_W@Z 0041a525 f i libucrt:output.obj
 0001:00019546       ??$is_character_specifier@_W@?$positional_parameter_base@_WV?$string_output_adapter@_W@__crt_stdio_output@@@__crt_stdio_output@@CA_N_W@Z 0041a546 f i libucrt:output.obj
 0001:00019567       ??$is_integral_specifier@D@?$positional_parameter_base@DV?$stream_output_adapter@D@__crt_stdio_output@@@__crt_stdio_output@@CA_ND@Z 0041a567 f i libucrt:output.obj
 0001:0001959e       ??$is_integral_specifier@D@?$positional_parameter_base@DV?$string_output_adapter@D@__crt_stdio_output@@@__crt_stdio_output@@CA_ND@Z 0041a59e f i libucrt:output.obj
 0001:000195d5       ??$is_integral_specifier@_W@?$positional_parameter_base@_WV?$stream_output_adapter@_W@__crt_stdio_output@@@__crt_stdio_output@@CA_N_W@Z 0041a5d5 f i libucrt:output.obj
 0001:0001961e       ??$is_integral_specifier@_W@?$positional_parameter_base@_WV?$string_output_adapter@_W@__crt_stdio_output@@@__crt_stdio_output@@CA_N_W@Z 0041a61e f i libucrt:output.obj
 0001:00019667       ??$is_overflow_condition@K@__crt_strtox@@YA_NIK@Z 0041a667 f i libucrt:output.obj
 0001:000196a4       ??$is_pointer_specifier@D@?$positional_parameter_base@DV?$stream_output_adapter@D@__crt_stdio_output@@@__crt_stdio_output@@CA_ND@Z 0041a6a4 f i libucrt:output.obj
 0001:000196b5       ??$is_pointer_specifier@D@?$positional_parameter_base@DV?$string_output_adapter@D@__crt_stdio_output@@@__crt_stdio_output@@CA_ND@Z 0041a6b5 f i libucrt:output.obj
 0001:000196c6       ??$is_pointer_specifier@_W@?$positional_parameter_base@_WV?$stream_output_adapter@_W@__crt_stdio_output@@@__crt_stdio_output@@CA_N_W@Z 0041a6c6 f i libucrt:output.obj
 0001:000196d8       ??$is_pointer_specifier@_W@?$positional_parameter_base@_WV?$string_output_adapter@_W@__crt_stdio_output@@@__crt_stdio_output@@CA_N_W@Z 0041a6d8 f i libucrt:output.obj
 0001:000196ea       ??$is_string_specifier@D@?$positional_parameter_base@DV?$stream_output_adapter@D@__crt_stdio_output@@@__crt_stdio_output@@CA_ND@Z 0041a6ea f i libucrt:output.obj
 0001:00019708       ??$is_string_specifier@D@?$positional_parameter_base@DV?$string_output_adapter@D@__crt_stdio_output@@@__crt_stdio_output@@CA_ND@Z 0041a708 f i libucrt:output.obj
 0001:00019726       ??$is_string_specifier@_W@?$positional_parameter_base@_WV?$stream_output_adapter@_W@__crt_stdio_output@@@__crt_stdio_output@@CA_N_W@Z 0041a726 f i libucrt:output.obj
 0001:00019747       ??$is_string_specifier@_W@?$positional_parameter_base@_WV?$string_output_adapter@_W@__crt_stdio_output@@@__crt_stdio_output@@CA_N_W@Z 0041a747 f i libucrt:output.obj
 0001:00019768       ??$is_wide_character_specifier@D@__crt_stdio_output@@YA_N_KDW4length_modifier@0@@Z 0041a768 f i libucrt:output.obj
 0001:000197a5       ??$is_wide_character_specifier@_W@__crt_stdio_output@@YA_N_K_WW4length_modifier@0@@Z 0041a7a5 f i libucrt:output.obj
 0001:00019806       ??$make_c_string_character_source@DPAPAD@__crt_strtox@@YA?AV?$c_string_character_source@D@0@QBDQAPAD@Z 0041a806 f i libucrt:output.obj
 0001:00019827       ??$make_c_string_character_source@_WPAPA_W@__crt_strtox@@YA?AV?$c_string_character_source@_W@0@QB_WQAPA_W@Z 0041a827 f i libucrt:output.obj
 0001:00019848       ??$parse_integer@KV?$c_string_character_source@D@__crt_strtox@@$0A@@__crt_strtox@@YAKAAV__crt_cached_ptd_host@@V?$c_string_character_source@D@0@H_N@Z 0041a848 f i libucrt:output.obj
 0001:00019ada       ??$parse_integer@KV?$c_string_character_source@_W@__crt_strtox@@$0A@@__crt_strtox@@YAKAAV__crt_cached_ptd_host@@V?$c_string_character_source@_W@0@H_N@Z 0041aada f i libucrt:output.obj
 0001:0001a21c       ??$peek_va_arg@C@__crt_stdio_output@@YACPAD@Z 0041b21c f i libucrt:output.obj
 0001:0001a22b       ??$peek_va_arg@E@__crt_stdio_output@@YAEPAD@Z 0041b22b f i libucrt:output.obj
 0001:0001a23a       ??$peek_va_arg@F@__crt_stdio_output@@YAFPAD@Z 0041b23a f i libucrt:output.obj
 0001:0001a24a       ??$peek_va_arg@G@__crt_stdio_output@@YAGPAD@Z 0041b24a f i libucrt:output.obj
 0001:0001a25a       ??$peek_va_arg@H@__crt_stdio_output@@YAHPAD@Z 0041b25a f i libucrt:output.obj
 0001:0001a269       ??$peek_va_arg@I@__crt_stdio_output@@YAIPAD@Z 0041b269 f i libucrt:output.obj
 0001:0001a278       ??$peek_va_arg@PAD@__crt_stdio_output@@YAPADPAD@Z 0041b278 f i libucrt:output.obj
 0001:0001a287       ??$peek_va_arg@PAUansi_string@?1??type_case_Z@?$output_processor@DV?$stream_output_adapter@D@__crt_stdio_output@@V?$positional_parameter_base@DV?$stream_output_adapter@D@__crt_stdio_output@@@2@@__crt_stdio_output@@AAE_NXZ@@__crt_stdio_output@@YAPAUansi_string@?1??type_case_Z@?$output_processor@DV?$stream_output_adapter@D@__crt_stdio_output@@V?$positional_parameter_base@DV?$stream_output_adapter@D@__crt_stdio_output@@@2@@0@AAE_NXZ@PAD@Z 0041b287 f i libucrt:output.obj
 0001:0001a296       ??$peek_va_arg@PAUansi_string@?1??type_case_Z@?$output_processor@DV?$string_output_adapter@D@__crt_stdio_output@@V?$positional_parameter_base@DV?$string_output_adapter@D@__crt_stdio_output@@@2@@__crt_stdio_output@@AAE_NXZ@@__crt_stdio_output@@YAPAUansi_string@?1??type_case_Z@?$output_processor@DV?$string_output_adapter@D@__crt_stdio_output@@V?$positional_parameter_base@DV?$string_output_adapter@D@__crt_stdio_output@@@2@@0@AAE_NXZ@PAD@Z 0041b296 f i libucrt:output.obj
 0001:0001a2a5       ??$peek_va_arg@PAUansi_string@?1??type_case_Z@?$output_processor@_WV?$stream_output_adapter@_W@__crt_stdio_output@@V?$positional_parameter_base@_WV?$stream_output_adapter@_W@__crt_stdio_output@@@2@@__crt_stdio_output@@AAE_NXZ@@__crt_stdio_output@@YAPAUansi_string@?1??type_case_Z@?$output_processor@_WV?$stream_output_adapter@_W@__crt_stdio_output@@V?$positional_parameter_base@_WV?$stream_output_adapter@_W@__crt_stdio_output@@@2@@0@AAE_NXZ@PAD@Z 0041b2a5 f i libucrt:output.obj
 0001:0001a2b4       ??$peek_va_arg@PAUansi_string@?1??type_case_Z@?$output_processor@_WV?$string_output_adapter@_W@__crt_stdio_output@@V?$positional_parameter_base@_WV?$string_output_adapter@_W@__crt_stdio_output@@@2@@__crt_stdio_output@@AAE_NXZ@@__crt_stdio_output@@YAPAUansi_string@?1??type_case_Z@?$output_processor@_WV?$string_output_adapter@_W@__crt_stdio_output@@V?$positional_parameter_base@_WV?$string_output_adapter@_W@__crt_stdio_output@@@2@@0@AAE_NXZ@PAD@Z 0041b2b4 f i libucrt:output.obj
 0001:0001a2c3       ??$peek_va_arg@PAX@__crt_stdio_output@@YAPAXPAD@Z 0041b2c3 f i libucrt:output.obj
 0001:0001a2d2       ??$peek_va_arg@U_CRT_DOUBLE@@@__crt_stdio_output@@YA?AU_CRT_DOUBLE@@PAD@Z 0041b2d2 f i libucrt:output.obj
 0001:0001a2e4       ??$peek_va_arg@_J@__crt_stdio_output@@YA_JPAD@Z 0041b2e4 f i libucrt:output.obj
 0001:0001a2f6       ??$peek_va_arg@_K@__crt_stdio_output@@YA_KPAD@Z 0041b2f6 f i libucrt:output.obj
 0001:0001a308       ??$peek_va_arg@_W@__crt_stdio_output@@YA_WPAD@Z 0041b308 f i libucrt:output.obj
 0001:0001a318       ??$puttc_nolock_internal@ABDPAU_iobuf@@AAV__crt_cached_ptd_host@@@?$__crt_char_traits@D@@SAHABD$$QAPAU_iobuf@@AAV__crt_cached_ptd_host@@@Z 0041b318 f i libucrt:output.obj
 0001:0001a33d       ??$puttc_nolock_internal@AB_WPAU_iobuf@@AAV__crt_cached_ptd_host@@@?$__crt_char_traits@_W@@SAGAB_W$$QAPAU_iobuf@@AAV__crt_cached_ptd_host@@@Z 0041b33d f i libucrt:output.obj
 0001:0001a362       ??$read_va_arg@C@__crt_stdio_output@@YACAAPAD@Z 0041b362 f i libucrt:output.obj
 0001:0001a378       ??$read_va_arg@E@__crt_stdio_output@@YAEAAPAD@Z 0041b378 f i libucrt:output.obj
 0001:0001a38e       ??$read_va_arg@F@__crt_stdio_output@@YAFAAPAD@Z 0041b38e f i libucrt:output.obj
 0001:0001a3a5       ??$read_va_arg@G@__crt_stdio_output@@YAGAAPAD@Z 0041b3a5 f i libucrt:output.obj
 0001:0001a3bc       ??$read_va_arg@H@__crt_stdio_output@@YAHAAPAD@Z 0041b3bc f i libucrt:output.obj
 0001:0001a3d2       ??$read_va_arg@I@__crt_stdio_output@@YAIAAPAD@Z 0041b3d2 f i libucrt:output.obj
 0001:0001a3e8       ??$read_va_arg@PAD@__crt_stdio_output@@YAPADAAPAD@Z 0041b3e8 f i libucrt:output.obj
 0001:0001a3fe       ??$read_va_arg@PAUansi_string@?1??type_case_Z@?$output_processor@DV?$stream_output_adapter@D@__crt_stdio_output@@V?$format_validation_base@DV?$stream_output_adapter@D@__crt_stdio_output@@@2@@__crt_stdio_output@@AAE_NXZ@@__crt_stdio_output@@YAPAUansi_string@?1??type_case_Z@?$output_processor@DV?$stream_output_adapter@D@__crt_stdio_output@@V?$format_validation_base@DV?$stream_output_adapter@D@__crt_stdio_output@@@2@@0@AAE_NXZ@AAPAD@Z 0041b3fe f i libucrt:output.obj
 0001:0001a414       ??$read_va_arg@PAUansi_string@?1??type_case_Z@?$output_processor@DV?$stream_output_adapter@D@__crt_stdio_output@@V?$positional_parameter_base@DV?$stream_output_adapter@D@__crt_stdio_output@@@2@@__crt_stdio_output@@AAE_NXZ@@__crt_stdio_output@@YAPAUansi_string@?1??type_case_Z@?$output_processor@DV?$stream_output_adapter@D@__crt_stdio_output@@V?$positional_parameter_base@DV?$stream_output_adapter@D@__crt_stdio_output@@@2@@0@AAE_NXZ@AAPAD@Z 0041b414 f i libucrt:output.obj
 0001:0001a42a       ??$read_va_arg@PAUansi_string@?1??type_case_Z@?$output_processor@DV?$stream_output_adapter@D@__crt_stdio_output@@V?$standard_base@DV?$stream_output_adapter@D@__crt_stdio_output@@@2@@__crt_stdio_output@@AAE_NXZ@@__crt_stdio_output@@YAPAUansi_string@?1??type_case_Z@?$output_processor@DV?$stream_output_adapter@D@__crt_stdio_output@@V?$standard_base@DV?$stream_output_adapter@D@__crt_stdio_output@@@2@@0@AAE_NXZ@AAPAD@Z 0041b42a f i libucrt:output.obj
 0001:0001a440       ??$read_va_arg@PAUansi_string@?1??type_case_Z@?$output_processor@DV?$string_output_adapter@D@__crt_stdio_output@@V?$format_validation_base@DV?$string_output_adapter@D@__crt_stdio_output@@@2@@__crt_stdio_output@@AAE_NXZ@@__crt_stdio_output@@YAPAUansi_string@?1??type_case_Z@?$output_processor@DV?$string_output_adapter@D@__crt_stdio_output@@V?$format_validation_base@DV?$string_output_adapter@D@__crt_stdio_output@@@2@@0@AAE_NXZ@AAPAD@Z 0041b440 f i libucrt:output.obj
 0001:0001a456       ??$read_va_arg@PAUansi_string@?1??type_case_Z@?$output_processor@DV?$string_output_adapter@D@__crt_stdio_output@@V?$positional_parameter_base@DV?$string_output_adapter@D@__crt_stdio_output@@@2@@__crt_stdio_output@@AAE_NXZ@@__crt_stdio_output@@YAPAUansi_string@?1??type_case_Z@?$output_processor@DV?$string_output_adapter@D@__crt_stdio_output@@V?$positional_parameter_base@DV?$string_output_adapter@D@__crt_stdio_output@@@2@@0@AAE_NXZ@AAPAD@Z 0041b456 f i libucrt:output.obj
 0001:0001a46c       ??$read_va_arg@PAUansi_string@?1??type_case_Z@?$output_processor@DV?$string_output_adapter@D@__crt_stdio_output@@V?$standard_base@DV?$string_output_adapter@D@__crt_stdio_output@@@2@@__crt_stdio_output@@AAE_NXZ@@__crt_stdio_output@@YAPAUansi_string@?1??type_case_Z@?$output_processor@DV?$string_output_adapter@D@__crt_stdio_output@@V?$standard_base@DV?$string_output_adapter@D@__crt_stdio_output@@@2@@0@AAE_NXZ@AAPAD@Z 0041b46c f i libucrt:output.obj
 0001:0001a482       ??$read_va_arg@PAUansi_string@?1??type_case_Z@?$output_processor@_WV?$stream_output_adapter@_W@__crt_stdio_output@@V?$format_validation_base@_WV?$stream_output_adapter@_W@__crt_stdio_output@@@2@@__crt_stdio_output@@AAE_NXZ@@__crt_stdio_output@@YAPAUansi_string@?1??type_case_Z@?$output_processor@_WV?$stream_output_adapter@_W@__crt_stdio_output@@V?$format_validation_base@_WV?$stream_output_adapter@_W@__crt_stdio_output@@@2@@0@AAE_NXZ@AAPAD@Z 0041b482 f i libucrt:output.obj
 0001:0001a498       ??$read_va_arg@PAUansi_string@?1??type_case_Z@?$output_processor@_WV?$stream_output_adapter@_W@__crt_stdio_output@@V?$positional_parameter_base@_WV?$stream_output_adapter@_W@__crt_stdio_output@@@2@@__crt_stdio_output@@AAE_NXZ@@__crt_stdio_output@@YAPAUansi_string@?1??type_case_Z@?$output_processor@_WV?$stream_output_adapter@_W@__crt_stdio_output@@V?$positional_parameter_base@_WV?$stream_output_adapter@_W@__crt_stdio_output@@@2@@0@AAE_NXZ@AAPAD@Z 0041b498 f i libucrt:output.obj
 0001:0001a4ae       ??$read_va_arg@PAUansi_string@?1??type_case_Z@?$output_processor@_WV?$stream_output_adapter@_W@__crt_stdio_output@@V?$standard_base@_WV?$stream_output_adapter@_W@__crt_stdio_output@@@2@@__crt_stdio_output@@AAE_NXZ@@__crt_stdio_output@@YAPAUansi_string@?1??type_case_Z@?$output_processor@_WV?$stream_output_adapter@_W@__crt_stdio_output@@V?$standard_base@_WV?$stream_output_adapter@_W@__crt_stdio_output@@@2@@0@AAE_NXZ@AAPAD@Z 0041b4ae f i libucrt:output.obj
 0001:0001a4c4       ??$read_va_arg@PAUansi_string@?1??type_case_Z@?$output_processor@_WV?$string_output_adapter@_W@__crt_stdio_output@@V?$format_validation_base@_WV?$string_output_adapter@_W@__crt_stdio_output@@@2@@__crt_stdio_output@@AAE_NXZ@@__crt_stdio_output@@YAPAUansi_string@?1??type_case_Z@?$output_processor@_WV?$string_output_adapter@_W@__crt_stdio_output@@V?$format_validation_base@_WV?$string_output_adapter@_W@__crt_stdio_output@@@2@@0@AAE_NXZ@AAPAD@Z 0041b4c4 f i libucrt:output.obj
 0001:0001a4da       ??$read_va_arg@PAUansi_string@?1??type_case_Z@?$output_processor@_WV?$string_output_adapter@_W@__crt_stdio_output@@V?$positional_parameter_base@_WV?$string_output_adapter@_W@__crt_stdio_output@@@2@@__crt_stdio_output@@AAE_NXZ@@__crt_stdio_output@@YAPAUansi_string@?1??type_case_Z@?$output_processor@_WV?$string_output_adapter@_W@__crt_stdio_output@@V?$positional_parameter_base@_WV?$string_output_adapter@_W@__crt_stdio_output@@@2@@0@AAE_NXZ@AAPAD@Z 0041b4da f i libucrt:output.obj
 0001:0001a4f0       ??$read_va_arg@PAUansi_string@?1??type_case_Z@?$output_processor@_WV?$string_output_adapter@_W@__crt_stdio_output@@V?$standard_base@_WV?$string_output_adapter@_W@__crt_stdio_output@@@2@@__crt_stdio_output@@AAE_NXZ@@__crt_stdio_output@@YAPAUansi_string@?1??type_case_Z@?$output_processor@_WV?$string_output_adapter@_W@__crt_stdio_output@@V?$standard_base@_WV?$string_output_adapter@_W@__crt_stdio_output@@@2@@0@AAE_NXZ@AAPAD@Z 0041b4f0 f i libucrt:output.obj
 0001:0001a506       ??$read_va_arg@PAX@__crt_stdio_output@@YAPAXAAPAD@Z 0041b506 f i libucrt:output.obj
 0001:0001a51c       ??$read_va_arg@U_CRT_DOUBLE@@@__crt_stdio_output@@YA?AU_CRT_DOUBLE@@AAPAD@Z 0041b51c f i libucrt:output.obj
 0001:0001a537       ??$read_va_arg@_J@__crt_stdio_output@@YA_JAAPAD@Z 0041b537 f i libucrt:output.obj
 0001:0001a551       ??$read_va_arg@_K@__crt_stdio_output@@YA_KAAPAD@Z 0041b551 f i libucrt:output.obj
 0001:0001a56b       ??$read_va_arg@_W@__crt_stdio_output@@YA_WAAPAD@Z 0041b56b f i libucrt:output.obj
 0001:0001a582       ??$scratch_count@D@formatting_buffer@__crt_stdio_output@@QBEIXZ 0041b582 f i libucrt:output.obj
 0001:0001a587       ??$scratch_data@D@formatting_buffer@__crt_stdio_output@@QAEPADXZ 0041b587 f i libucrt:output.obj
 0001:0001a5ac       ??$type_case_integer@$07@?$output_processor@DV?$stream_output_adapter@D@__crt_stdio_output@@V?$format_validation_base@DV?$stream_output_adapter@D@__crt_stdio_output@@@2@@__crt_stdio_output@@AAE_N_N@Z 0041b5ac f i libucrt:output.obj
 0001:0001a788       ??$type_case_integer@$07@?$output_processor@DV?$stream_output_adapter@D@__crt_stdio_output@@V?$positional_parameter_base@DV?$stream_output_adapter@D@__crt_stdio_output@@@2@@__crt_stdio_output@@AAE_N_N@Z 0041b788 f i libucrt:output.obj
 0001:0001a97d       ??$type_case_integer@$07@?$output_processor@DV?$stream_output_adapter@D@__crt_stdio_output@@V?$standard_base@DV?$stream_output_adapter@D@__crt_stdio_output@@@2@@__crt_stdio_output@@AAE_N_N@Z 0041b97d f i libucrt:output.obj
 0001:0001ab59       ??$type_case_integer@$07@?$output_processor@DV?$string_output_adapter@D@__crt_stdio_output@@V?$format_validation_base@DV?$string_output_adapter@D@__crt_stdio_output@@@2@@__crt_stdio_output@@AAE_N_N@Z 0041bb59 f i libucrt:output.obj
 0001:0001ad35       ??$type_case_integer@$07@?$output_processor@DV?$string_output_adapter@D@__crt_stdio_output@@V?$positional_parameter_base@DV?$string_output_adapter@D@__crt_stdio_output@@@2@@__crt_stdio_output@@AAE_N_N@Z 0041bd35 f i libucrt:output.obj
 0001:0001af2a       ??$type_case_integer@$07@?$output_processor@DV?$string_output_adapter@D@__crt_stdio_output@@V?$standard_base@DV?$string_output_adapter@D@__crt_stdio_output@@@2@@__crt_stdio_output@@AAE_N_N@Z 0041bf2a f i libucrt:output.obj
 0001:0001b106       ??$type_case_integer@$07@?$output_processor@_WV?$stream_output_adapter@_W@__crt_stdio_output@@V?$format_validation_base@_WV?$stream_output_adapter@_W@__crt_stdio_output@@@2@@__crt_stdio_output@@AAE_N_N@Z 0041c106 f i libucrt:output.obj
 0001:0001b2e8       ??$type_case_integer@$07@?$output_processor@_WV?$stream_output_adapter@_W@__crt_stdio_output@@V?$positional_parameter_base@_WV?$stream_output_adapter@_W@__crt_stdio_output@@@2@@__crt_stdio_output@@AAE_N_N@Z 0041c2e8 f i libucrt:output.obj
 0001:0001b4e2       ??$type_case_integer@$07@?$output_processor@_WV?$stream_output_adapter@_W@__crt_stdio_output@@V?$standard_base@_WV?$stream_output_adapter@_W@__crt_stdio_output@@@2@@__crt_stdio_output@@AAE_N_N@Z 0041c4e2 f i libucrt:output.obj
 0001:0001b6c4       ??$type_case_integer@$07@?$output_processor@_WV?$string_output_adapter@_W@__crt_stdio_output@@V?$format_validation_base@_WV?$string_output_adapter@_W@__crt_stdio_output@@@2@@__crt_stdio_output@@AAE_N_N@Z 0041c6c4 f i libucrt:output.obj
 0001:0001b8a6       ??$type_case_integer@$07@?$output_processor@_WV?$string_output_adapter@_W@__crt_stdio_output@@V?$positional_parameter_base@_WV?$string_output_adapter@_W@__crt_stdio_output@@@2@@__crt_stdio_output@@AAE_N_N@Z 0041c8a6 f i libucrt:output.obj
 0001:0001baa0       ??$type_case_integer@$07@?$output_processor@_WV?$string_output_adapter@_W@__crt_stdio_output@@V?$standard_base@_WV?$string_output_adapter@_W@__crt_stdio_output@@@2@@__crt_stdio_output@@AAE_N_N@Z 0041caa0 f i libucrt:output.obj
 0001:0001bc82       ??$type_case_integer@$09@?$output_processor@DV?$stream_output_adapter@D@__crt_stdio_output@@V?$format_validation_base@DV?$stream_output_adapter@D@__crt_stdio_output@@@2@@__crt_stdio_output@@AAE_N_N@Z 0041cc82 f i libucrt:output.obj
 0001:0001be5e       ??$type_case_integer@$09@?$output_processor@DV?$stream_output_adapter@D@__crt_stdio_output@@V?$positional_parameter_base@DV?$stream_output_adapter@D@__crt_stdio_output@@@2@@__crt_stdio_output@@AAE_N_N@Z 0041ce5e f i libucrt:output.obj
 0001:0001c053       ??$type_case_integer@$09@?$output_processor@DV?$stream_output_adapter@D@__crt_stdio_output@@V?$standard_base@DV?$stream_output_adapter@D@__crt_stdio_output@@@2@@__crt_stdio_output@@AAE_N_N@Z 0041d053 f i libucrt:output.obj
 0001:0001c22f       ??$type_case_integer@$09@?$output_processor@DV?$string_output_adapter@D@__crt_stdio_output@@V?$format_validation_base@DV?$string_output_adapter@D@__crt_stdio_output@@@2@@__crt_stdio_output@@AAE_N_N@Z 0041d22f f i libucrt:output.obj
 0001:0001c40b       ??$type_case_integer@$09@?$output_processor@DV?$string_output_adapter@D@__crt_stdio_output@@V?$positional_parameter_base@DV?$string_output_adapter@D@__crt_stdio_output@@@2@@__crt_stdio_output@@AAE_N_N@Z 0041d40b f i libucrt:output.obj
 0001:0001c600       ??$type_case_integer@$09@?$output_processor@DV?$string_output_adapter@D@__crt_stdio_output@@V?$standard_base@DV?$string_output_adapter@D@__crt_stdio_output@@@2@@__crt_stdio_output@@AAE_N_N@Z 0041d600 f i libucrt:output.obj
 0001:0001c7dc       ??$type_case_integer@$09@?$output_processor@_WV?$stream_output_adapter@_W@__crt_stdio_output@@V?$format_validation_base@_WV?$stream_output_adapter@_W@__crt_stdio_output@@@2@@__crt_stdio_output@@AAE_N_N@Z 0041d7dc f i libucrt:output.obj
 0001:0001c9be       ??$type_case_integer@$09@?$output_processor@_WV?$stream_output_adapter@_W@__crt_stdio_output@@V?$positional_parameter_base@_WV?$stream_output_adapter@_W@__crt_stdio_output@@@2@@__crt_stdio_output@@AAE_N_N@Z 0041d9be f i libucrt:output.obj
 0001:0001cbb8       ??$type_case_integer@$09@?$output_processor@_WV?$stream_output_adapter@_W@__crt_stdio_output@@V?$standard_base@_WV?$stream_output_adapter@_W@__crt_stdio_output@@@2@@__crt_stdio_output@@AAE_N_N@Z 0041dbb8 f i libucrt:output.obj
 0001:0001cd9a       ??$type_case_integer@$09@?$output_processor@_WV?$string_output_adapter@_W@__crt_stdio_output@@V?$format_validation_base@_WV?$string_output_adapter@_W@__crt_stdio_output@@@2@@__crt_stdio_output@@AAE_N_N@Z 0041dd9a f i libucrt:output.obj
 0001:0001cf7c       ??$type_case_integer@$09@?$output_processor@_WV?$string_output_adapter@_W@__crt_stdio_output@@V?$positional_parameter_base@_WV?$string_output_adapter@_W@__crt_stdio_output@@@2@@__crt_stdio_output@@AAE_N_N@Z 0041df7c f i libucrt:output.obj
 0001:0001d176       ??$type_case_integer@$09@?$output_processor@_WV?$string_output_adapter@_W@__crt_stdio_output@@V?$standard_base@_WV?$string_output_adapter@_W@__crt_stdio_output@@@2@@__crt_stdio_output@@AAE_N_N@Z 0041e176 f i libucrt:output.obj
 0001:0001d358       ??$type_case_integer@$0BA@@?$output_processor@DV?$stream_output_adapter@D@__crt_stdio_output@@V?$format_validation_base@DV?$stream_output_adapter@D@__crt_stdio_output@@@2@@__crt_stdio_output@@AAE_N_N@Z 0041e358 f i libucrt:output.obj
 0001:0001d534       ??$type_case_integer@$0BA@@?$output_processor@DV?$stream_output_adapter@D@__crt_stdio_output@@V?$positional_parameter_base@DV?$stream_output_adapter@D@__crt_stdio_output@@@2@@__crt_stdio_output@@AAE_N_N@Z 0041e534 f i libucrt:output.obj
 0001:0001d729       ??$type_case_integer@$0BA@@?$output_processor@DV?$stream_output_adapter@D@__crt_stdio_output@@V?$standard_base@DV?$stream_output_adapter@D@__crt_stdio_output@@@2@@__crt_stdio_output@@AAE_N_N@Z 0041e729 f i libucrt:output.obj
 0001:0001d905       ??$type_case_integer@$0BA@@?$output_processor@DV?$string_output_adapter@D@__crt_stdio_output@@V?$format_validation_base@DV?$string_output_adapter@D@__crt_stdio_output@@@2@@__crt_stdio_output@@AAE_N_N@Z 0041e905 f i libucrt:output.obj
 0001:0001dae1       ??$type_case_integer@$0BA@@?$output_processor@DV?$string_output_adapter@D@__crt_stdio_output@@V?$positional_parameter_base@DV?$string_output_adapter@D@__crt_stdio_output@@@2@@__crt_stdio_output@@AAE_N_N@Z 0041eae1 f i libucrt:output.obj
 0001:0001dcd6       ??$type_case_integer@$0BA@@?$output_processor@DV?$string_output_adapter@D@__crt_stdio_output@@V?$standard_base@DV?$string_output_adapter@D@__crt_stdio_output@@@2@@__crt_stdio_output@@AAE_N_N@Z 0041ecd6 f i libucrt:output.obj
 0001:0001deb2       ??$type_case_integer@$0BA@@?$output_processor@_WV?$stream_output_adapter@_W@__crt_stdio_output@@V?$format_validation_base@_WV?$stream_output_adapter@_W@__crt_stdio_output@@@2@@__crt_stdio_output@@AAE_N_N@Z 0041eeb2 f i libucrt:output.obj
 0001:0001e094       ??$type_case_integer@$0BA@@?$output_processor@_WV?$stream_output_adapter@_W@__crt_stdio_output@@V?$positional_parameter_base@_WV?$stream_output_adapter@_W@__crt_stdio_output@@@2@@__crt_stdio_output@@AAE_N_N@Z 0041f094 f i libucrt:output.obj
 0001:0001e28e       ??$type_case_integer@$0BA@@?$output_processor@_WV?$stream_output_adapter@_W@__crt_stdio_output@@V?$standard_base@_WV?$stream_output_adapter@_W@__crt_stdio_output@@@2@@__crt_stdio_output@@AAE_N_N@Z 0041f28e f i libucrt:output.obj
 0001:0001e470       ??$type_case_integer@$0BA@@?$output_processor@_WV?$string_output_adapter@_W@__crt_stdio_output@@V?$format_validation_base@_WV?$string_output_adapter@_W@__crt_stdio_output@@@2@@__crt_stdio_output@@AAE_N_N@Z 0041f470 f i libucrt:output.obj
 0001:0001e652       ??$type_case_integer@$0BA@@?$output_processor@_WV?$string_output_adapter@_W@__crt_stdio_output@@V?$positional_parameter_base@_WV?$string_output_adapter@_W@__crt_stdio_output@@@2@@__crt_stdio_output@@AAE_N_N@Z 0041f652 f i libucrt:output.obj
 0001:0001e84c       ??$type_case_integer@$0BA@@?$output_processor@_WV?$string_output_adapter@_W@__crt_stdio_output@@V?$standard_base@_WV?$string_output_adapter@_W@__crt_stdio_output@@@2@@__crt_stdio_output@@AAE_N_N@Z 0041f84c f i libucrt:output.obj
 0001:0001ea2e       ??$type_case_integer_parse_into_buffer@I$07@?$output_processor@DV?$stream_output_adapter@D@__crt_stdio_output@@V?$format_validation_base@DV?$stream_output_adapter@D@__crt_stdio_output@@@2@@__crt_stdio_output@@AAEXI_N@Z 0041fa2e f i libucrt:output.obj
 0001:0001eab2       ??$type_case_integer_parse_into_buffer@I$07@?$output_processor@DV?$stream_output_adapter@D@__crt_stdio_output@@V?$positional_parameter_base@DV?$stream_output_adapter@D@__crt_stdio_output@@@2@@__crt_stdio_output@@AAEXI_N@Z 0041fab2 f i libucrt:output.obj
 0001:0001eb36       ??$type_case_integer_parse_into_buffer@I$07@?$output_processor@DV?$stream_output_adapter@D@__crt_stdio_output@@V?$standard_base@DV?$stream_output_adapter@D@__crt_stdio_output@@@2@@__crt_stdio_output@@AAEXI_N@Z 0041fb36 f i libucrt:output.obj
 0001:0001ebba       ??$type_case_integer_parse_into_buffer@I$07@?$output_processor@DV?$string_output_adapter@D@__crt_stdio_output@@V?$format_validation_base@DV?$string_output_adapter@D@__crt_stdio_output@@@2@@__crt_stdio_output@@AAEXI_N@Z 0041fbba f i libucrt:output.obj
 0001:0001ec3e       ??$type_case_integer_parse_into_buffer@I$07@?$output_processor@DV?$string_output_adapter@D@__crt_stdio_output@@V?$positional_parameter_base@DV?$string_output_adapter@D@__crt_stdio_output@@@2@@__crt_stdio_output@@AAEXI_N@Z 0041fc3e f i libucrt:output.obj
 0001:0001ecc2       ??$type_case_integer_parse_into_buffer@I$07@?$output_processor@DV?$string_output_adapter@D@__crt_stdio_output@@V?$standard_base@DV?$string_output_adapter@D@__crt_stdio_output@@@2@@__crt_stdio_output@@AAEXI_N@Z 0041fcc2 f i libucrt:output.obj
 0001:0001ed46       ??$type_case_integer_parse_into_buffer@I$07@?$output_processor@_WV?$stream_output_adapter@_W@__crt_stdio_output@@V?$format_validation_base@_WV?$stream_output_adapter@_W@__crt_stdio_output@@@2@@__crt_stdio_output@@AAEXI_N@Z 0041fd46 f i libucrt:output.obj
 0001:0001edce       ??$type_case_integer_parse_into_buffer@I$07@?$output_processor@_WV?$stream_output_adapter@_W@__crt_stdio_output@@V?$positional_parameter_base@_WV?$stream_output_adapter@_W@__crt_stdio_output@@@2@@__crt_stdio_output@@AAEXI_N@Z 0041fdce f i libucrt:output.obj
 0001:0001ee56       ??$type_case_integer_parse_into_buffer@I$07@?$output_processor@_WV?$stream_output_adapter@_W@__crt_stdio_output@@V?$standard_base@_WV?$stream_output_adapter@_W@__crt_stdio_output@@@2@@__crt_stdio_output@@AAEXI_N@Z 0041fe56 f i libucrt:output.obj
 0001:0001eede       ??$type_case_integer_parse_into_buffer@I$07@?$output_processor@_WV?$string_output_adapter@_W@__crt_stdio_output@@V?$format_validation_base@_WV?$string_output_adapter@_W@__crt_stdio_output@@@2@@__crt_stdio_output@@AAEXI_N@Z 0041fede f i libucrt:output.obj
 0001:0001ef66       ??$type_case_integer_parse_into_buffer@I$07@?$output_processor@_WV?$string_output_adapter@_W@__crt_stdio_output@@V?$positional_parameter_base@_WV?$string_output_adapter@_W@__crt_stdio_output@@@2@@__crt_stdio_output@@AAEXI_N@Z 0041ff66 f i libucrt:output.obj
 0001:0001efee       ??$type_case_integer_parse_into_buffer@I$07@?$output_processor@_WV?$string_output_adapter@_W@__crt_stdio_output@@V?$standard_base@_WV?$string_output_adapter@_W@__crt_stdio_output@@@2@@__crt_stdio_output@@AAEXI_N@Z 0041ffee f i libucrt:output.obj
 0001:0001f076       ??$type_case_integer_parse_into_buffer@I$09@?$output_processor@DV?$stream_output_adapter@D@__crt_stdio_output@@V?$format_validation_base@DV?$stream_output_adapter@D@__crt_stdio_output@@@2@@__crt_stdio_output@@AAEXI_N@Z 00420076 f i libucrt:output.obj
 0001:0001f10e       ??$type_case_integer_parse_into_buffer@I$09@?$output_processor@DV?$stream_output_adapter@D@__crt_stdio_output@@V?$positional_parameter_base@DV?$stream_output_adapter@D@__crt_stdio_output@@@2@@__crt_stdio_output@@AAEXI_N@Z 0042010e f i libucrt:output.obj
 0001:0001f1a6       ??$type_case_integer_parse_into_buffer@I$09@?$output_processor@DV?$stream_output_adapter@D@__crt_stdio_output@@V?$standard_base@DV?$stream_output_adapter@D@__crt_stdio_output@@@2@@__crt_stdio_output@@AAEXI_N@Z 004201a6 f i libucrt:output.obj
 0001:0001f23e       ??$type_case_integer_parse_into_buffer@I$09@?$output_processor@DV?$string_output_adapter@D@__crt_stdio_output@@V?$format_validation_base@DV?$string_output_adapter@D@__crt_stdio_output@@@2@@__crt_stdio_output@@AAEXI_N@Z 0042023e f i libucrt:output.obj
 0001:0001f2d6       ??$type_case_integer_parse_into_buffer@I$09@?$output_processor@DV?$string_output_adapter@D@__crt_stdio_output@@V?$positional_parameter_base@DV?$string_output_adapter@D@__crt_stdio_output@@@2@@__crt_stdio_output@@AAEXI_N@Z 004202d6 f i libucrt:output.obj
 0001:0001f36e       ??$type_case_integer_parse_into_buffer@I$09@?$output_processor@DV?$string_output_adapter@D@__crt_stdio_output@@V?$standard_base@DV?$string_output_adapter@D@__crt_stdio_output@@@2@@__crt_stdio_output@@AAEXI_N@Z 0042036e f i libucrt:output.obj
 0001:0001f406       ??$type_case_integer_parse_into_buffer@I$09@?$output_processor@_WV?$stream_output_adapter@_W@__crt_stdio_output@@V?$format_validation_base@_WV?$stream_output_adapter@_W@__crt_stdio_output@@@2@@__crt_stdio_output@@AAEXI_N@Z 00420406 f i libucrt:output.obj
 0001:0001f4b8       ??$type_case_integer_parse_into_buffer@I$09@?$output_processor@_WV?$stream_output_adapter@_W@__crt_stdio_output@@V?$positional_parameter_base@_WV?$stream_output_adapter@_W@__crt_stdio_output@@@2@@__crt_stdio_output@@AAEXI_N@Z 004204b8 f i libucrt:output.obj
 0001:0001f56a       ??$type_case_integer_parse_into_buffer@I$09@?$output_processor@_WV?$stream_output_adapter@_W@__crt_stdio_output@@V?$standard_base@_WV?$stream_output_adapter@_W@__crt_stdio_output@@@2@@__crt_stdio_output@@AAEXI_N@Z 0042056a f i libucrt:output.obj
 0001:0001f61c       ??$type_case_integer_parse_into_buffer@I$09@?$output_processor@_WV?$string_output_adapter@_W@__crt_stdio_output@@V?$format_validation_base@_WV?$string_output_adapter@_W@__crt_stdio_output@@@2@@__crt_stdio_output@@AAEXI_N@Z 0042061c f i libucrt:output.obj
 0001:0001f6ce       ??$type_case_integer_parse_into_buffer@I$09@?$output_processor@_WV?$string_output_adapter@_W@__crt_stdio_output@@V?$positional_parameter_base@_WV?$string_output_adapter@_W@__crt_stdio_output@@@2@@__crt_stdio_output@@AAEXI_N@Z 004206ce f i libucrt:output.obj
 0001:0001f780       ??$type_case_integer_parse_into_buffer@I$09@?$output_processor@_WV?$string_output_adapter@_W@__crt_stdio_output@@V?$standard_base@_WV?$string_output_adapter@_W@__crt_stdio_output@@@2@@__crt_stdio_output@@AAEXI_N@Z 00420780 f i libucrt:output.obj
 0001:0001f832       ??$type_case_integer_parse_into_buffer@I$0BA@@?$output_processor@DV?$stream_output_adapter@D@__crt_stdio_output@@V?$format_validation_base@DV?$stream_output_adapter@D@__crt_stdio_output@@@2@@__crt_stdio_output@@AAEXI_N@Z 00420832 f i libucrt:output.obj
 0001:0001f8dc       ??$type_case_integer_parse_into_buffer@I$0BA@@?$output_processor@DV?$stream_output_adapter@D@__crt_stdio_output@@V?$positional_parameter_base@DV?$stream_output_adapter@D@__crt_stdio_output@@@2@@__crt_stdio_output@@AAEXI_N@Z 004208dc f i libucrt:output.obj
 0001:0001f986       ??$type_case_integer_parse_into_buffer@I$0BA@@?$output_processor@DV?$stream_output_adapter@D@__crt_stdio_output@@V?$standard_base@DV?$stream_output_adapter@D@__crt_stdio_output@@@2@@__crt_stdio_output@@AAEXI_N@Z 00420986 f i libucrt:output.obj
 0001:0001fa30       ??$type_case_integer_parse_into_buffer@I$0BA@@?$output_processor@DV?$string_output_adapter@D@__crt_stdio_output@@V?$format_validation_base@DV?$string_output_adapter@D@__crt_stdio_output@@@2@@__crt_stdio_output@@AAEXI_N@Z 00420a30 f i libucrt:output.obj
 0001:0001fada       ??$type_case_integer_parse_into_buffer@I$0BA@@?$output_processor@DV?$string_output_adapter@D@__crt_stdio_output@@V?$positional_parameter_base@DV?$string_output_adapter@D@__crt_stdio_output@@@2@@__crt_stdio_output@@AAEXI_N@Z 00420ada f i libucrt:output.obj
 0001:0001fb84       ??$type_case_integer_parse_into_buffer@I$0BA@@?$output_processor@DV?$string_output_adapter@D@__crt_stdio_output@@V?$standard_base@DV?$string_output_adapter@D@__crt_stdio_output@@@2@@__crt_stdio_output@@AAEXI_N@Z 00420b84 f i libucrt:output.obj
 0001:0001fc2e       ??$type_case_integer_parse_into_buffer@I$0BA@@?$output_processor@_WV?$stream_output_adapter@_W@__crt_stdio_output@@V?$format_validation_base@_WV?$stream_output_adapter@_W@__crt_stdio_output@@@2@@__crt_stdio_output@@AAEXI_N@Z 00420c2e f i libucrt:output.obj
 0001:0001fcde       ??$type_case_integer_parse_into_buffer@I$0BA@@?$output_processor@_WV?$stream_output_adapter@_W@__crt_stdio_output@@V?$positional_parameter_base@_WV?$stream_output_adapter@_W@__crt_stdio_output@@@2@@__crt_stdio_output@@AAEXI_N@Z 00420cde f i libucrt:output.obj
 0001:0001fd8e       ??$type_case_integer_parse_into_buffer@I$0BA@@?$output_processor@_WV?$stream_output_adapter@_W@__crt_stdio_output@@V?$standard_base@_WV?$stream_output_adapter@_W@__crt_stdio_output@@@2@@__crt_stdio_output@@AAEXI_N@Z 00420d8e f i libucrt:output.obj
 0001:0001fe3e       ??$type_case_integer_parse_into_buffer@I$0BA@@?$output_processor@_WV?$string_output_adapter@_W@__crt_stdio_output@@V?$format_validation_base@_WV?$string_output_adapter@_W@__crt_stdio_output@@@2@@__crt_stdio_output@@AAEXI_N@Z 00420e3e f i libucrt:output.obj
 0001:0001feee       ??$type_case_integer_parse_into_buffer@I$0BA@@?$output_processor@_WV?$string_output_adapter@_W@__crt_stdio_output@@V?$positional_parameter_base@_WV?$string_output_adapter@_W@__crt_stdio_output@@@2@@__crt_stdio_output@@AAEXI_N@Z 00420eee f i libucrt:output.obj
 0001:0001ff9e       ??$type_case_integer_parse_into_buffer@I$0BA@@?$output_processor@_WV?$string_output_adapter@_W@__crt_stdio_output@@V?$standard_base@_WV?$string_output_adapter@_W@__crt_stdio_output@@@2@@__crt_stdio_output@@AAEXI_N@Z 00420f9e f i libucrt:output.obj
 0001:0002004e       ??$type_case_integer_parse_into_buffer@_K$07@?$output_processor@DV?$stream_output_adapter@D@__crt_stdio_output@@V?$format_validation_base@DV?$stream_output_adapter@D@__crt_stdio_output@@@2@@__crt_stdio_output@@AAEX_K_N@Z 0042104e f i libucrt:output.obj
 0001:000200e4       ??$type_case_integer_parse_into_buffer@_K$07@?$output_processor@DV?$stream_output_adapter@D@__crt_stdio_output@@V?$positional_parameter_base@DV?$stream_output_adapter@D@__crt_stdio_output@@@2@@__crt_stdio_output@@AAEX_K_N@Z 004210e4 f i libucrt:output.obj
 0001:0002017a       ??$type_case_integer_parse_into_buffer@_K$07@?$output_processor@DV?$stream_output_adapter@D@__crt_stdio_output@@V?$standard_base@DV?$stream_output_adapter@D@__crt_stdio_output@@@2@@__crt_stdio_output@@AAEX_K_N@Z 0042117a f i libucrt:output.obj
 0001:00020210       ??$type_case_integer_parse_into_buffer@_K$07@?$output_processor@DV?$string_output_adapter@D@__crt_stdio_output@@V?$format_validation_base@DV?$string_output_adapter@D@__crt_stdio_output@@@2@@__crt_stdio_output@@AAEX_K_N@Z 00421210 f i libucrt:output.obj
 0001:000202a6       ??$type_case_integer_parse_into_buffer@_K$07@?$output_processor@DV?$string_output_adapter@D@__crt_stdio_output@@V?$positional_parameter_base@DV?$string_output_adapter@D@__crt_stdio_output@@@2@@__crt_stdio_output@@AAEX_K_N@Z 004212a6 f i libucrt:output.obj
 0001:0002033c       ??$type_case_integer_parse_into_buffer@_K$07@?$output_processor@DV?$string_output_adapter@D@__crt_stdio_output@@V?$standard_base@DV?$string_output_adapter@D@__crt_stdio_output@@@2@@__crt_stdio_output@@AAEX_K_N@Z 0042133c f i libucrt:output.obj
 0001:000203d2       ??$type_case_integer_parse_into_buffer@_K$07@?$output_processor@_WV?$stream_output_adapter@_W@__crt_stdio_output@@V?$format_validation_base@_WV?$stream_output_adapter@_W@__crt_stdio_output@@@2@@__crt_stdio_output@@AAEX_K_N@Z 004213d2 f i libucrt:output.obj
 0001:0002047d       ??$type_case_integer_parse_into_buffer@_K$07@?$output_processor@_WV?$stream_output_adapter@_W@__crt_stdio_output@@V?$positional_parameter_base@_WV?$stream_output_adapter@_W@__crt_stdio_output@@@2@@__crt_stdio_output@@AAEX_K_N@Z 0042147d f i libucrt:output.obj
 0001:00020528       ??$type_case_integer_parse_into_buffer@_K$07@?$output_processor@_WV?$stream_output_adapter@_W@__crt_stdio_output@@V?$standard_base@_WV?$stream_output_adapter@_W@__crt_stdio_output@@@2@@__crt_stdio_output@@AAEX_K_N@Z 00421528 f i libucrt:output.obj
 0001:000205d3       ??$type_case_integer_parse_into_buffer@_K$07@?$output_processor@_WV?$string_output_adapter@_W@__crt_stdio_output@@V?$format_validation_base@_WV?$string_output_adapter@_W@__crt_stdio_output@@@2@@__crt_stdio_output@@AAEX_K_N@Z 004215d3 f i libucrt:output.obj
 0001:0002067e       ??$type_case_integer_parse_into_buffer@_K$07@?$output_processor@_WV?$string_output_adapter@_W@__crt_stdio_output@@V?$positional_parameter_base@_WV?$string_output_adapter@_W@__crt_stdio_output@@@2@@__crt_stdio_output@@AAEX_K_N@Z 0042167e f i libucrt:output.obj
 0001:00020729       ??$type_case_integer_parse_into_buffer@_K$07@?$output_processor@_WV?$string_output_adapter@_W@__crt_stdio_output@@V?$standard_base@_WV?$string_output_adapter@_W@__crt_stdio_output@@@2@@__crt_stdio_output@@AAEX_K_N@Z 00421729 f i libucrt:output.obj
 0001:000207d4       ??$type_case_integer_parse_into_buffer@_K$09@?$output_processor@DV?$stream_output_adapter@D@__crt_stdio_output@@V?$format_validation_base@DV?$stream_output_adapter@D@__crt_stdio_output@@@2@@__crt_stdio_output@@AAEX_K_N@Z 004217d4 f i libucrt:output.obj
 0001:00020897       ??$type_case_integer_parse_into_buffer@_K$09@?$output_processor@DV?$stream_output_adapter@D@__crt_stdio_output@@V?$positional_parameter_base@DV?$stream_output_adapter@D@__crt_stdio_output@@@2@@__crt_stdio_output@@AAEX_K_N@Z 00421897 f i libucrt:output.obj
 0001:0002095a       ??$type_case_integer_parse_into_buffer@_K$09@?$output_processor@DV?$stream_output_adapter@D@__crt_stdio_output@@V?$standard_base@DV?$stream_output_adapter@D@__crt_stdio_output@@@2@@__crt_stdio_output@@AAEX_K_N@Z 0042195a f i libucrt:output.obj
 0001:00020a1d       ??$type_case_integer_parse_into_buffer@_K$09@?$output_processor@DV?$string_output_adapter@D@__crt_stdio_output@@V?$format_validation_base@DV?$string_output_adapter@D@__crt_stdio_output@@@2@@__crt_stdio_output@@AAEX_K_N@Z 00421a1d f i libucrt:output.obj
 0001:00020ae0       ??$type_case_integer_parse_into_buffer@_K$09@?$output_processor@DV?$string_output_adapter@D@__crt_stdio_output@@V?$positional_parameter_base@DV?$string_output_adapter@D@__crt_stdio_output@@@2@@__crt_stdio_output@@AAEX_K_N@Z 00421ae0 f i libucrt:output.obj
 0001:00020ba3       ??$type_case_integer_parse_into_buffer@_K$09@?$output_processor@DV?$string_output_adapter@D@__crt_stdio_output@@V?$standard_base@DV?$string_output_adapter@D@__crt_stdio_output@@@2@@__crt_stdio_output@@AAEX_K_N@Z 00421ba3 f i libucrt:output.obj
 0001:00020c66       ??$type_case_integer_parse_into_buffer@_K$09@?$output_processor@_WV?$stream_output_adapter@_W@__crt_stdio_output@@V?$format_validation_base@_WV?$stream_output_adapter@_W@__crt_stdio_output@@@2@@__crt_stdio_output@@AAEX_K_N@Z 00421c66 f i libucrt:output.obj
 0001:00020d40       ??$type_case_integer_parse_into_buffer@_K$09@?$output_processor@_WV?$stream_output_adapter@_W@__crt_stdio_output@@V?$positional_parameter_base@_WV?$stream_output_adapter@_W@__crt_stdio_output@@@2@@__crt_stdio_output@@AAEX_K_N@Z 00421d40 f i libucrt:output.obj
 0001:00020e1a       ??$type_case_integer_parse_into_buffer@_K$09@?$output_processor@_WV?$stream_output_adapter@_W@__crt_stdio_output@@V?$standard_base@_WV?$stream_output_adapter@_W@__crt_stdio_output@@@2@@__crt_stdio_output@@AAEX_K_N@Z 00421e1a f i libucrt:output.obj
 0001:00020ef4       ??$type_case_integer_parse_into_buffer@_K$09@?$output_processor@_WV?$string_output_adapter@_W@__crt_stdio_output@@V?$format_validation_base@_WV?$string_output_adapter@_W@__crt_stdio_output@@@2@@__crt_stdio_output@@AAEX_K_N@Z 00421ef4 f i libucrt:output.obj
 0001:00020fce       ??$type_case_integer_parse_into_buffer@_K$09@?$output_processor@_WV?$string_output_adapter@_W@__crt_stdio_output@@V?$positional_parameter_base@_WV?$string_output_adapter@_W@__crt_stdio_output@@@2@@__crt_stdio_output@@AAEX_K_N@Z 00421fce f i libucrt:output.obj
 0001:000210a8       ??$type_case_integer_parse_into_buffer@_K$09@?$output_processor@_WV?$string_output_adapter@_W@__crt_stdio_output@@V?$standard_base@_WV?$string_output_adapter@_W@__crt_stdio_output@@@2@@__crt_stdio_output@@AAEX_K_N@Z 004220a8 f i libucrt:output.obj
 0001:00021182       ??$type_case_integer_parse_into_buffer@_K$0BA@@?$output_processor@DV?$stream_output_adapter@D@__crt_stdio_output@@V?$format_validation_base@DV?$stream_output_adapter@D@__crt_stdio_output@@@2@@__crt_stdio_output@@AAEX_K_N@Z 00422182 f i libucrt:output.obj
 0001:00021238       ??$type_case_integer_parse_into_buffer@_K$0BA@@?$output_processor@DV?$stream_output_adapter@D@__crt_stdio_output@@V?$positional_parameter_base@DV?$stream_output_adapter@D@__crt_stdio_output@@@2@@__crt_stdio_output@@AAEX_K_N@Z 00422238 f i libucrt:output.obj
 0001:000212ee       ??$type_case_integer_parse_into_buffer@_K$0BA@@?$output_processor@DV?$stream_output_adapter@D@__crt_stdio_output@@V?$standard_base@DV?$stream_output_adapter@D@__crt_stdio_output@@@2@@__crt_stdio_output@@AAEX_K_N@Z 004222ee f i libucrt:output.obj
 0001:000213a4       ??$type_case_integer_parse_into_buffer@_K$0BA@@?$output_processor@DV?$string_output_adapter@D@__crt_stdio_output@@V?$format_validation_base@DV?$string_output_adapter@D@__crt_stdio_output@@@2@@__crt_stdio_output@@AAEX_K_N@Z 004223a4 f i libucrt:output.obj
 0001:0002145a       ??$type_case_integer_parse_into_buffer@_K$0BA@@?$output_processor@DV?$string_output_adapter@D@__crt_stdio_output@@V?$positional_parameter_base@DV?$string_output_adapter@D@__crt_stdio_output@@@2@@__crt_stdio_output@@AAEX_K_N@Z 0042245a f i libucrt:output.obj
 0001:00021510       ??$type_case_integer_parse_into_buffer@_K$0BA@@?$output_processor@DV?$string_output_adapter@D@__crt_stdio_output@@V?$standard_base@DV?$string_output_adapter@D@__crt_stdio_output@@@2@@__crt_stdio_output@@AAEX_K_N@Z 00422510 f i libucrt:output.obj
 0001:000215c6       ??$type_case_integer_parse_into_buffer@_K$0BA@@?$output_processor@_WV?$stream_output_adapter@_W@__crt_stdio_output@@V?$format_validation_base@_WV?$stream_output_adapter@_W@__crt_stdio_output@@@2@@__crt_stdio_output@@AAEX_K_N@Z 004225c6 f i libucrt:output.obj
 0001:00021687       ??$type_case_integer_parse_into_buffer@_K$0BA@@?$output_processor@_WV?$stream_output_adapter@_W@__crt_stdio_output@@V?$positional_parameter_base@_WV?$stream_output_adapter@_W@__crt_stdio_output@@@2@@__crt_stdio_output@@AAEX_K_N@Z 00422687 f i libucrt:output.obj
 0001:00021748       ??$type_case_integer_parse_into_buffer@_K$0BA@@?$output_processor@_WV?$stream_output_adapter@_W@__crt_stdio_output@@V?$standard_base@_WV?$stream_output_adapter@_W@__crt_stdio_output@@@2@@__crt_stdio_output@@AAEX_K_N@Z 00422748 f i libucrt:output.obj
 0001:00021809       ??$type_case_integer_parse_into_buffer@_K$0BA@@?$output_processor@_WV?$string_output_adapter@_W@__crt_stdio_output@@V?$format_validation_base@_WV?$string_output_adapter@_W@__crt_stdio_output@@@2@@__crt_stdio_output@@AAEX_K_N@Z 00422809 f i libucrt:output.obj
 0001:000218ca       ??$type_case_integer_parse_into_buffer@_K$0BA@@?$output_processor@_WV?$string_output_adapter@_W@__crt_stdio_output@@V?$positional_parameter_base@_WV?$string_output_adapter@_W@__crt_stdio_output@@@2@@__crt_stdio_output@@AAEX_K_N@Z 004228ca f i libucrt:output.obj
 0001:0002198b       ??$type_case_integer_parse_into_buffer@_K$0BA@@?$output_processor@_WV?$string_output_adapter@_W@__crt_stdio_output@@V?$standard_base@_WV?$string_output_adapter@_W@__crt_stdio_output@@@2@@__crt_stdio_output@@AAEX_K_N@Z 0042298b f i libucrt:output.obj
 0001:00021a4c       ??$write_multiple_characters@V?$stream_output_adapter@D@__crt_stdio_output@@D@__crt_stdio_output@@YAXABV?$stream_output_adapter@D@0@DHQAHAAV__crt_cached_ptd_host@@@Z 00422a4c f i libucrt:output.obj
 0001:00021a86       ??$write_multiple_characters@V?$stream_output_adapter@_W@__crt_stdio_output@@D@__crt_stdio_output@@YAXABV?$stream_output_adapter@_W@0@DHQAHAAV__crt_cached_ptd_host@@@Z 00422a86 f i libucrt:output.obj
 0001:00021ac7       ??$write_multiple_characters@V?$string_output_adapter@D@__crt_stdio_output@@D@__crt_stdio_output@@YAXABV?$string_output_adapter@D@0@DHQAHAAV__crt_cached_ptd_host@@@Z 00422ac7 f i libucrt:output.obj
 0001:00021b40       ??$write_multiple_characters@V?$string_output_adapter@_W@__crt_stdio_output@@D@__crt_stdio_output@@YAXABV?$string_output_adapter@_W@0@DHQAHAAV__crt_cached_ptd_host@@@Z 00422b40 f i libucrt:output.obj
 0001:00021df2       ??0?$c_string_character_source@D@__crt_strtox@@QAE@QBDQAPBD@Z 00422df2 f i libucrt:output.obj
 0001:00021e15       ??0?$c_string_character_source@_W@__crt_strtox@@QAE@QB_WQAPB_W@Z 00422e15 f i libucrt:output.obj
 0001:00021e38       ??0?$cached@H@__crt_cached_ptd_host@@QAE@XZ 00422e38 f i libucrt:output.obj
 0001:00021e3f       ??0?$cached@K@__crt_cached_ptd_host@@QAE@XZ 00422e3f f i libucrt:output.obj
 0001:00021e46       ??0?$common_data@D@__crt_stdio_output@@IAE@AAV__crt_cached_ptd_host@@@Z 00422e46 f i libucrt:output.obj
 0001:00021e9e       ??0?$common_data@_W@__crt_stdio_output@@IAE@AAV__crt_cached_ptd_host@@@Z 00422e9e f i libucrt:output.obj
 0001:00021efd       ??0?$output_adapter_data@DV?$stream_output_adapter@D@__crt_stdio_output@@@__crt_stdio_output@@IAE@ABV?$stream_output_adapter@D@1@_KQBDAAV__crt_cached_ptd_host@@QAD@Z 00422efd f i libucrt:output.obj
 0001:00021f7d       ??0?$output_adapter_data@DV?$string_output_adapter@D@__crt_stdio_output@@@__crt_stdio_output@@IAE@ABV?$string_output_adapter@D@1@_KQBDAAV__crt_cached_ptd_host@@QAD@Z 00422f7d f i libucrt:output.obj
 0001:00021ffd       ??0?$output_adapter_data@_WV?$stream_output_adapter@_W@__crt_stdio_output@@@__crt_stdio_output@@IAE@ABV?$stream_output_adapter@_W@1@_KQB_WAAV__crt_cached_ptd_host@@QAD@Z 00422ffd f i libucrt:output.obj
 0001:00022084       ??0?$output_adapter_data@_WV?$string_output_adapter@_W@__crt_stdio_output@@@__crt_stdio_output@@IAE@ABV?$string_output_adapter@_W@1@_KQB_WAAV__crt_cached_ptd_host@@QAD@Z 00423084 f i libucrt:output.obj
 0001:0002210b       ??0?$output_processor@DV?$stream_output_adapter@D@__crt_stdio_output@@V?$format_validation_base@DV?$stream_output_adapter@D@__crt_stdio_output@@@2@@__crt_stdio_output@@QAE@ABV?$stream_output_adapter@D@1@_KQBDAAV__crt_cached_ptd_host@@QAD@Z 0042310b f i libucrt:output.obj
 0001:00022143       ??0?$output_processor@DV?$stream_output_adapter@D@__crt_stdio_output@@V?$positional_parameter_base@DV?$stream_output_adapter@D@__crt_stdio_output@@@2@@__crt_stdio_output@@QAE@ABV?$stream_output_adapter@D@1@_KQBDAAV__crt_cached_ptd_host@@QAD@Z 00423143 f i libucrt:output.obj
 0001:00022172       ??0?$output_processor@DV?$stream_output_adapter@D@__crt_stdio_output@@V?$standard_base@DV?$stream_output_adapter@D@__crt_stdio_output@@@2@@__crt_stdio_output@@QAE@ABV?$stream_output_adapter@D@1@_KQBDAAV__crt_cached_ptd_host@@QAD@Z 00423172 f i libucrt:output.obj
 0001:000221aa       ??0?$output_processor@DV?$string_output_adapter@D@__crt_stdio_output@@V?$format_validation_base@DV?$string_output_adapter@D@__crt_stdio_output@@@2@@__crt_stdio_output@@QAE@ABV?$string_output_adapter@D@1@_KQBDAAV__crt_cached_ptd_host@@QAD@Z 004231aa f i libucrt:output.obj
 0001:000221e2       ??0?$output_processor@DV?$string_output_adapter@D@__crt_stdio_output@@V?$positional_parameter_base@DV?$string_output_adapter@D@__crt_stdio_output@@@2@@__crt_stdio_output@@QAE@ABV?$string_output_adapter@D@1@_KQBDAAV__crt_cached_ptd_host@@QAD@Z 004231e2 f i libucrt:output.obj
 0001:00022211       ??0?$output_processor@DV?$string_output_adapter@D@__crt_stdio_output@@V?$standard_base@DV?$string_output_adapter@D@__crt_stdio_output@@@2@@__crt_stdio_output@@QAE@ABV?$string_output_adapter@D@1@_KQBDAAV__crt_cached_ptd_host@@QAD@Z 00423211 f i libucrt:output.obj
 0001:00022249       ??0?$output_processor@_WV?$stream_output_adapter@_W@__crt_stdio_output@@V?$format_validation_base@_WV?$stream_output_adapter@_W@__crt_stdio_output@@@2@@__crt_stdio_output@@QAE@ABV?$stream_output_adapter@_W@1@_KQB_WAAV__crt_cached_ptd_host@@QAD@Z 00423249 f i libucrt:output.obj
 0001:00022281       ??0?$output_processor@_WV?$stream_output_adapter@_W@__crt_stdio_output@@V?$positional_parameter_base@_WV?$stream_output_adapter@_W@__crt_stdio_output@@@2@@__crt_stdio_output@@QAE@ABV?$stream_output_adapter@_W@1@_KQB_WAAV__crt_cached_ptd_host@@QAD@Z 00423281 f i libucrt:output.obj
 0001:000222b0       ??0?$output_processor@_WV?$stream_output_adapter@_W@__crt_stdio_output@@V?$standard_base@_WV?$stream_output_adapter@_W@__crt_stdio_output@@@2@@__crt_stdio_output@@QAE@ABV?$stream_output_adapter@_W@1@_KQB_WAAV__crt_cached_ptd_host@@QAD@Z 004232b0 f i libucrt:output.obj
 0001:000222e8       ??0?$output_processor@_WV?$string_output_adapter@_W@__crt_stdio_output@@V?$format_validation_base@_WV?$string_output_adapter@_W@__crt_stdio_output@@@2@@__crt_stdio_output@@QAE@ABV?$string_output_adapter@_W@1@_KQB_WAAV__crt_cached_ptd_host@@QAD@Z 004232e8 f i libucrt:output.obj
 0001:00022320       ??0?$output_processor@_WV?$string_output_adapter@_W@__crt_stdio_output@@V?$positional_parameter_base@_WV?$string_output_adapter@_W@__crt_stdio_output@@@2@@__crt_stdio_output@@QAE@ABV?$string_output_adapter@_W@1@_KQB_WAAV__crt_cached_ptd_host@@QAD@Z 00423320 f i libucrt:output.obj
 0001:0002234f       ??0?$output_processor@_WV?$string_output_adapter@_W@__crt_stdio_output@@V?$standard_base@_WV?$string_output_adapter@_W@__crt_stdio_output@@@2@@__crt_stdio_output@@QAE@ABV?$string_output_adapter@_W@1@_KQB_WAAV__crt_cached_ptd_host@@QAD@Z 0042334f f i libucrt:output.obj
 0001:00022387       ??0?$stream_output_adapter@D@__crt_stdio_output@@QAE@QAU_iobuf@@@Z 00423387 f i libucrt:output.obj
 0001:0002239b       ??0?$stream_output_adapter@_W@__crt_stdio_output@@QAE@QAU_iobuf@@@Z 0042339b f i libucrt:output.obj
 0001:000223af       ??0?$string_output_adapter@D@__crt_stdio_output@@QAE@QAU?$string_output_adapter_context@D@1@@Z 004233af f i libucrt:output.obj
 0001:000223c3       ??0?$string_output_adapter@_W@__crt_stdio_output@@QAE@QAU?$string_output_adapter_context@_W@1@@Z 004233c3 f i libucrt:output.obj
 0001:000223d7       ??0__acrt_stdio_temporary_buffering_guard@@QAE@QAU_iobuf@@AAV__crt_cached_ptd_host@@@Z 004233d7 f i libucrt:output.obj
 0001:00022410       ??0__crt_cached_ptd_host@@QAE@QAU__crt_locale_pointers@@@Z 00423410 f i libucrt:output.obj
 0001:00022484       ??0__crt_scoped_get_last_error_reset@@QAE@XZ 00423484 f i libucrt:output.obj
 0001:00022499       ??0formatting_buffer@__crt_stdio_output@@QAE@XZ 00423499 f i libucrt:output.obj
 0001:000224ae       ??0guard@?$cached@H@__crt_cached_ptd_host@@QAE@AAU12@@Z 004234ae f i libucrt:output.obj
 0001:000224d4       ??1?$c_string_character_source@D@__crt_strtox@@QAE@XZ 004234d4 f i libucrt:output.obj
 0001:000224e3       ??1?$c_string_character_source@_W@__crt_strtox@@QAE@XZ 004234e3 f i libucrt:output.obj
 0001:000224f2       ??1?$common_data@D@__crt_stdio_output@@QAE@XZ 004234f2 f i libucrt:output.obj
 0001:000224fc       ??1?$common_data@_W@__crt_stdio_output@@QAE@XZ 004234fc f i libucrt:output.obj
 0001:00022506       ??1?$format_validation_base@DV?$stream_output_adapter@D@__crt_stdio_output@@@__crt_stdio_output@@QAE@XZ 00423506 f i libucrt:output.obj
 0001:00022510       ??1?$format_validation_base@DV?$string_output_adapter@D@__crt_stdio_output@@@__crt_stdio_output@@QAE@XZ 00423510 f i libucrt:output.obj
 0001:0002251a       ??1?$format_validation_base@_WV?$stream_output_adapter@_W@__crt_stdio_output@@@__crt_stdio_output@@QAE@XZ 0042351a f i libucrt:output.obj
 0001:00022524       ??1?$format_validation_base@_WV?$string_output_adapter@_W@__crt_stdio_output@@@__crt_stdio_output@@QAE@XZ 00423524 f i libucrt:output.obj
 0001:0002252e       ??1?$output_adapter_data@DV?$stream_output_adapter@D@__crt_stdio_output@@@__crt_stdio_output@@QAE@XZ 0042352e f i libucrt:output.obj
 0001:00022538       ??1?$output_adapter_data@DV?$string_output_adapter@D@__crt_stdio_output@@@__crt_stdio_output@@QAE@XZ 00423538 f i libucrt:output.obj
 0001:00022542       ??1?$output_adapter_data@_WV?$stream_output_adapter@_W@__crt_stdio_output@@@__crt_stdio_output@@QAE@XZ 00423542 f i libucrt:output.obj
 0001:0002254c       ??1?$output_adapter_data@_WV?$string_output_adapter@_W@__crt_stdio_output@@@__crt_stdio_output@@QAE@XZ 0042354c f i libucrt:output.obj
 0001:00022556       ??1?$output_processor@DV?$stream_output_adapter@D@__crt_stdio_output@@V?$format_validation_base@DV?$stream_output_adapter@D@__crt_stdio_output@@@2@@__crt_stdio_output@@QAE@XZ 00423556 f i libucrt:output.obj
 0001:00022560       ??1?$output_processor@DV?$stream_output_adapter@D@__crt_stdio_output@@V?$positional_parameter_base@DV?$stream_output_adapter@D@__crt_stdio_output@@@2@@__crt_stdio_output@@QAE@XZ 00423560 f i libucrt:output.obj
 0001:0002256a       ??1?$output_processor@DV?$stream_output_adapter@D@__crt_stdio_output@@V?$standard_base@DV?$stream_output_adapter@D@__crt_stdio_output@@@2@@__crt_stdio_output@@QAE@XZ 0042356a f i libucrt:output.obj
 0001:00022574       ??1?$output_processor@DV?$string_output_adapter@D@__crt_stdio_output@@V?$format_validation_base@DV?$string_output_adapter@D@__crt_stdio_output@@@2@@__crt_stdio_output@@QAE@XZ 00423574 f i libucrt:output.obj
 0001:0002257e       ??1?$output_processor@DV?$string_output_adapter@D@__crt_stdio_output@@V?$positional_parameter_base@DV?$string_output_adapter@D@__crt_stdio_output@@@2@@__crt_stdio_output@@QAE@XZ 0042357e f i libucrt:output.obj
 0001:00022588       ??1?$output_processor@DV?$string_output_adapter@D@__crt_stdio_output@@V?$standard_base@DV?$string_output_adapter@D@__crt_stdio_output@@@2@@__crt_stdio_output@@QAE@XZ 00423588 f i libucrt:output.obj
 0001:00022592       ??1?$output_processor@_WV?$stream_output_adapter@_W@__crt_stdio_output@@V?$format_validation_base@_WV?$stream_output_adapter@_W@__crt_stdio_output@@@2@@__crt_stdio_output@@QAE@XZ 00423592 f i libucrt:output.obj
 0001:0002259c       ??1?$output_processor@_WV?$stream_output_adapter@_W@__crt_stdio_output@@V?$positional_parameter_base@_WV?$stream_output_adapter@_W@__crt_stdio_output@@@2@@__crt_stdio_output@@QAE@XZ 0042359c f i libucrt:output.obj
 0001:000225a6       ??1?$output_processor@_WV?$stream_output_adapter@_W@__crt_stdio_output@@V?$standard_base@_WV?$stream_output_adapter@_W@__crt_stdio_output@@@2@@__crt_stdio_output@@QAE@XZ 004235a6 f i libucrt:output.obj
 0001:000225b0       ??1?$output_processor@_WV?$string_output_adapter@_W@__crt_stdio_output@@V?$format_validation_base@_WV?$string_output_adapter@_W@__crt_stdio_output@@@2@@__crt_stdio_output@@QAE@XZ 004235b0 f i libucrt:output.obj
 0001:000225ba       ??1?$output_processor@_WV?$string_output_adapter@_W@__crt_stdio_output@@V?$positional_parameter_base@_WV?$string_output_adapter@_W@__crt_stdio_output@@@2@@__crt_stdio_output@@QAE@XZ 004235ba f i libucrt:output.obj
 0001:000225c4       ??1?$output_processor@_WV?$string_output_adapter@_W@__crt_stdio_output@@V?$standard_base@_WV?$string_output_adapter@_W@__crt_stdio_output@@@2@@__crt_stdio_output@@QAE@XZ 004235c4 f i libucrt:output.obj
 0001:000225ce       ??1?$positional_parameter_base@DV?$stream_output_adapter@D@__crt_stdio_output@@@__crt_stdio_output@@QAE@XZ 004235ce f i libucrt:output.obj
 0001:000225d8       ??1?$positional_parameter_base@DV?$string_output_adapter@D@__crt_stdio_output@@@__crt_stdio_output@@QAE@XZ 004235d8 f i libucrt:output.obj
 0001:000225e2       ??1?$positional_parameter_base@_WV?$stream_output_adapter@_W@__crt_stdio_output@@@__crt_stdio_output@@QAE@XZ 004235e2 f i libucrt:output.obj
 0001:000225ec       ??1?$positional_parameter_base@_WV?$string_output_adapter@_W@__crt_stdio_output@@@__crt_stdio_output@@QAE@XZ 004235ec f i libucrt:output.obj
 0001:000225f6       ??1?$standard_base@DV?$stream_output_adapter@D@__crt_stdio_output@@@__crt_stdio_output@@QAE@XZ 004235f6 f i libucrt:output.obj
 0001:00022600       ??1?$standard_base@DV?$string_output_adapter@D@__crt_stdio_output@@@__crt_stdio_output@@QAE@XZ 00423600 f i libucrt:output.obj
 0001:0002260a       ??1?$standard_base@_WV?$stream_output_adapter@_W@__crt_stdio_output@@@__crt_stdio_output@@QAE@XZ 0042360a f i libucrt:output.obj
 0001:00022614       ??1?$standard_base@_WV?$string_output_adapter@_W@__crt_stdio_output@@@__crt_stdio_output@@QAE@XZ 00423614 f i libucrt:output.obj
 0001:0002261e       ??1__acrt_stdio_temporary_buffering_guard@@QAE@XZ 0042361e f i libucrt:output.obj
 0001:00022640       ??1__crt_cached_ptd_host@@QAE@XZ 00423640 f i libucrt:output.obj
 0001:0002268b       ??1__crt_scoped_get_last_error_reset@@QAE@XZ 0042368b f i libucrt:output.obj
 0001:00022696       ??1formatting_buffer@__crt_stdio_output@@QAE@XZ 00423696 f i libucrt:output.obj
 0001:000226b6       ??1guard@?$cached@H@__crt_cached_ptd_host@@QAE@XZ 004236b6 f i libucrt:output.obj
 0001:000226d1       ??4?$__crt_unique_heap_ptr@DU__crt_internal_free_policy@@@@QAEAAV0@$$QAV0@@Z 004236d1 f i libucrt:output.obj
 0001:000226fe       ??A?$spectre_mitigated_lookup_table@Ustate_transition_pair@__crt_stdio_output@@$0IA@@__crt_stdio_output@@QBEABUstate_transition_pair@1@I@Z 004236fe f i libucrt:output.obj
 0001:00022c90       ?adjust_hexit@?$output_processor@DV?$stream_output_adapter@D@__crt_stdio_output@@V?$format_validation_base@DV?$stream_output_adapter@D@__crt_stdio_output@@@2@@__crt_stdio_output@@CADH_N@Z 00423c90 f i libucrt:output.obj
 0001:00022ca9       ?adjust_hexit@?$output_processor@DV?$stream_output_adapter@D@__crt_stdio_output@@V?$positional_parameter_base@DV?$stream_output_adapter@D@__crt_stdio_output@@@2@@__crt_stdio_output@@CADH_N@Z 00423ca9 f i libucrt:output.obj
 0001:00022cc2       ?adjust_hexit@?$output_processor@DV?$stream_output_adapter@D@__crt_stdio_output@@V?$standard_base@DV?$stream_output_adapter@D@__crt_stdio_output@@@2@@__crt_stdio_output@@CADH_N@Z 00423cc2 f i libucrt:output.obj
 0001:00022cdb       ?adjust_hexit@?$output_processor@DV?$string_output_adapter@D@__crt_stdio_output@@V?$format_validation_base@DV?$string_output_adapter@D@__crt_stdio_output@@@2@@__crt_stdio_output@@CADH_N@Z 00423cdb f i libucrt:output.obj
 0001:00022cf4       ?adjust_hexit@?$output_processor@DV?$string_output_adapter@D@__crt_stdio_output@@V?$positional_parameter_base@DV?$string_output_adapter@D@__crt_stdio_output@@@2@@__crt_stdio_output@@CADH_N@Z 00423cf4 f i libucrt:output.obj
 0001:00022d0d       ?adjust_hexit@?$output_processor@DV?$string_output_adapter@D@__crt_stdio_output@@V?$standard_base@DV?$string_output_adapter@D@__crt_stdio_output@@@2@@__crt_stdio_output@@CADH_N@Z 00423d0d f i libucrt:output.obj
 0001:00022d26       ?adjust_hexit@?$output_processor@_WV?$stream_output_adapter@_W@__crt_stdio_output@@V?$format_validation_base@_WV?$stream_output_adapter@_W@__crt_stdio_output@@@2@@__crt_stdio_output@@CADH_N@Z 00423d26 f i libucrt:output.obj
 0001:00022d3f       ?adjust_hexit@?$output_processor@_WV?$stream_output_adapter@_W@__crt_stdio_output@@V?$positional_parameter_base@_WV?$stream_output_adapter@_W@__crt_stdio_output@@@2@@__crt_stdio_output@@CADH_N@Z 00423d3f f i libucrt:output.obj
 0001:00022d58       ?adjust_hexit@?$output_processor@_WV?$stream_output_adapter@_W@__crt_stdio_output@@V?$standard_base@_WV?$stream_output_adapter@_W@__crt_stdio_output@@@2@@__crt_stdio_output@@CADH_N@Z 00423d58 f i libucrt:output.obj
 0001:00022d71       ?adjust_hexit@?$output_processor@_WV?$string_output_adapter@_W@__crt_stdio_output@@V?$format_validation_base@_WV?$string_output_adapter@_W@__crt_stdio_output@@@2@@__crt_stdio_output@@CADH_N@Z 00423d71 f i libucrt:output.obj
 0001:00022d8a       ?adjust_hexit@?$output_processor@_WV?$string_output_adapter@_W@__crt_stdio_output@@V?$positional_parameter_base@_WV?$string_output_adapter@_W@__crt_stdio_output@@@2@@__crt_stdio_output@@CADH_N@Z 00423d8a f i libucrt:output.obj
 0001:00022da3       ?adjust_hexit@?$output_processor@_WV?$string_output_adapter@_W@__crt_stdio_output@@V?$standard_base@_WV?$string_output_adapter@_W@__crt_stdio_output@@@2@@__crt_stdio_output@@CADH_N@Z 00423da3 f i libucrt:output.obj
 0001:00022dbc       ?advance_to_next_pass@?$positional_parameter_base@DV?$stream_output_adapter@D@__crt_stdio_output@@@__crt_stdio_output@@IAE_NXZ 00423dbc f i libucrt:output.obj
 0001:00022e1b       ?advance_to_next_pass@?$positional_parameter_base@DV?$string_output_adapter@D@__crt_stdio_output@@@__crt_stdio_output@@IAE_NXZ 00423e1b f i libucrt:output.obj
 0001:00022e7a       ?advance_to_next_pass@?$positional_parameter_base@_WV?$stream_output_adapter@_W@__crt_stdio_output@@@__crt_stdio_output@@IAE_NXZ 00423e7a f i libucrt:output.obj
 0001:00022ed9       ?advance_to_next_pass@?$positional_parameter_base@_WV?$string_output_adapter@_W@__crt_stdio_output@@@__crt_stdio_output@@IAE_NXZ 00423ed9 f i libucrt:output.obj
 0001:00022f38       ?advance_to_next_pass@?$standard_base@DV?$stream_output_adapter@D@__crt_stdio_output@@@__crt_stdio_output@@IAE_NXZ 00423f38 f i libucrt:output.obj
 0001:00022f4d       ?advance_to_next_pass@?$standard_base@DV?$string_output_adapter@D@__crt_stdio_output@@@__crt_stdio_output@@IAE_NXZ 00423f4d f i libucrt:output.obj
 0001:00022f62       ?advance_to_next_pass@?$standard_base@_WV?$stream_output_adapter@_W@__crt_stdio_output@@@__crt_stdio_output@@IAE_NXZ 00423f62 f i libucrt:output.obj
 0001:00022f77       ?advance_to_next_pass@?$standard_base@_WV?$string_output_adapter@_W@__crt_stdio_output@@@__crt_stdio_output@@IAE_NXZ 00423f77 f i libucrt:output.obj
 0001:00022f8c       ?check@?$cached@H@__crt_cached_ptd_host@@QBE_NH@Z 00423f8c f i libucrt:output.obj
 0001:00022fb0       ?check_synchronize_global_state_index@__crt_cached_ptd_host@@AAEIABV__crt_scoped_get_last_error_reset@@@Z 00423fb0 f i libucrt:output.obj
 0001:00022fe0       ?check_synchronize_per_thread_data@__crt_cached_ptd_host@@AAEPAU__acrt_ptd@@XZ 00423fe0 f i libucrt:output.obj
 0001:00023053       ?create_guard@?$cached@H@__crt_cached_ptd_host@@QAE?AVguard@12@XZ 00424053 f i libucrt:output.obj
 0001:00023077       ?crop_zeroes@__crt_stdio_output@@YAXPADQAU__crt_locale_pointers@@@Z 00424077 f i libucrt:output.obj
 0001:000230ef       ?disable@guard@?$cached@H@__crt_cached_ptd_host@@QAEXXZ 004240ef f i libucrt:output.obj
 0001:000230f4       ?enable@guard@?$cached@H@__crt_cached_ptd_host@@QAEXXZ 004240f4 f i libucrt:output.obj
 0001:000230f9       ?find_next_state@?$output_processor@DV?$stream_output_adapter@D@__crt_stdio_output@@V?$format_validation_base@DV?$stream_output_adapter@D@__crt_stdio_output@@@2@@__crt_stdio_output@@ABE?AW4state@2@DW432@@Z 004240f9 f i libucrt:output.obj
 0001:00023145       ?find_next_state@?$output_processor@DV?$stream_output_adapter@D@__crt_stdio_output@@V?$positional_parameter_base@DV?$stream_output_adapter@D@__crt_stdio_output@@@2@@__crt_stdio_output@@ABE?AW4state@2@DW432@@Z 00424145 f i libucrt:output.obj
 0001:00023191       ?find_next_state@?$output_processor@DV?$stream_output_adapter@D@__crt_stdio_output@@V?$standard_base@DV?$stream_output_adapter@D@__crt_stdio_output@@@2@@__crt_stdio_output@@ABE?AW4state@2@DW432@@Z 00424191 f i libucrt:output.obj
 0001:000231da       ?find_next_state@?$output_processor@DV?$string_output_adapter@D@__crt_stdio_output@@V?$format_validation_base@DV?$string_output_adapter@D@__crt_stdio_output@@@2@@__crt_stdio_output@@ABE?AW4state@2@DW432@@Z 004241da f i libucrt:output.obj
 0001:00023226       ?find_next_state@?$output_processor@DV?$string_output_adapter@D@__crt_stdio_output@@V?$positional_parameter_base@DV?$string_output_adapter@D@__crt_stdio_output@@@2@@__crt_stdio_output@@ABE?AW4state@2@DW432@@Z 00424226 f i libucrt:output.obj
 0001:00023272       ?find_next_state@?$output_processor@DV?$string_output_adapter@D@__crt_stdio_output@@V?$standard_base@DV?$string_output_adapter@D@__crt_stdio_output@@@2@@__crt_stdio_output@@ABE?AW4state@2@DW432@@Z 00424272 f i libucrt:output.obj
 0001:000232bb       ?find_next_state@?$output_processor@_WV?$stream_output_adapter@_W@__crt_stdio_output@@V?$format_validation_base@_WV?$stream_output_adapter@_W@__crt_stdio_output@@@2@@__crt_stdio_output@@ABE?AW4state@2@_WW432@@Z 004242bb f i libucrt:output.obj
 0001:00023306       ?find_next_state@?$output_processor@_WV?$stream_output_adapter@_W@__crt_stdio_output@@V?$positional_parameter_base@_WV?$stream_output_adapter@_W@__crt_stdio_output@@@2@@__crt_stdio_output@@ABE?AW4state@2@_WW432@@Z 00424306 f i libucrt:output.obj
 0001:00023351       ?find_next_state@?$output_processor@_WV?$stream_output_adapter@_W@__crt_stdio_output@@V?$standard_base@_WV?$stream_output_adapter@_W@__crt_stdio_output@@@2@@__crt_stdio_output@@ABE?AW4state@2@_WW432@@Z 00424351 f i libucrt:output.obj
 0001:00023399       ?find_next_state@?$output_processor@_WV?$string_output_adapter@_W@__crt_stdio_output@@V?$format_validation_base@_WV?$string_output_adapter@_W@__crt_stdio_output@@@2@@__crt_stdio_output@@ABE?AW4state@2@_WW432@@Z 00424399 f i libucrt:output.obj
 0001:000233e4       ?find_next_state@?$output_processor@_WV?$string_output_adapter@_W@__crt_stdio_output@@V?$positional_parameter_base@_WV?$string_output_adapter@_W@__crt_stdio_output@@@2@@__crt_stdio_output@@ABE?AW4state@2@_WW432@@Z 004243e4 f i libucrt:output.obj
 0001:0002342f       ?find_next_state@?$output_processor@_WV?$string_output_adapter@_W@__crt_stdio_output@@V?$standard_base@_WV?$string_output_adapter@_W@__crt_stdio_output@@@2@@__crt_stdio_output@@ABE?AW4state@2@_WW432@@Z 0042442f f i libucrt:output.obj
 0001:00023477       ?force_decimal_point@__crt_stdio_output@@YAXPADQAU__crt_locale_pointers@@@Z 00424477 f i libucrt:output.obj
 0001:000234f0       ?force_synchronize_global_state_index@__crt_cached_ptd_host@@AAEIABV__crt_scoped_get_last_error_reset@@@Z 004244f0 f i libucrt:output.obj
 0001:00023510       ?force_synchronize_per_thread_data@__crt_cached_ptd_host@@AAEPAU__acrt_ptd@@XZ 00424510 f i libucrt:output.obj
 0001:00023570       ?get@?$c_string_character_source@D@__crt_strtox@@QAEDXZ 00424570 f i libucrt:output.obj
 0001:0002357a       ?get@?$c_string_character_source@_W@__crt_strtox@@QAE_WXZ 0042457a f i libucrt:output.obj
 0001:00023587       ?get_current_state_index@__crt_state_management@@YAIABV__crt_scoped_get_last_error_reset@@@Z 00424587 f i libucrt:output.obj
 0001:00023590       ?get_errno@__crt_cached_ptd_host@@QAEAAU?$cached@H@1@XZ 00424590 f i libucrt:output.obj
 0001:000235a0       ?get_locale@__crt_cached_ptd_host@@QAEPAU__crt_locale_pointers@@XZ 004245a0 f i libucrt:output.obj
 0001:000235ba       ?get_parameter_type@?$positional_parameter_base@DV?$stream_output_adapter@D@__crt_stdio_output@@@__crt_stdio_output@@CA?AW4parameter_type@12@F@Z 004245ba f i libucrt:output.obj
 0001:000235be       ?get_parameter_type@?$positional_parameter_base@DV?$stream_output_adapter@D@__crt_stdio_output@@@__crt_stdio_output@@CA?AW4parameter_type@12@G@Z 004245be f i libucrt:output.obj
 0001:000235c2       ?get_parameter_type@?$positional_parameter_base@DV?$stream_output_adapter@D@__crt_stdio_output@@@__crt_stdio_output@@CA?AW4parameter_type@12@H@Z 004245c2 f i libucrt:output.obj
 0001:000235c6       ?get_parameter_type@?$positional_parameter_base@DV?$stream_output_adapter@D@__crt_stdio_output@@@__crt_stdio_output@@CA?AW4parameter_type@12@I@Z 004245c6 f i libucrt:output.obj
 0001:000235ca       ?get_parameter_type@?$positional_parameter_base@DV?$stream_output_adapter@D@__crt_stdio_output@@@__crt_stdio_output@@CA?AW4parameter_type@12@U_CRT_DOUBLE@@@Z 004245ca f i libucrt:output.obj
 0001:000235ce       ?get_parameter_type@?$positional_parameter_base@DV?$stream_output_adapter@D@__crt_stdio_output@@@__crt_stdio_output@@CA?AW4parameter_type@12@_J@Z 004245ce f i libucrt:output.obj
 0001:000235d2       ?get_parameter_type@?$positional_parameter_base@DV?$stream_output_adapter@D@__crt_stdio_output@@@__crt_stdio_output@@CA?AW4parameter_type@12@_K@Z 004245d2 f i libucrt:output.obj
 0001:000235d6       ?get_parameter_type@?$positional_parameter_base@DV?$stream_output_adapter@D@__crt_stdio_output@@@__crt_stdio_output@@CA?AW4parameter_type@12@_W@Z 004245d6 f i libucrt:output.obj
 0001:000235da       ?get_parameter_type@?$positional_parameter_base@DV?$string_output_adapter@D@__crt_stdio_output@@@__crt_stdio_output@@CA?AW4parameter_type@12@F@Z 004245da f i libucrt:output.obj
 0001:000235de       ?get_parameter_type@?$positional_parameter_base@DV?$string_output_adapter@D@__crt_stdio_output@@@__crt_stdio_output@@CA?AW4parameter_type@12@G@Z 004245de f i libucrt:output.obj
 0001:000235e2       ?get_parameter_type@?$positional_parameter_base@DV?$string_output_adapter@D@__crt_stdio_output@@@__crt_stdio_output@@CA?AW4parameter_type@12@H@Z 004245e2 f i libucrt:output.obj
 0001:000235e6       ?get_parameter_type@?$positional_parameter_base@DV?$string_output_adapter@D@__crt_stdio_output@@@__crt_stdio_output@@CA?AW4parameter_type@12@I@Z 004245e6 f i libucrt:output.obj
 0001:000235ea       ?get_parameter_type@?$positional_parameter_base@DV?$string_output_adapter@D@__crt_stdio_output@@@__crt_stdio_output@@CA?AW4parameter_type@12@U_CRT_DOUBLE@@@Z 004245ea f i libucrt:output.obj
 0001:000235ee       ?get_parameter_type@?$positional_parameter_base@DV?$string_output_adapter@D@__crt_stdio_output@@@__crt_stdio_output@@CA?AW4parameter_type@12@_J@Z 004245ee f i libucrt:output.obj
 0001:000235f2       ?get_parameter_type@?$positional_parameter_base@DV?$string_output_adapter@D@__crt_stdio_output@@@__crt_stdio_output@@CA?AW4parameter_type@12@_K@Z 004245f2 f i libucrt:output.obj
 0001:000235f6       ?get_parameter_type@?$positional_parameter_base@DV?$string_output_adapter@D@__crt_stdio_output@@@__crt_stdio_output@@CA?AW4parameter_type@12@_W@Z 004245f6 f i libucrt:output.obj
 0001:000235fa       ?get_parameter_type@?$positional_parameter_base@_WV?$stream_output_adapter@_W@__crt_stdio_output@@@__crt_stdio_output@@CA?AW4parameter_type@12@F@Z 004245fa f i libucrt:output.obj
 0001:000235fe       ?get_parameter_type@?$positional_parameter_base@_WV?$stream_output_adapter@_W@__crt_stdio_output@@@__crt_stdio_output@@CA?AW4parameter_type@12@G@Z 004245fe f i libucrt:output.obj
 0001:00023602       ?get_parameter_type@?$positional_parameter_base@_WV?$stream_output_adapter@_W@__crt_stdio_output@@@__crt_stdio_output@@CA?AW4parameter_type@12@H@Z 00424602 f i libucrt:output.obj
 0001:00023606       ?get_parameter_type@?$positional_parameter_base@_WV?$stream_output_adapter@_W@__crt_stdio_output@@@__crt_stdio_output@@CA?AW4parameter_type@12@I@Z 00424606 f i libucrt:output.obj
 0001:0002360a       ?get_parameter_type@?$positional_parameter_base@_WV?$stream_output_adapter@_W@__crt_stdio_output@@@__crt_stdio_output@@CA?AW4parameter_type@12@U_CRT_DOUBLE@@@Z 0042460a f i libucrt:output.obj
 0001:0002360e       ?get_parameter_type@?$positional_parameter_base@_WV?$stream_output_adapter@_W@__crt_stdio_output@@@__crt_stdio_output@@CA?AW4parameter_type@12@_J@Z 0042460e f i libucrt:output.obj
 0001:00023612       ?get_parameter_type@?$positional_parameter_base@_WV?$stream_output_adapter@_W@__crt_stdio_output@@@__crt_stdio_output@@CA?AW4parameter_type@12@_K@Z 00424612 f i libucrt:output.obj
 0001:00023616       ?get_parameter_type@?$positional_parameter_base@_WV?$stream_output_adapter@_W@__crt_stdio_output@@@__crt_stdio_output@@CA?AW4parameter_type@12@_W@Z 00424616 f i libucrt:output.obj
 0001:0002361a       ?get_parameter_type@?$positional_parameter_base@_WV?$string_output_adapter@_W@__crt_stdio_output@@@__crt_stdio_output@@CA?AW4parameter_type@12@F@Z 0042461a f i libucrt:output.obj
 0001:0002361e       ?get_parameter_type@?$positional_parameter_base@_WV?$string_output_adapter@_W@__crt_stdio_output@@@__crt_stdio_output@@CA?AW4parameter_type@12@G@Z 0042461e f i libucrt:output.obj
 0001:00023622       ?get_parameter_type@?$positional_parameter_base@_WV?$string_output_adapter@_W@__crt_stdio_output@@@__crt_stdio_output@@CA?AW4parameter_type@12@H@Z 00424622 f i libucrt:output.obj
 0001:00023626       ?get_parameter_type@?$positional_parameter_base@_WV?$string_output_adapter@_W@__crt_stdio_output@@@__crt_stdio_output@@CA?AW4parameter_type@12@I@Z 00424626 f i libucrt:output.obj
 0001:0002362a       ?get_parameter_type@?$positional_parameter_base@_WV?$string_output_adapter@_W@__crt_stdio_output@@@__crt_stdio_output@@CA?AW4parameter_type@12@U_CRT_DOUBLE@@@Z 0042462a f i libucrt:output.obj
 0001:0002362e       ?get_parameter_type@?$positional_parameter_base@_WV?$string_output_adapter@_W@__crt_stdio_output@@@__crt_stdio_output@@CA?AW4parameter_type@12@_J@Z 0042462e f i libucrt:output.obj
 0001:00023632       ?get_parameter_type@?$positional_parameter_base@_WV?$string_output_adapter@_W@__crt_stdio_output@@@__crt_stdio_output@@CA?AW4parameter_type@12@_K@Z 00424632 f i libucrt:output.obj
 0001:00023636       ?get_parameter_type@?$positional_parameter_base@_WV?$string_output_adapter@_W@__crt_stdio_output@@@__crt_stdio_output@@CA?AW4parameter_type@12@_W@Z 00424636 f i libucrt:output.obj
 0001:00023640       ?get_raw_ptd@__crt_cached_ptd_host@@QAEPAU__acrt_ptd@@XZ 00424640 f i libucrt:output.obj
 0001:000236b3       ?has_flag@?$output_processor@DV?$stream_output_adapter@D@__crt_stdio_output@@V?$format_validation_base@DV?$stream_output_adapter@D@__crt_stdio_output@@@2@@__crt_stdio_output@@ABE_NI@Z 004246b3 f i libucrt:output.obj
 0001:000236c9       ?has_flag@?$output_processor@DV?$stream_output_adapter@D@__crt_stdio_output@@V?$positional_parameter_base@DV?$stream_output_adapter@D@__crt_stdio_output@@@2@@__crt_stdio_output@@ABE_NI@Z 004246c9 f i libucrt:output.obj
 0001:000236df       ?has_flag@?$output_processor@DV?$stream_output_adapter@D@__crt_stdio_output@@V?$standard_base@DV?$stream_output_adapter@D@__crt_stdio_output@@@2@@__crt_stdio_output@@ABE_NI@Z 004246df f i libucrt:output.obj
 0001:000236f5       ?has_flag@?$output_processor@DV?$string_output_adapter@D@__crt_stdio_output@@V?$format_validation_base@DV?$string_output_adapter@D@__crt_stdio_output@@@2@@__crt_stdio_output@@ABE_NI@Z 004246f5 f i libucrt:output.obj
 0001:0002370b       ?has_flag@?$output_processor@DV?$string_output_adapter@D@__crt_stdio_output@@V?$positional_parameter_base@DV?$string_output_adapter@D@__crt_stdio_output@@@2@@__crt_stdio_output@@ABE_NI@Z 0042470b f i libucrt:output.obj
 0001:00023721       ?has_flag@?$output_processor@DV?$string_output_adapter@D@__crt_stdio_output@@V?$standard_base@DV?$string_output_adapter@D@__crt_stdio_output@@@2@@__crt_stdio_output@@ABE_NI@Z 00424721 f i libucrt:output.obj
 0001:00023737       ?has_flag@?$output_processor@_WV?$stream_output_adapter@_W@__crt_stdio_output@@V?$format_validation_base@_WV?$stream_output_adapter@_W@__crt_stdio_output@@@2@@__crt_stdio_output@@ABE_NI@Z 00424737 f i libucrt:output.obj
 0001:0002374d       ?has_flag@?$output_processor@_WV?$stream_output_adapter@_W@__crt_stdio_output@@V?$positional_parameter_base@_WV?$stream_output_adapter@_W@__crt_stdio_output@@@2@@__crt_stdio_output@@ABE_NI@Z 0042474d f i libucrt:output.obj
 0001:00023763       ?has_flag@?$output_processor@_WV?$stream_output_adapter@_W@__crt_stdio_output@@V?$standard_base@_WV?$stream_output_adapter@_W@__crt_stdio_output@@@2@@__crt_stdio_output@@ABE_NI@Z 00424763 f i libucrt:output.obj
 0001:00023779       ?has_flag@?$output_processor@_WV?$string_output_adapter@_W@__crt_stdio_output@@V?$format_validation_base@_WV?$string_output_adapter@_W@__crt_stdio_output@@@2@@__crt_stdio_output@@ABE_NI@Z 00424779 f i libucrt:output.obj
 0001:0002378f       ?has_flag@?$output_processor@_WV?$string_output_adapter@_W@__crt_stdio_output@@V?$positional_parameter_base@_WV?$string_output_adapter@_W@__crt_stdio_output@@@2@@__crt_stdio_output@@ABE_NI@Z 0042478f f i libucrt:output.obj
 0001:000237a5       ?has_flag@?$output_processor@_WV?$string_output_adapter@_W@__crt_stdio_output@@V?$standard_base@_WV?$string_output_adapter@_W@__crt_stdio_output@@@2@@__crt_stdio_output@@ABE_NI@Z 004247a5 f i libucrt:output.obj
 0001:000237bb       ?is_positional_parameter_reappearance_consistent@?$positional_parameter_base@DV?$stream_output_adapter@D@__crt_stdio_output@@@__crt_stdio_output@@AAE_NABUparameter_data@12@W4parameter_type@12@DW4length_modifier@2@@Z 004247bb f i libucrt:output.obj
 0001:0002391b       ?is_positional_parameter_reappearance_consistent@?$positional_parameter_base@DV?$string_output_adapter@D@__crt_stdio_output@@@__crt_stdio_output@@AAE_NABUparameter_data@12@W4parameter_type@12@DW4length_modifier@2@@Z 0042491b f i libucrt:output.obj
 0001:00023a7b       ?is_positional_parameter_reappearance_consistent@?$positional_parameter_base@_WV?$stream_output_adapter@_W@__crt_stdio_output@@@__crt_stdio_output@@AAE_NABUparameter_data@12@W4parameter_type@12@_WW4length_modifier@2@@Z 00424a7b f i libucrt:output.obj
 0001:00023bdc       ?is_positional_parameter_reappearance_consistent@?$positional_parameter_base@_WV?$string_output_adapter@_W@__crt_stdio_output@@@__crt_stdio_output@@AAE_NABUparameter_data@12@W4parameter_type@12@_WW4length_modifier@2@@Z 00424bdc f i libucrt:output.obj
 0001:00023d3d       ?maximum_signed_value@__crt_strtox@@YAJK@Z 00424d3d f i libucrt:output.obj
 0001:00023d43       ?minimum_signed_value@__crt_strtox@@YAJK@Z 00424d43 f i libucrt:output.obj
 0001:00023d49       ?narrow_null_string@?$output_processor@DV?$stream_output_adapter@D@__crt_stdio_output@@V?$format_validation_base@DV?$stream_output_adapter@D@__crt_stdio_output@@@2@@__crt_stdio_output@@CAPADXZ 00424d49 f i libucrt:output.obj
 0001:00023d4f       ?narrow_null_string@?$output_processor@DV?$stream_output_adapter@D@__crt_stdio_output@@V?$positional_parameter_base@DV?$stream_output_adapter@D@__crt_stdio_output@@@2@@__crt_stdio_output@@CAPADXZ 00424d4f f i libucrt:output.obj
 0001:00023d55       ?narrow_null_string@?$output_processor@DV?$stream_output_adapter@D@__crt_stdio_output@@V?$standard_base@DV?$stream_output_adapter@D@__crt_stdio_output@@@2@@__crt_stdio_output@@CAPADXZ 00424d55 f i libucrt:output.obj
 0001:00023d5b       ?narrow_null_string@?$output_processor@DV?$string_output_adapter@D@__crt_stdio_output@@V?$format_validation_base@DV?$string_output_adapter@D@__crt_stdio_output@@@2@@__crt_stdio_output@@CAPADXZ 00424d5b f i libucrt:output.obj
 0001:00023d61       ?narrow_null_string@?$output_processor@DV?$string_output_adapter@D@__crt_stdio_output@@V?$positional_parameter_base@DV?$string_output_adapter@D@__crt_stdio_output@@@2@@__crt_stdio_output@@CAPADXZ 00424d61 f i libucrt:output.obj
 0001:00023d67       ?narrow_null_string@?$output_processor@DV?$string_output_adapter@D@__crt_stdio_output@@V?$standard_base@DV?$string_output_adapter@D@__crt_stdio_output@@@2@@__crt_stdio_output@@CAPADXZ 00424d67 f i libucrt:output.obj
 0001:00023d6d       ?narrow_null_string@?$output_processor@_WV?$stream_output_adapter@_W@__crt_stdio_output@@V?$format_validation_base@_WV?$stream_output_adapter@_W@__crt_stdio_output@@@2@@__crt_stdio_output@@CAPADXZ 00424d6d f i libucrt:output.obj
 0001:00023d73       ?narrow_null_string@?$output_processor@_WV?$stream_output_adapter@_W@__crt_stdio_output@@V?$positional_parameter_base@_WV?$stream_output_adapter@_W@__crt_stdio_output@@@2@@__crt_stdio_output@@CAPADXZ 00424d73 f i libucrt:output.obj
 0001:00023d79       ?narrow_null_string@?$output_processor@_WV?$stream_output_adapter@_W@__crt_stdio_output@@V?$standard_base@_WV?$stream_output_adapter@_W@__crt_stdio_output@@@2@@__crt_stdio_output@@CAPADXZ 00424d79 f i libucrt:output.obj
 0001:00023d7f       ?narrow_null_string@?$output_processor@_WV?$string_output_adapter@_W@__crt_stdio_output@@V?$format_validation_base@_WV?$string_output_adapter@_W@__crt_stdio_output@@@2@@__crt_stdio_output@@CAPADXZ 00424d7f f i libucrt:output.obj
 0001:00023d85       ?narrow_null_string@?$output_processor@_WV?$string_output_adapter@_W@__crt_stdio_output@@V?$positional_parameter_base@_WV?$string_output_adapter@_W@__crt_stdio_output@@@2@@__crt_stdio_output@@CAPADXZ 00424d85 f i libucrt:output.obj
 0001:00023d8b       ?narrow_null_string@?$output_processor@_WV?$string_output_adapter@_W@__crt_stdio_output@@V?$standard_base@_WV?$string_output_adapter@_W@__crt_stdio_output@@@2@@__crt_stdio_output@@CAPADXZ 00424d8b f i libucrt:output.obj
 0001:00023d91       ?parse_digit@__crt_strtox@@YAID@Z 00424d91 f i libucrt:output.obj
 0001:00023dd9       ?parse_digit@__crt_strtox@@YAI_W@Z 00424dd9 f i libucrt:output.obj
 0001:00024013       ?parse_int_from_format_string@?$output_processor@DV?$stream_output_adapter@D@__crt_stdio_output@@V?$format_validation_base@DV?$stream_output_adapter@D@__crt_stdio_output@@@2@@__crt_stdio_output@@AAE_NQAH@Z 00425013 f i libucrt:output.obj
 0001:000240a9       ?parse_int_from_format_string@?$output_processor@DV?$stream_output_adapter@D@__crt_stdio_output@@V?$positional_parameter_base@DV?$stream_output_adapter@D@__crt_stdio_output@@@2@@__crt_stdio_output@@AAE_NQAH@Z 004250a9 f i libucrt:output.obj
 0001:0002413f       ?parse_int_from_format_string@?$output_processor@DV?$stream_output_adapter@D@__crt_stdio_output@@V?$standard_base@DV?$stream_output_adapter@D@__crt_stdio_output@@@2@@__crt_stdio_output@@AAE_NQAH@Z 0042513f f i libucrt:output.obj
 0001:000241d5       ?parse_int_from_format_string@?$output_processor@DV?$string_output_adapter@D@__crt_stdio_output@@V?$format_validation_base@DV?$string_output_adapter@D@__crt_stdio_output@@@2@@__crt_stdio_output@@AAE_NQAH@Z 004251d5 f i libucrt:output.obj
 0001:0002426b       ?parse_int_from_format_string@?$output_processor@DV?$string_output_adapter@D@__crt_stdio_output@@V?$positional_parameter_base@DV?$string_output_adapter@D@__crt_stdio_output@@@2@@__crt_stdio_output@@AAE_NQAH@Z 0042526b f i libucrt:output.obj
 0001:00024301       ?parse_int_from_format_string@?$output_processor@DV?$string_output_adapter@D@__crt_stdio_output@@V?$standard_base@DV?$string_output_adapter@D@__crt_stdio_output@@@2@@__crt_stdio_output@@AAE_NQAH@Z 00425301 f i libucrt:output.obj
 0001:00024397       ?parse_int_from_format_string@?$output_processor@_WV?$stream_output_adapter@_W@__crt_stdio_output@@V?$format_validation_base@_WV?$stream_output_adapter@_W@__crt_stdio_output@@@2@@__crt_stdio_output@@AAE_NQAH@Z 00425397 f i libucrt:output.obj
 0001:0002442f       ?parse_int_from_format_string@?$output_processor@_WV?$stream_output_adapter@_W@__crt_stdio_output@@V?$positional_parameter_base@_WV?$stream_output_adapter@_W@__crt_stdio_output@@@2@@__crt_stdio_output@@AAE_NQAH@Z 0042542f f i libucrt:output.obj
 0001:000244c7       ?parse_int_from_format_string@?$output_processor@_WV?$stream_output_adapter@_W@__crt_stdio_output@@V?$standard_base@_WV?$stream_output_adapter@_W@__crt_stdio_output@@@2@@__crt_stdio_output@@AAE_NQAH@Z 004254c7 f i libucrt:output.obj
 0001:0002455f       ?parse_int_from_format_string@?$output_processor@_WV?$string_output_adapter@_W@__crt_stdio_output@@V?$format_validation_base@_WV?$string_output_adapter@_W@__crt_stdio_output@@@2@@__crt_stdio_output@@AAE_NQAH@Z 0042555f f i libucrt:output.obj
 0001:000245f7       ?parse_int_from_format_string@?$output_processor@_WV?$string_output_adapter@_W@__crt_stdio_output@@V?$positional_parameter_base@_WV?$string_output_adapter@_W@__crt_stdio_output@@@2@@__crt_stdio_output@@AAE_NQAH@Z 004255f7 f i libucrt:output.obj
 0001:0002468f       ?parse_int_from_format_string@?$output_processor@_WV?$string_output_adapter@_W@__crt_stdio_output@@V?$standard_base@_WV?$string_output_adapter@_W@__crt_stdio_output@@@2@@__crt_stdio_output@@AAE_NQAH@Z 0042568f f i libucrt:output.obj
 0001:00024727       ?process@?$output_processor@DV?$stream_output_adapter@D@__crt_stdio_output@@V?$format_validation_base@DV?$stream_output_adapter@D@__crt_stdio_output@@@2@@__crt_stdio_output@@QAEHXZ 00425727 f i libucrt:output.obj
 0001:00024a8d       ?process@?$output_processor@DV?$stream_output_adapter@D@__crt_stdio_output@@V?$positional_parameter_base@DV?$stream_output_adapter@D@__crt_stdio_output@@@2@@__crt_stdio_output@@QAEHXZ 00425a8d f i libucrt:output.obj
 0001:00024e16       ?process@?$output_processor@DV?$stream_output_adapter@D@__crt_stdio_output@@V?$standard_base@DV?$stream_output_adapter@D@__crt_stdio_output@@@2@@__crt_stdio_output@@QAEHXZ 00425e16 f i libucrt:output.obj
 0001:0002516d       ?process@?$output_processor@DV?$string_output_adapter@D@__crt_stdio_output@@V?$format_validation_base@DV?$string_output_adapter@D@__crt_stdio_output@@@2@@__crt_stdio_output@@QAEHXZ 0042616d f i libucrt:output.obj
 0001:00025505       ?process@?$output_processor@DV?$string_output_adapter@D@__crt_stdio_output@@V?$positional_parameter_base@DV?$string_output_adapter@D@__crt_stdio_output@@@2@@__crt_stdio_output@@QAEHXZ 00426505 f i libucrt:output.obj
 0001:000258c5       ?process@?$output_processor@DV?$string_output_adapter@D@__crt_stdio_output@@V?$standard_base@DV?$string_output_adapter@D@__crt_stdio_output@@@2@@__crt_stdio_output@@QAEHXZ 004268c5 f i libucrt:output.obj
 0001:00025c4e       ?process@?$output_processor@_WV?$stream_output_adapter@_W@__crt_stdio_output@@V?$format_validation_base@_WV?$stream_output_adapter@_W@__crt_stdio_output@@@2@@__crt_stdio_output@@QAEHXZ 00426c4e f i libucrt:output.obj
 0001:00025ef1       ?process@?$output_processor@_WV?$stream_output_adapter@_W@__crt_stdio_output@@V?$positional_parameter_base@_WV?$stream_output_adapter@_W@__crt_stdio_output@@@2@@__crt_stdio_output@@QAEHXZ 00426ef1 f i libucrt:output.obj
 0001:000261da       ?process@?$output_processor@_WV?$stream_output_adapter@_W@__crt_stdio_output@@V?$standard_base@_WV?$stream_output_adapter@_W@__crt_stdio_output@@@2@@__crt_stdio_output@@QAEHXZ 004271da f i libucrt:output.obj
 0001:0002646e       ?process@?$output_processor@_WV?$string_output_adapter@_W@__crt_stdio_output@@V?$format_validation_base@_WV?$string_output_adapter@_W@__crt_stdio_output@@@2@@__crt_stdio_output@@QAEHXZ 0042746e f i libucrt:output.obj
 0001:00026752       ?process@?$output_processor@_WV?$string_output_adapter@_W@__crt_stdio_output@@V?$positional_parameter_base@_WV?$string_output_adapter@_W@__crt_stdio_output@@@2@@__crt_stdio_output@@QAEHXZ 00427752 f i libucrt:output.obj
 0001:00026a54       ?process@?$output_processor@_WV?$string_output_adapter@_W@__crt_stdio_output@@V?$standard_base@_WV?$string_output_adapter@_W@__crt_stdio_output@@@2@@__crt_stdio_output@@QAEHXZ 00427a54 f i libucrt:output.obj
 0001:00026d24       ?restore_state@?$c_string_character_source@D@__crt_strtox@@QAE_NQBD@Z 00427d24 f i libucrt:output.obj
 0001:00026d38       ?restore_state@?$c_string_character_source@_W@__crt_strtox@@QAE_NQB_W@Z 00427d38 f i libucrt:output.obj
 0001:00026d4c       ?save_state@?$c_string_character_source@D@__crt_strtox@@QBEPBDXZ 00427d4c f i libucrt:output.obj
 0001:00026d4f       ?save_state@?$c_string_character_source@_W@__crt_strtox@@QBEPB_WXZ 00427d4f f i libucrt:output.obj
 0001:00026d52       ?set@?$cached@H@__crt_cached_ptd_host@@QAEHH@Z 00427d52 f i libucrt:output.obj
 0001:00026d68       ?set_flag@?$output_processor@DV?$stream_output_adapter@D@__crt_stdio_output@@V?$format_validation_base@DV?$stream_output_adapter@D@__crt_stdio_output@@@2@@__crt_stdio_output@@AAEXI@Z 00427d68 f i libucrt:output.obj
 0001:00026d7a       ?set_flag@?$output_processor@DV?$stream_output_adapter@D@__crt_stdio_output@@V?$positional_parameter_base@DV?$stream_output_adapter@D@__crt_stdio_output@@@2@@__crt_stdio_output@@AAEXI@Z 00427d7a f i libucrt:output.obj
 0001:00026d8c       ?set_flag@?$output_processor@DV?$stream_output_adapter@D@__crt_stdio_output@@V?$standard_base@DV?$stream_output_adapter@D@__crt_stdio_output@@@2@@__crt_stdio_output@@AAEXI@Z 00427d8c f i libucrt:output.obj
 0001:00026d9e       ?set_flag@?$output_processor@DV?$string_output_adapter@D@__crt_stdio_output@@V?$format_validation_base@DV?$string_output_adapter@D@__crt_stdio_output@@@2@@__crt_stdio_output@@AAEXI@Z 00427d9e f i libucrt:output.obj
 0001:00026db0       ?set_flag@?$output_processor@DV?$string_output_adapter@D@__crt_stdio_output@@V?$positional_parameter_base@DV?$string_output_adapter@D@__crt_stdio_output@@@2@@__crt_stdio_output@@AAEXI@Z 00427db0 f i libucrt:output.obj
 0001:00026dc2       ?set_flag@?$output_processor@DV?$string_output_adapter@D@__crt_stdio_output@@V?$standard_base@DV?$string_output_adapter@D@__crt_stdio_output@@@2@@__crt_stdio_output@@AAEXI@Z 00427dc2 f i libucrt:output.obj
 0001:00026dd4       ?set_flag@?$output_processor@_WV?$stream_output_adapter@_W@__crt_stdio_output@@V?$format_validation_base@_WV?$stream_output_adapter@_W@__crt_stdio_output@@@2@@__crt_stdio_output@@AAEXI@Z 00427dd4 f i libucrt:output.obj
 0001:00026de6       ?set_flag@?$output_processor@_WV?$stream_output_adapter@_W@__crt_stdio_output@@V?$positional_parameter_base@_WV?$stream_output_adapter@_W@__crt_stdio_output@@@2@@__crt_stdio_output@@AAEXI@Z 00427de6 f i libucrt:output.obj
 0001:00026df8       ?set_flag@?$output_processor@_WV?$stream_output_adapter@_W@__crt_stdio_output@@V?$standard_base@_WV?$stream_output_adapter@_W@__crt_stdio_output@@@2@@__crt_stdio_output@@AAEXI@Z 00427df8 f i libucrt:output.obj
 0001:00026e0a       ?set_flag@?$output_processor@_WV?$string_output_adapter@_W@__crt_stdio_output@@V?$format_validation_base@_WV?$string_output_adapter@_W@__crt_stdio_output@@@2@@__crt_stdio_output@@AAEXI@Z 00427e0a f i libucrt:output.obj
 0001:00026e1c       ?set_flag@?$output_processor@_WV?$string_output_adapter@_W@__crt_stdio_output@@V?$positional_parameter_base@_WV?$string_output_adapter@_W@__crt_stdio_output@@@2@@__crt_stdio_output@@AAEXI@Z 00427e1c f i libucrt:output.obj
 0001:00026e2e       ?set_flag@?$output_processor@_WV?$string_output_adapter@_W@__crt_stdio_output@@V?$standard_base@_WV?$string_output_adapter@_W@__crt_stdio_output@@@2@@__crt_stdio_output@@AAEXI@Z 00427e2e f i libucrt:output.obj
 0001:00026e40       ?should_format@?$positional_parameter_base@DV?$stream_output_adapter@D@__crt_stdio_output@@@__crt_stdio_output@@IAE_NXZ 00427e40 f i libucrt:output.obj
 0001:00026e5b       ?should_format@?$positional_parameter_base@DV?$string_output_adapter@D@__crt_stdio_output@@@__crt_stdio_output@@IAE_NXZ 00427e5b f i libucrt:output.obj
 0001:00026e76       ?should_format@?$positional_parameter_base@_WV?$stream_output_adapter@_W@__crt_stdio_output@@@__crt_stdio_output@@IAE_NXZ 00427e76 f i libucrt:output.obj
 0001:00026e91       ?should_format@?$positional_parameter_base@_WV?$string_output_adapter@_W@__crt_stdio_output@@@__crt_stdio_output@@IAE_NXZ 00427e91 f i libucrt:output.obj
 0001:00026eac       ?should_format@?$standard_base@DV?$stream_output_adapter@D@__crt_stdio_output@@@__crt_stdio_output@@IAE_NXZ 00427eac f i libucrt:output.obj
 0001:00026eaf       ?should_format@?$standard_base@DV?$string_output_adapter@D@__crt_stdio_output@@@__crt_stdio_output@@IAE_NXZ 00427eaf f i libucrt:output.obj
 0001:00026eb2       ?should_format@?$standard_base@_WV?$stream_output_adapter@_W@__crt_stdio_output@@@__crt_stdio_output@@IAE_NXZ 00427eb2 f i libucrt:output.obj
 0001:00026eb5       ?should_format@?$standard_base@_WV?$string_output_adapter@_W@__crt_stdio_output@@@__crt_stdio_output@@IAE_NXZ 00427eb5 f i libucrt:output.obj
 0001:00026eb8       ?should_skip_normal_state_processing@?$positional_parameter_base@DV?$stream_output_adapter@D@__crt_stdio_output@@@__crt_stdio_output@@IAE_NXZ 00427eb8 f i libucrt:output.obj
 0001:00026eea       ?should_skip_normal_state_processing@?$positional_parameter_base@DV?$string_output_adapter@D@__crt_stdio_output@@@__crt_stdio_output@@IAE_NXZ 00427eea f i libucrt:output.obj
 0001:00026f1c       ?should_skip_normal_state_processing@?$positional_parameter_base@_WV?$stream_output_adapter@_W@__crt_stdio_output@@@__crt_stdio_output@@IAE_NXZ 00427f1c f i libucrt:output.obj
 0001:00026f4e       ?should_skip_normal_state_processing@?$positional_parameter_base@_WV?$string_output_adapter@_W@__crt_stdio_output@@@__crt_stdio_output@@IAE_NXZ 00427f4e f i libucrt:output.obj
 0001:00026f80       ?should_skip_normal_state_processing@?$standard_base@DV?$stream_output_adapter@D@__crt_stdio_output@@@__crt_stdio_output@@IAE_NXZ 00427f80 f i libucrt:output.obj
 0001:00026f83       ?should_skip_normal_state_processing@?$standard_base@DV?$string_output_adapter@D@__crt_stdio_output@@@__crt_stdio_output@@IAE_NXZ 00427f83 f i libucrt:output.obj
 0001:00026f86       ?should_skip_normal_state_processing@?$standard_base@_WV?$stream_output_adapter@_W@__crt_stdio_output@@@__crt_stdio_output@@IAE_NXZ 00427f86 f i libucrt:output.obj
 0001:00026f89       ?should_skip_normal_state_processing@?$standard_base@_WV?$string_output_adapter@_W@__crt_stdio_output@@@__crt_stdio_output@@IAE_NXZ 00427f89 f i libucrt:output.obj
 0001:00026f8c       ?should_skip_type_state_output@?$positional_parameter_base@DV?$stream_output_adapter@D@__crt_stdio_output@@@__crt_stdio_output@@IBE_NXZ 00427f8c f i libucrt:output.obj
 0001:00026fa8       ?should_skip_type_state_output@?$positional_parameter_base@DV?$string_output_adapter@D@__crt_stdio_output@@@__crt_stdio_output@@IBE_NXZ 00427fa8 f i libucrt:output.obj
 0001:00026fc4       ?should_skip_type_state_output@?$positional_parameter_base@_WV?$stream_output_adapter@_W@__crt_stdio_output@@@__crt_stdio_output@@IBE_NXZ 00427fc4 f i libucrt:output.obj
 0001:00026fe0       ?should_skip_type_state_output@?$positional_parameter_base@_WV?$string_output_adapter@_W@__crt_stdio_output@@@__crt_stdio_output@@IBE_NXZ 00427fe0 f i libucrt:output.obj
 0001:00026ffc       ?should_skip_type_state_output@?$standard_base@DV?$stream_output_adapter@D@__crt_stdio_output@@@__crt_stdio_output@@IBE_NXZ 00427ffc f i libucrt:output.obj
 0001:00026fff       ?should_skip_type_state_output@?$standard_base@DV?$string_output_adapter@D@__crt_stdio_output@@@__crt_stdio_output@@IBE_NXZ 00427fff f i libucrt:output.obj
 0001:00027002       ?should_skip_type_state_output@?$standard_base@_WV?$stream_output_adapter@_W@__crt_stdio_output@@@__crt_stdio_output@@IBE_NXZ 00428002 f i libucrt:output.obj
 0001:00027005       ?should_skip_type_state_output@?$standard_base@_WV?$string_output_adapter@_W@__crt_stdio_output@@@__crt_stdio_output@@IBE_NXZ 00428005 f i libucrt:output.obj
 0001:00027008       ?state_case_dot@?$output_processor@DV?$stream_output_adapter@D@__crt_stdio_output@@V?$format_validation_base@DV?$stream_output_adapter@D@__crt_stdio_output@@@2@@__crt_stdio_output@@AAE_NXZ 00428008 f i libucrt:output.obj
 0001:0002700f       ?state_case_dot@?$output_processor@DV?$stream_output_adapter@D@__crt_stdio_output@@V?$positional_parameter_base@DV?$stream_output_adapter@D@__crt_stdio_output@@@2@@__crt_stdio_output@@AAE_NXZ 0042800f f i libucrt:output.obj
 0001:00027016       ?state_case_dot@?$output_processor@DV?$stream_output_adapter@D@__crt_stdio_output@@V?$standard_base@DV?$stream_output_adapter@D@__crt_stdio_output@@@2@@__crt_stdio_output@@AAE_NXZ 00428016 f i libucrt:output.obj
 0001:0002701d       ?state_case_dot@?$output_processor@DV?$string_output_adapter@D@__crt_stdio_output@@V?$format_validation_base@DV?$string_output_adapter@D@__crt_stdio_output@@@2@@__crt_stdio_output@@AAE_NXZ 0042801d f i libucrt:output.obj
 0001:00027024       ?state_case_dot@?$output_processor@DV?$string_output_adapter@D@__crt_stdio_output@@V?$positional_parameter_base@DV?$string_output_adapter@D@__crt_stdio_output@@@2@@__crt_stdio_output@@AAE_NXZ 00428024 f i libucrt:output.obj
 0001:0002702b       ?state_case_dot@?$output_processor@DV?$string_output_adapter@D@__crt_stdio_output@@V?$standard_base@DV?$string_output_adapter@D@__crt_stdio_output@@@2@@__crt_stdio_output@@AAE_NXZ 0042802b f i libucrt:output.obj
 0001:00027032       ?state_case_dot@?$output_processor@_WV?$stream_output_adapter@_W@__crt_stdio_output@@V?$format_validation_base@_WV?$stream_output_adapter@_W@__crt_stdio_output@@@2@@__crt_stdio_output@@AAE_NXZ 00428032 f i libucrt:output.obj
 0001:00027039       ?state_case_dot@?$output_processor@_WV?$stream_output_adapter@_W@__crt_stdio_output@@V?$positional_parameter_base@_WV?$stream_output_adapter@_W@__crt_stdio_output@@@2@@__crt_stdio_output@@AAE_NXZ 00428039 f i libucrt:output.obj
 0001:00027040       ?state_case_dot@?$output_processor@_WV?$stream_output_adapter@_W@__crt_stdio_output@@V?$standard_base@_WV?$stream_output_adapter@_W@__crt_stdio_output@@@2@@__crt_stdio_output@@AAE_NXZ 00428040 f i libucrt:output.obj
 0001:00027047       ?state_case_dot@?$output_processor@_WV?$string_output_adapter@_W@__crt_stdio_output@@V?$format_validation_base@_WV?$string_output_adapter@_W@__crt_stdio_output@@@2@@__crt_stdio_output@@AAE_NXZ 00428047 f i libucrt:output.obj
 0001:0002704e       ?state_case_dot@?$output_processor@_WV?$string_output_adapter@_W@__crt_stdio_output@@V?$positional_parameter_base@_WV?$string_output_adapter@_W@__crt_stdio_output@@@2@@__crt_stdio_output@@AAE_NXZ 0042804e f i libucrt:output.obj
 0001:00027055       ?state_case_dot@?$output_processor@_WV?$string_output_adapter@_W@__crt_stdio_output@@V?$standard_base@_WV?$string_output_adapter@_W@__crt_stdio_output@@@2@@__crt_stdio_output@@AAE_NXZ 00428055 f i libucrt:output.obj
 0001:0002705c       ?state_case_flag@?$output_processor@DV?$stream_output_adapter@D@__crt_stdio_output@@V?$format_validation_base@DV?$stream_output_adapter@D@__crt_stdio_output@@@2@@__crt_stdio_output@@AAE_NXZ 0042805c f i libucrt:output.obj
 0001:000270a8       ?state_case_flag@?$output_processor@DV?$stream_output_adapter@D@__crt_stdio_output@@V?$positional_parameter_base@DV?$stream_output_adapter@D@__crt_stdio_output@@@2@@__crt_stdio_output@@AAE_NXZ 004280a8 f i libucrt:output.obj
 0001:000270f4       ?state_case_flag@?$output_processor@DV?$stream_output_adapter@D@__crt_stdio_output@@V?$standard_base@DV?$stream_output_adapter@D@__crt_stdio_output@@@2@@__crt_stdio_output@@AAE_NXZ 004280f4 f i libucrt:output.obj
 0001:00027140       ?state_case_flag@?$output_processor@DV?$string_output_adapter@D@__crt_stdio_output@@V?$format_validation_base@DV?$string_output_adapter@D@__crt_stdio_output@@@2@@__crt_stdio_output@@AAE_NXZ 00428140 f i libucrt:output.obj
 0001:0002718c       ?state_case_flag@?$output_processor@DV?$string_output_adapter@D@__crt_stdio_output@@V?$positional_parameter_base@DV?$string_output_adapter@D@__crt_stdio_output@@@2@@__crt_stdio_output@@AAE_NXZ 0042818c f i libucrt:output.obj
 0001:000271d8       ?state_case_flag@?$output_processor@DV?$string_output_adapter@D@__crt_stdio_output@@V?$standard_base@DV?$string_output_adapter@D@__crt_stdio_output@@@2@@__crt_stdio_output@@AAE_NXZ 004281d8 f i libucrt:output.obj
 0001:00027224       ?state_case_flag@?$output_processor@_WV?$stream_output_adapter@_W@__crt_stdio_output@@V?$format_validation_base@_WV?$stream_output_adapter@_W@__crt_stdio_output@@@2@@__crt_stdio_output@@AAE_NXZ 00428224 f i libucrt:output.obj
 0001:00027270       ?state_case_flag@?$output_processor@_WV?$stream_output_adapter@_W@__crt_stdio_output@@V?$positional_parameter_base@_WV?$stream_output_adapter@_W@__crt_stdio_output@@@2@@__crt_stdio_output@@AAE_NXZ 00428270 f i libucrt:output.obj
 0001:000272bc       ?state_case_flag@?$output_processor@_WV?$stream_output_adapter@_W@__crt_stdio_output@@V?$standard_base@_WV?$stream_output_adapter@_W@__crt_stdio_output@@@2@@__crt_stdio_output@@AAE_NXZ 004282bc f i libucrt:output.obj
 0001:00027308       ?state_case_flag@?$output_processor@_WV?$string_output_adapter@_W@__crt_stdio_output@@V?$format_validation_base@_WV?$string_output_adapter@_W@__crt_stdio_output@@@2@@__crt_stdio_output@@AAE_NXZ 00428308 f i libucrt:output.obj
 0001:00027354       ?state_case_flag@?$output_processor@_WV?$string_output_adapter@_W@__crt_stdio_output@@V?$positional_parameter_base@_WV?$string_output_adapter@_W@__crt_stdio_output@@@2@@__crt_stdio_output@@AAE_NXZ 00428354 f i libucrt:output.obj
 0001:000273a0       ?state_case_flag@?$output_processor@_WV?$string_output_adapter@_W@__crt_stdio_output@@V?$standard_base@_WV?$string_output_adapter@_W@__crt_stdio_output@@@2@@__crt_stdio_output@@AAE_NXZ 004283a0 f i libucrt:output.obj
 0001:000273ec       ?state_case_normal@?$output_processor@DV?$stream_output_adapter@D@__crt_stdio_output@@V?$format_validation_base@DV?$stream_output_adapter@D@__crt_stdio_output@@@2@@__crt_stdio_output@@AAE_NXZ 004283ec f i libucrt:output.obj
 0001:000274dc       ?state_case_normal@?$output_processor@DV?$stream_output_adapter@D@__crt_stdio_output@@V?$positional_parameter_base@DV?$stream_output_adapter@D@__crt_stdio_output@@@2@@__crt_stdio_output@@AAE_NXZ 004284dc f i libucrt:output.obj
 0001:000275d9       ?state_case_normal@?$output_processor@DV?$stream_output_adapter@D@__crt_stdio_output@@V?$standard_base@DV?$stream_output_adapter@D@__crt_stdio_output@@@2@@__crt_stdio_output@@AAE_NXZ 004285d9 f i libucrt:output.obj
 0001:000276c9       ?state_case_normal@?$output_processor@DV?$string_output_adapter@D@__crt_stdio_output@@V?$format_validation_base@DV?$string_output_adapter@D@__crt_stdio_output@@@2@@__crt_stdio_output@@AAE_NXZ 004286c9 f i libucrt:output.obj
 0001:00027804       ?state_case_normal@?$output_processor@DV?$string_output_adapter@D@__crt_stdio_output@@V?$positional_parameter_base@DV?$string_output_adapter@D@__crt_stdio_output@@@2@@__crt_stdio_output@@AAE_NXZ 00428804 f i libucrt:output.obj
 0001:0002794c       ?state_case_normal@?$output_processor@DV?$string_output_adapter@D@__crt_stdio_output@@V?$standard_base@DV?$string_output_adapter@D@__crt_stdio_output@@@2@@__crt_stdio_output@@AAE_NXZ 0042894c f i libucrt:output.obj
 0001:00027a87       ?state_case_normal@?$output_processor@_WV?$stream_output_adapter@_W@__crt_stdio_output@@V?$format_validation_base@_WV?$stream_output_adapter@_W@__crt_stdio_output@@@2@@__crt_stdio_output@@AAE_NXZ 00428a87 f i libucrt:output.obj
 0001:00027aac       ?state_case_normal@?$output_processor@_WV?$stream_output_adapter@_W@__crt_stdio_output@@V?$positional_parameter_base@_WV?$stream_output_adapter@_W@__crt_stdio_output@@@2@@__crt_stdio_output@@AAE_NXZ 00428aac f i libucrt:output.obj
 0001:00027ae4       ?state_case_normal@?$output_processor@_WV?$stream_output_adapter@_W@__crt_stdio_output@@V?$standard_base@_WV?$stream_output_adapter@_W@__crt_stdio_output@@@2@@__crt_stdio_output@@AAE_NXZ 00428ae4 f i libucrt:output.obj
 0001:00027b09       ?state_case_normal@?$output_processor@_WV?$string_output_adapter@_W@__crt_stdio_output@@V?$format_validation_base@_WV?$string_output_adapter@_W@__crt_stdio_output@@@2@@__crt_stdio_output@@AAE_NXZ 00428b09 f i libucrt:output.obj
 0001:00027b63       ?state_case_normal@?$output_processor@_WV?$string_output_adapter@_W@__crt_stdio_output@@V?$positional_parameter_base@_WV?$string_output_adapter@_W@__crt_stdio_output@@@2@@__crt_stdio_output@@AAE_NXZ 00428b63 f i libucrt:output.obj
 0001:00027bca       ?state_case_normal@?$output_processor@_WV?$string_output_adapter@_W@__crt_stdio_output@@V?$standard_base@_WV?$string_output_adapter@_W@__crt_stdio_output@@@2@@__crt_stdio_output@@AAE_NXZ 00428bca f i libucrt:output.obj
 0001:00027c24       ?state_case_normal_common@?$output_processor@DV?$stream_output_adapter@D@__crt_stdio_output@@V?$format_validation_base@DV?$stream_output_adapter@D@__crt_stdio_output@@@2@@__crt_stdio_output@@AAE_NXZ 00428c24 f i libucrt:output.obj
 0001:00027ce0       ?state_case_normal_common@?$output_processor@DV?$stream_output_adapter@D@__crt_stdio_output@@V?$positional_parameter_base@DV?$stream_output_adapter@D@__crt_stdio_output@@@2@@__crt_stdio_output@@AAE_NXZ 00428ce0 f i libucrt:output.obj
 0001:00027d9c       ?state_case_normal_common@?$output_processor@DV?$stream_output_adapter@D@__crt_stdio_output@@V?$standard_base@DV?$stream_output_adapter@D@__crt_stdio_output@@@2@@__crt_stdio_output@@AAE_NXZ 00428d9c f i libucrt:output.obj
 0001:00027e58       ?state_case_normal_common@?$output_processor@DV?$string_output_adapter@D@__crt_stdio_output@@V?$format_validation_base@DV?$string_output_adapter@D@__crt_stdio_output@@@2@@__crt_stdio_output@@AAE_NXZ 00428e58 f i libucrt:output.obj
 0001:00027f70       ?state_case_normal_common@?$output_processor@DV?$string_output_adapter@D@__crt_stdio_output@@V?$positional_parameter_base@DV?$string_output_adapter@D@__crt_stdio_output@@@2@@__crt_stdio_output@@AAE_NXZ 00428f70 f i libucrt:output.obj
 0001:00028088       ?state_case_normal_common@?$output_processor@DV?$string_output_adapter@D@__crt_stdio_output@@V?$standard_base@DV?$string_output_adapter@D@__crt_stdio_output@@@2@@__crt_stdio_output@@AAE_NXZ 00429088 f i libucrt:output.obj
 0001:000281a0       ?state_case_normal_common@?$output_processor@_WV?$stream_output_adapter@_W@__crt_stdio_output@@V?$format_validation_base@_WV?$stream_output_adapter@_W@__crt_stdio_output@@@2@@__crt_stdio_output@@AAE_NXZ 004291a0 f i libucrt:output.obj
 0001:000281c5       ?state_case_normal_common@?$output_processor@_WV?$stream_output_adapter@_W@__crt_stdio_output@@V?$positional_parameter_base@_WV?$stream_output_adapter@_W@__crt_stdio_output@@@2@@__crt_stdio_output@@AAE_NXZ 004291c5 f i libucrt:output.obj
 0001:000281ea       ?state_case_normal_common@?$output_processor@_WV?$stream_output_adapter@_W@__crt_stdio_output@@V?$standard_base@_WV?$stream_output_adapter@_W@__crt_stdio_output@@@2@@__crt_stdio_output@@AAE_NXZ 004291ea f i libucrt:output.obj
 0001:0002820f       ?state_case_normal_common@?$output_processor@_WV?$string_output_adapter@_W@__crt_stdio_output@@V?$format_validation_base@_WV?$string_output_adapter@_W@__crt_stdio_output@@@2@@__crt_stdio_output@@AAE_NXZ 0042920f f i libucrt:output.obj
 0001:00028269       ?state_case_normal_common@?$output_processor@_WV?$string_output_adapter@_W@__crt_stdio_output@@V?$positional_parameter_base@_WV?$string_output_adapter@_W@__crt_stdio_output@@@2@@__crt_stdio_output@@AAE_NXZ 00429269 f i libucrt:output.obj
 0001:000282c3       ?state_case_normal_common@?$output_processor@_WV?$string_output_adapter@_W@__crt_stdio_output@@V?$standard_base@_WV?$string_output_adapter@_W@__crt_stdio_output@@@2@@__crt_stdio_output@@AAE_NXZ 004292c3 f i libucrt:output.obj
 0001:0002831d       ?state_case_normal_tchar@?$output_processor@DV?$stream_output_adapter@D@__crt_stdio_output@@V?$format_validation_base@DV?$stream_output_adapter@D@__crt_stdio_output@@@2@@__crt_stdio_output@@AAE_ND@Z 0042931d f i libucrt:output.obj
 0001:000283c5       ?state_case_normal_tchar@?$output_processor@DV?$stream_output_adapter@D@__crt_stdio_output@@V?$positional_parameter_base@DV?$stream_output_adapter@D@__crt_stdio_output@@@2@@__crt_stdio_output@@AAE_ND@Z 004293c5 f i libucrt:output.obj
 0001:0002846d       ?state_case_normal_tchar@?$output_processor@DV?$stream_output_adapter@D@__crt_stdio_output@@V?$standard_base@DV?$stream_output_adapter@D@__crt_stdio_output@@@2@@__crt_stdio_output@@AAE_ND@Z 0042946d f i libucrt:output.obj
 0001:00028515       ?state_case_normal_tchar@?$output_processor@DV?$string_output_adapter@D@__crt_stdio_output@@V?$format_validation_base@DV?$string_output_adapter@D@__crt_stdio_output@@@2@@__crt_stdio_output@@AAE_ND@Z 00429515 f i libucrt:output.obj
 0001:000285ea       ?state_case_normal_tchar@?$output_processor@DV?$string_output_adapter@D@__crt_stdio_output@@V?$positional_parameter_base@DV?$string_output_adapter@D@__crt_stdio_output@@@2@@__crt_stdio_output@@AAE_ND@Z 004295ea f i libucrt:output.obj
 0001:000286bf       ?state_case_normal_tchar@?$output_processor@DV?$string_output_adapter@D@__crt_stdio_output@@V?$standard_base@DV?$string_output_adapter@D@__crt_stdio_output@@@2@@__crt_stdio_output@@AAE_ND@Z 004296bf f i libucrt:output.obj
 0001:00028794       ?state_case_normal_tchar@?$output_processor@_WV?$stream_output_adapter@_W@__crt_stdio_output@@V?$format_validation_base@_WV?$stream_output_adapter@_W@__crt_stdio_output@@@2@@__crt_stdio_output@@AAE_N_W@Z 00429794 f i libucrt:output.obj
 0001:0002879f       ?state_case_normal_tchar@?$output_processor@_WV?$stream_output_adapter@_W@__crt_stdio_output@@V?$positional_parameter_base@_WV?$stream_output_adapter@_W@__crt_stdio_output@@@2@@__crt_stdio_output@@AAE_N_W@Z 0042979f f i libucrt:output.obj
 0001:000287aa       ?state_case_normal_tchar@?$output_processor@_WV?$stream_output_adapter@_W@__crt_stdio_output@@V?$standard_base@_WV?$stream_output_adapter@_W@__crt_stdio_output@@@2@@__crt_stdio_output@@AAE_N_W@Z 004297aa f i libucrt:output.obj
 0001:000287b5       ?state_case_normal_tchar@?$output_processor@_WV?$string_output_adapter@_W@__crt_stdio_output@@V?$format_validation_base@_WV?$string_output_adapter@_W@__crt_stdio_output@@@2@@__crt_stdio_output@@AAE_N_W@Z 004297b5 f i libucrt:output.obj
 0001:000287c0       ?state_case_normal_tchar@?$output_processor@_WV?$string_output_adapter@_W@__crt_stdio_output@@V?$positional_parameter_base@_WV?$string_output_adapter@_W@__crt_stdio_output@@@2@@__crt_stdio_output@@AAE_N_W@Z 004297c0 f i libucrt:output.obj
 0001:000287cb       ?state_case_normal_tchar@?$output_processor@_WV?$string_output_adapter@_W@__crt_stdio_output@@V?$standard_base@_WV?$string_output_adapter@_W@__crt_stdio_output@@@2@@__crt_stdio_output@@AAE_N_W@Z 004297cb f i libucrt:output.obj
 0001:000287d6       ?state_case_percent@?$output_processor@DV?$stream_output_adapter@D@__crt_stdio_output@@V?$format_validation_base@DV?$stream_output_adapter@D@__crt_stdio_output@@@2@@__crt_stdio_output@@AAE_NXZ 004297d6 f i libucrt:output.obj
 0001:000287f4       ?state_case_percent@?$output_processor@DV?$stream_output_adapter@D@__crt_stdio_output@@V?$positional_parameter_base@DV?$stream_output_adapter@D@__crt_stdio_output@@@2@@__crt_stdio_output@@AAE_NXZ 004297f4 f i libucrt:output.obj
 0001:00028812       ?state_case_percent@?$output_processor@DV?$stream_output_adapter@D@__crt_stdio_output@@V?$standard_base@DV?$stream_output_adapter@D@__crt_stdio_output@@@2@@__crt_stdio_output@@AAE_NXZ 00429812 f i libucrt:output.obj
 0001:00028830       ?state_case_percent@?$output_processor@DV?$string_output_adapter@D@__crt_stdio_output@@V?$format_validation_base@DV?$string_output_adapter@D@__crt_stdio_output@@@2@@__crt_stdio_output@@AAE_NXZ 00429830 f i libucrt:output.obj
 0001:0002884e       ?state_case_percent@?$output_processor@DV?$string_output_adapter@D@__crt_stdio_output@@V?$positional_parameter_base@DV?$string_output_adapter@D@__crt_stdio_output@@@2@@__crt_stdio_output@@AAE_NXZ 0042984e f i libucrt:output.obj
 0001:0002886c       ?state_case_percent@?$output_processor@DV?$string_output_adapter@D@__crt_stdio_output@@V?$standard_base@DV?$string_output_adapter@D@__crt_stdio_output@@@2@@__crt_stdio_output@@AAE_NXZ 0042986c f i libucrt:output.obj
 0001:0002888a       ?state_case_percent@?$output_processor@_WV?$stream_output_adapter@_W@__crt_stdio_output@@V?$format_validation_base@_WV?$stream_output_adapter@_W@__crt_stdio_output@@@2@@__crt_stdio_output@@AAE_NXZ 0042988a f i libucrt:output.obj
 0001:000288a8       ?state_case_percent@?$output_processor@_WV?$stream_output_adapter@_W@__crt_stdio_output@@V?$positional_parameter_base@_WV?$stream_output_adapter@_W@__crt_stdio_output@@@2@@__crt_stdio_output@@AAE_NXZ 004298a8 f i libucrt:output.obj
 0001:000288c6       ?state_case_percent@?$output_processor@_WV?$stream_output_adapter@_W@__crt_stdio_output@@V?$standard_base@_WV?$stream_output_adapter@_W@__crt_stdio_output@@@2@@__crt_stdio_output@@AAE_NXZ 004298c6 f i libucrt:output.obj
 0001:000288e4       ?state_case_percent@?$output_processor@_WV?$string_output_adapter@_W@__crt_stdio_output@@V?$format_validation_base@_WV?$string_output_adapter@_W@__crt_stdio_output@@@2@@__crt_stdio_output@@AAE_NXZ 004298e4 f i libucrt:output.obj
 0001:00028902       ?state_case_percent@?$output_processor@_WV?$string_output_adapter@_W@__crt_stdio_output@@V?$positional_parameter_base@_WV?$string_output_adapter@_W@__crt_stdio_output@@@2@@__crt_stdio_output@@AAE_NXZ 00429902 f i libucrt:output.obj
 0001:00028920       ?state_case_percent@?$output_processor@_WV?$string_output_adapter@_W@__crt_stdio_output@@V?$standard_base@_WV?$string_output_adapter@_W@__crt_stdio_output@@@2@@__crt_stdio_output@@AAE_NXZ 00429920 f i libucrt:output.obj
 0001:0002893e       ?state_case_precision@?$output_processor@DV?$stream_output_adapter@D@__crt_stdio_output@@V?$format_validation_base@DV?$stream_output_adapter@D@__crt_stdio_output@@@2@@__crt_stdio_output@@AAE_NXZ 0042993e f i libucrt:output.obj
 0001:0002896d       ?state_case_precision@?$output_processor@DV?$stream_output_adapter@D@__crt_stdio_output@@V?$positional_parameter_base@DV?$stream_output_adapter@D@__crt_stdio_output@@@2@@__crt_stdio_output@@AAE_NXZ 0042996d f i libucrt:output.obj
 0001:000289b5       ?state_case_precision@?$output_processor@DV?$stream_output_adapter@D@__crt_stdio_output@@V?$standard_base@DV?$stream_output_adapter@D@__crt_stdio_output@@@2@@__crt_stdio_output@@AAE_NXZ 004299b5 f i libucrt:output.obj
 0001:000289e4       ?state_case_precision@?$output_processor@DV?$string_output_adapter@D@__crt_stdio_output@@V?$format_validation_base@DV?$string_output_adapter@D@__crt_stdio_output@@@2@@__crt_stdio_output@@AAE_NXZ 004299e4 f i libucrt:output.obj
 0001:00028a13       ?state_case_precision@?$output_processor@DV?$string_output_adapter@D@__crt_stdio_output@@V?$positional_parameter_base@DV?$string_output_adapter@D@__crt_stdio_output@@@2@@__crt_stdio_output@@AAE_NXZ 00429a13 f i libucrt:output.obj
 0001:00028a5b       ?state_case_precision@?$output_processor@DV?$string_output_adapter@D@__crt_stdio_output@@V?$standard_base@DV?$string_output_adapter@D@__crt_stdio_output@@@2@@__crt_stdio_output@@AAE_NXZ 00429a5b f i libucrt:output.obj
 0001:00028a8a       ?state_case_precision@?$output_processor@_WV?$stream_output_adapter@_W@__crt_stdio_output@@V?$format_validation_base@_WV?$stream_output_adapter@_W@__crt_stdio_output@@@2@@__crt_stdio_output@@AAE_NXZ 00429a8a f i libucrt:output.obj
 0001:00028aba       ?state_case_precision@?$output_processor@_WV?$stream_output_adapter@_W@__crt_stdio_output@@V?$positional_parameter_base@_WV?$stream_output_adapter@_W@__crt_stdio_output@@@2@@__crt_stdio_output@@AAE_NXZ 00429aba f i libucrt:output.obj
 0001:00028b03       ?state_case_precision@?$output_processor@_WV?$stream_output_adapter@_W@__crt_stdio_output@@V?$standard_base@_WV?$stream_output_adapter@_W@__crt_stdio_output@@@2@@__crt_stdio_output@@AAE_NXZ 00429b03 f i libucrt:output.obj
 0001:00028b33       ?state_case_precision@?$output_processor@_WV?$string_output_adapter@_W@__crt_stdio_output@@V?$format_validation_base@_WV?$string_output_adapter@_W@__crt_stdio_output@@@2@@__crt_stdio_output@@AAE_NXZ 00429b33 f i libucrt:output.obj
 0001:00028b63       ?state_case_precision@?$output_processor@_WV?$string_output_adapter@_W@__crt_stdio_output@@V?$positional_parameter_base@_WV?$string_output_adapter@_W@__crt_stdio_output@@@2@@__crt_stdio_output@@AAE_NXZ 00429b63 f i libucrt:output.obj
 0001:00028bac       ?state_case_precision@?$output_processor@_WV?$string_output_adapter@_W@__crt_stdio_output@@V?$standard_base@_WV?$string_output_adapter@_W@__crt_stdio_output@@@2@@__crt_stdio_output@@AAE_NXZ 00429bac f i libucrt:output.obj
 0001:00028bdc       ?state_case_size@?$output_processor@DV?$stream_output_adapter@D@__crt_stdio_output@@V?$format_validation_base@DV?$stream_output_adapter@D@__crt_stdio_output@@@2@@__crt_stdio_output@@AAE_NXZ 00429bdc f i libucrt:output.obj
 0001:00028d91       ?state_case_size@?$output_processor@DV?$stream_output_adapter@D@__crt_stdio_output@@V?$positional_parameter_base@DV?$stream_output_adapter@D@__crt_stdio_output@@@2@@__crt_stdio_output@@AAE_NXZ 00429d91 f i libucrt:output.obj
 0001:00028f46       ?state_case_size@?$output_processor@DV?$stream_output_adapter@D@__crt_stdio_output@@V?$standard_base@DV?$stream_output_adapter@D@__crt_stdio_output@@@2@@__crt_stdio_output@@AAE_NXZ 00429f46 f i libucrt:output.obj
 0001:000290fb       ?state_case_size@?$output_processor@DV?$string_output_adapter@D@__crt_stdio_output@@V?$format_validation_base@DV?$string_output_adapter@D@__crt_stdio_output@@@2@@__crt_stdio_output@@AAE_NXZ 0042a0fb f i libucrt:output.obj
 0001:000292b0       ?state_case_size@?$output_processor@DV?$string_output_adapter@D@__crt_stdio_output@@V?$positional_parameter_base@DV?$string_output_adapter@D@__crt_stdio_output@@@2@@__crt_stdio_output@@AAE_NXZ 0042a2b0 f i libucrt:output.obj
 0001:00029465       ?state_case_size@?$output_processor@DV?$string_output_adapter@D@__crt_stdio_output@@V?$standard_base@DV?$string_output_adapter@D@__crt_stdio_output@@@2@@__crt_stdio_output@@AAE_NXZ 0042a465 f i libucrt:output.obj
 0001:0002961a       ?state_case_size@?$output_processor@_WV?$stream_output_adapter@_W@__crt_stdio_output@@V?$format_validation_base@_WV?$stream_output_adapter@_W@__crt_stdio_output@@@2@@__crt_stdio_output@@AAE_NXZ 0042a61a f i libucrt:output.obj
 0001:0002980b       ?state_case_size@?$output_processor@_WV?$stream_output_adapter@_W@__crt_stdio_output@@V?$positional_parameter_base@_WV?$stream_output_adapter@_W@__crt_stdio_output@@@2@@__crt_stdio_output@@AAE_NXZ 0042a80b f i libucrt:output.obj
 0001:000299fc       ?state_case_size@?$output_processor@_WV?$stream_output_adapter@_W@__crt_stdio_output@@V?$standard_base@_WV?$stream_output_adapter@_W@__crt_stdio_output@@@2@@__crt_stdio_output@@AAE_NXZ 0042a9fc f i libucrt:output.obj
 0001:00029bed       ?state_case_size@?$output_processor@_WV?$string_output_adapter@_W@__crt_stdio_output@@V?$format_validation_base@_WV?$string_output_adapter@_W@__crt_stdio_output@@@2@@__crt_stdio_output@@AAE_NXZ 0042abed f i libucrt:output.obj
 0001:00029dde       ?state_case_size@?$output_processor@_WV?$string_output_adapter@_W@__crt_stdio_output@@V?$positional_parameter_base@_WV?$string_output_adapter@_W@__crt_stdio_output@@@2@@__crt_stdio_output@@AAE_NXZ 0042adde f i libucrt:output.obj
 0001:00029fcf       ?state_case_size@?$output_processor@_WV?$string_output_adapter@_W@__crt_stdio_output@@V?$standard_base@_WV?$string_output_adapter@_W@__crt_stdio_output@@@2@@__crt_stdio_output@@AAE_NXZ 0042afcf f i libucrt:output.obj
 0001:0002a1c0       ?state_case_type@?$output_processor@DV?$stream_output_adapter@D@__crt_stdio_output@@V?$format_validation_base@DV?$stream_output_adapter@D@__crt_stdio_output@@@2@@__crt_stdio_output@@AAE_NXZ 0042b1c0 f i libucrt:output.obj
 0001:0002a5da       ?state_case_type@?$output_processor@DV?$stream_output_adapter@D@__crt_stdio_output@@V?$positional_parameter_base@DV?$stream_output_adapter@D@__crt_stdio_output@@@2@@__crt_stdio_output@@AAE_NXZ 0042b5da f i libucrt:output.obj
 0001:0002aa06       ?state_case_type@?$output_processor@DV?$stream_output_adapter@D@__crt_stdio_output@@V?$standard_base@DV?$stream_output_adapter@D@__crt_stdio_output@@@2@@__crt_stdio_output@@AAE_NXZ 0042ba06 f i libucrt:output.obj
 0001:0002ae20       ?state_case_type@?$output_processor@DV?$string_output_adapter@D@__crt_stdio_output@@V?$format_validation_base@DV?$string_output_adapter@D@__crt_stdio_output@@@2@@__crt_stdio_output@@AAE_NXZ 0042be20 f i libucrt:output.obj
 0001:0002b291       ?state_case_type@?$output_processor@DV?$string_output_adapter@D@__crt_stdio_output@@V?$positional_parameter_base@DV?$string_output_adapter@D@__crt_stdio_output@@@2@@__crt_stdio_output@@AAE_NXZ 0042c291 f i libucrt:output.obj
 0001:0002b715       ?state_case_type@?$output_processor@DV?$string_output_adapter@D@__crt_stdio_output@@V?$standard_base@DV?$string_output_adapter@D@__crt_stdio_output@@@2@@__crt_stdio_output@@AAE_NXZ 0042c715 f i libucrt:output.obj
 0001:0002bb86       ?state_case_type@?$output_processor@_WV?$stream_output_adapter@_W@__crt_stdio_output@@V?$format_validation_base@_WV?$stream_output_adapter@_W@__crt_stdio_output@@@2@@__crt_stdio_output@@AAE_NXZ 0042cb86 f i libucrt:output.obj
 0001:0002bfc4       ?state_case_type@?$output_processor@_WV?$stream_output_adapter@_W@__crt_stdio_output@@V?$positional_parameter_base@_WV?$stream_output_adapter@_W@__crt_stdio_output@@@2@@__crt_stdio_output@@AAE_NXZ 0042cfc4 f i libucrt:output.obj
 0001:0002c415       ?state_case_type@?$output_processor@_WV?$stream_output_adapter@_W@__crt_stdio_output@@V?$standard_base@_WV?$stream_output_adapter@_W@__crt_stdio_output@@@2@@__crt_stdio_output@@AAE_NXZ 0042d415 f i libucrt:output.obj
 0001:0002c853       ?state_case_type@?$output_processor@_WV?$string_output_adapter@_W@__crt_stdio_output@@V?$format_validation_base@_WV?$string_output_adapter@_W@__crt_stdio_output@@@2@@__crt_stdio_output@@AAE_NXZ 0042d853 f i libucrt:output.obj
 0001:0002cd7c       ?state_case_type@?$output_processor@_WV?$string_output_adapter@_W@__crt_stdio_output@@V?$positional_parameter_base@_WV?$string_output_adapter@_W@__crt_stdio_output@@@2@@__crt_stdio_output@@AAE_NXZ 0042dd7c f i libucrt:output.obj
 0001:0002d2b8       ?state_case_type@?$output_processor@_WV?$string_output_adapter@_W@__crt_stdio_output@@V?$standard_base@_WV?$string_output_adapter@_W@__crt_stdio_output@@@2@@__crt_stdio_output@@AAE_NXZ 0042e2b8 f i libucrt:output.obj
 0001:0002d7e1       ?state_case_width@?$output_processor@DV?$stream_output_adapter@D@__crt_stdio_output@@V?$format_validation_base@DV?$stream_output_adapter@D@__crt_stdio_output@@@2@@__crt_stdio_output@@AAE_NXZ 0042e7e1 f i libucrt:output.obj
 0001:0002d816       ?state_case_width@?$output_processor@DV?$stream_output_adapter@D@__crt_stdio_output@@V?$positional_parameter_base@DV?$stream_output_adapter@D@__crt_stdio_output@@@2@@__crt_stdio_output@@AAE_NXZ 0042e816 f i libucrt:output.obj
 0001:0002d866       ?state_case_width@?$output_processor@DV?$stream_output_adapter@D@__crt_stdio_output@@V?$standard_base@DV?$stream_output_adapter@D@__crt_stdio_output@@@2@@__crt_stdio_output@@AAE_NXZ 0042e866 f i libucrt:output.obj
 0001:0002d89b       ?state_case_width@?$output_processor@DV?$string_output_adapter@D@__crt_stdio_output@@V?$format_validation_base@DV?$string_output_adapter@D@__crt_stdio_output@@@2@@__crt_stdio_output@@AAE_NXZ 0042e89b f i libucrt:output.obj
 0001:0002d8d0       ?state_case_width@?$output_processor@DV?$string_output_adapter@D@__crt_stdio_output@@V?$positional_parameter_base@DV?$string_output_adapter@D@__crt_stdio_output@@@2@@__crt_stdio_output@@AAE_NXZ 0042e8d0 f i libucrt:output.obj
 0001:0002d920       ?state_case_width@?$output_processor@DV?$string_output_adapter@D@__crt_stdio_output@@V?$standard_base@DV?$string_output_adapter@D@__crt_stdio_output@@@2@@__crt_stdio_output@@AAE_NXZ 0042e920 f i libucrt:output.obj
 0001:0002d955       ?state_case_width@?$output_processor@_WV?$stream_output_adapter@_W@__crt_stdio_output@@V?$format_validation_base@_WV?$stream_output_adapter@_W@__crt_stdio_output@@@2@@__crt_stdio_output@@AAE_NXZ 0042e955 f i libucrt:output.obj
 0001:0002d98c       ?state_case_width@?$output_processor@_WV?$stream_output_adapter@_W@__crt_stdio_output@@V?$positional_parameter_base@_WV?$stream_output_adapter@_W@__crt_stdio_output@@@2@@__crt_stdio_output@@AAE_NXZ 0042e98c f i libucrt:output.obj
 0001:0002d9dd       ?state_case_width@?$output_processor@_WV?$stream_output_adapter@_W@__crt_stdio_output@@V?$standard_base@_WV?$stream_output_adapter@_W@__crt_stdio_output@@@2@@__crt_stdio_output@@AAE_NXZ 0042e9dd f i libucrt:output.obj
 0001:0002da14       ?state_case_width@?$output_processor@_WV?$string_output_adapter@_W@__crt_stdio_output@@V?$format_validation_base@_WV?$string_output_adapter@_W@__crt_stdio_output@@@2@@__crt_stdio_output@@AAE_NXZ 0042ea14 f i libucrt:output.obj
 0001:0002da4b       ?state_case_width@?$output_processor@_WV?$string_output_adapter@_W@__crt_stdio_output@@V?$positional_parameter_base@_WV?$string_output_adapter@_W@__crt_stdio_output@@@2@@__crt_stdio_output@@AAE_NXZ 0042ea4b f i libucrt:output.obj
 0001:0002da9c       ?state_case_width@?$output_processor@_WV?$string_output_adapter@_W@__crt_stdio_output@@V?$standard_base@_WV?$string_output_adapter@_W@__crt_stdio_output@@@2@@__crt_stdio_output@@AAE_NXZ 0042ea9c f i libucrt:output.obj
 0001:0002dad3       ?state_count@?$format_validation_base@DV?$stream_output_adapter@D@__crt_stdio_output@@@__crt_stdio_output@@KAIXZ 0042ead3 f i libucrt:output.obj
 0001:0002dad7       ?state_count@?$format_validation_base@DV?$string_output_adapter@D@__crt_stdio_output@@@__crt_stdio_output@@KAIXZ 0042ead7 f i libucrt:output.obj
 0001:0002dadb       ?state_count@?$format_validation_base@_WV?$stream_output_adapter@_W@__crt_stdio_output@@@__crt_stdio_output@@KAIXZ 0042eadb f i libucrt:output.obj
 0001:0002dadf       ?state_count@?$format_validation_base@_WV?$string_output_adapter@_W@__crt_stdio_output@@@__crt_stdio_output@@KAIXZ 0042eadf f i libucrt:output.obj
 0001:0002dae3       ?state_count@?$standard_base@DV?$stream_output_adapter@D@__crt_stdio_output@@@__crt_stdio_output@@KAIXZ 0042eae3 f i libucrt:output.obj
 0001:0002dae7       ?state_count@?$standard_base@DV?$string_output_adapter@D@__crt_stdio_output@@@__crt_stdio_output@@KAIXZ 0042eae7 f i libucrt:output.obj
 0001:0002daeb       ?state_count@?$standard_base@_WV?$stream_output_adapter@_W@__crt_stdio_output@@@__crt_stdio_output@@KAIXZ 0042eaeb f i libucrt:output.obj
 0001:0002daef       ?state_count@?$standard_base@_WV?$string_output_adapter@_W@__crt_stdio_output@@@__crt_stdio_output@@KAIXZ 0042eaef f i libucrt:output.obj
 0001:0002daf3       ?state_transition_table@?$format_validation_base@DV?$stream_output_adapter@D@__crt_stdio_output@@@__crt_stdio_output@@KAABV?$spectre_mitigated_lookup_table@Ustate_transition_pair@__crt_stdio_output@@$0IA@@2@XZ 0042eaf3 f i libucrt:output.obj
 0001:0002daf9       ?state_transition_table@?$format_validation_base@DV?$string_output_adapter@D@__crt_stdio_output@@@__crt_stdio_output@@KAABV?$spectre_mitigated_lookup_table@Ustate_transition_pair@__crt_stdio_output@@$0IA@@2@XZ 0042eaf9 f i libucrt:output.obj
 0001:0002daff       ?state_transition_table@?$format_validation_base@_WV?$stream_output_adapter@_W@__crt_stdio_output@@@__crt_stdio_output@@KAABV?$spectre_mitigated_lookup_table@Ustate_transition_pair@__crt_stdio_output@@$0IA@@2@XZ 0042eaff f i libucrt:output.obj
 0001:0002db05       ?state_transition_table@?$format_validation_base@_WV?$string_output_adapter@_W@__crt_stdio_output@@@__crt_stdio_output@@KAABV?$spectre_mitigated_lookup_table@Ustate_transition_pair@__crt_stdio_output@@$0IA@@2@XZ 0042eb05 f i libucrt:output.obj
 0001:0002db0b       ?state_transition_table@?$standard_base@DV?$stream_output_adapter@D@__crt_stdio_output@@@__crt_stdio_output@@KAABV?$spectre_mitigated_lookup_table@Ustate_transition_pair@__crt_stdio_output@@$0IA@@2@XZ 0042eb0b f i libucrt:output.obj
 0001:0002db11       ?state_transition_table@?$standard_base@DV?$string_output_adapter@D@__crt_stdio_output@@@__crt_stdio_output@@KAABV?$spectre_mitigated_lookup_table@Ustate_transition_pair@__crt_stdio_output@@$0IA@@2@XZ 0042eb11 f i libucrt:output.obj
 0001:0002db17       ?state_transition_table@?$standard_base@_WV?$stream_output_adapter@_W@__crt_stdio_output@@@__crt_stdio_output@@KAABV?$spectre_mitigated_lookup_table@Ustate_transition_pair@__crt_stdio_output@@$0IA@@2@XZ 0042eb17 f i libucrt:output.obj
 0001:0002db1d       ?state_transition_table@?$standard_base@_WV?$string_output_adapter@_W@__crt_stdio_output@@@__crt_stdio_output@@KAABV?$spectre_mitigated_lookup_table@Ustate_transition_pair@__crt_stdio_output@@$0IA@@2@XZ 0042eb1d f i libucrt:output.obj
 0001:0002db23       ?tchar_string@?$common_data@D@__crt_stdio_output@@IAEAAPADD@Z 0042eb23 f i libucrt:output.obj
 0001:0002db29       ?tchar_string@?$common_data@D@__crt_stdio_output@@IAEAAPADXZ 0042eb29 f i libucrt:output.obj
 0001:0002db2d       ?tchar_string@?$common_data@_W@__crt_stdio_output@@IAEAAPA_WXZ 0042eb2d f i libucrt:output.obj
 0001:0002db31       ?tchar_string@?$common_data@_W@__crt_stdio_output@@IAEAAPA_W_W@Z 0042eb31 f i libucrt:output.obj
 0001:0002db37       ?to_integer_size@__crt_stdio_output@@YAIW4length_modifier@1@@Z 0042eb37 f i libucrt:output.obj
 0001:0002dba0       ?type_case_X@?$output_processor@DV?$stream_output_adapter@D@__crt_stdio_output@@V?$format_validation_base@DV?$stream_output_adapter@D@__crt_stdio_output@@@2@@__crt_stdio_output@@AAE_NXZ 0042eba0 f i libucrt:output.obj
 0001:0002dbaa       ?type_case_X@?$output_processor@DV?$stream_output_adapter@D@__crt_stdio_output@@V?$positional_parameter_base@DV?$stream_output_adapter@D@__crt_stdio_output@@@2@@__crt_stdio_output@@AAE_NXZ 0042ebaa f i libucrt:output.obj
 0001:0002dbb4       ?type_case_X@?$output_processor@DV?$stream_output_adapter@D@__crt_stdio_output@@V?$standard_base@DV?$stream_output_adapter@D@__crt_stdio_output@@@2@@__crt_stdio_output@@AAE_NXZ 0042ebb4 f i libucrt:output.obj
 0001:0002dbbe       ?type_case_X@?$output_processor@DV?$string_output_adapter@D@__crt_stdio_output@@V?$format_validation_base@DV?$string_output_adapter@D@__crt_stdio_output@@@2@@__crt_stdio_output@@AAE_NXZ 0042ebbe f i libucrt:output.obj
 0001:0002dbc8       ?type_case_X@?$output_processor@DV?$string_output_adapter@D@__crt_stdio_output@@V?$positional_parameter_base@DV?$string_output_adapter@D@__crt_stdio_output@@@2@@__crt_stdio_output@@AAE_NXZ 0042ebc8 f i libucrt:output.obj
 0001:0002dbd2       ?type_case_X@?$output_processor@DV?$string_output_adapter@D@__crt_stdio_output@@V?$standard_base@DV?$string_output_adapter@D@__crt_stdio_output@@@2@@__crt_stdio_output@@AAE_NXZ 0042ebd2 f i libucrt:output.obj
 0001:0002dbdc       ?type_case_X@?$output_processor@_WV?$stream_output_adapter@_W@__crt_stdio_output@@V?$format_validation_base@_WV?$stream_output_adapter@_W@__crt_stdio_output@@@2@@__crt_stdio_output@@AAE_NXZ 0042ebdc f i libucrt:output.obj
 0001:0002dbe6       ?type_case_X@?$output_processor@_WV?$stream_output_adapter@_W@__crt_stdio_output@@V?$positional_parameter_base@_WV?$stream_output_adapter@_W@__crt_stdio_output@@@2@@__crt_stdio_output@@AAE_NXZ 0042ebe6 f i libucrt:output.obj
 0001:0002dbf0       ?type_case_X@?$output_processor@_WV?$stream_output_adapter@_W@__crt_stdio_output@@V?$standard_base@_WV?$stream_output_adapter@_W@__crt_stdio_output@@@2@@__crt_stdio_output@@AAE_NXZ 0042ebf0 f i libucrt:output.obj
 0001:0002dbfa       ?type_case_X@?$output_processor@_WV?$string_output_adapter@_W@__crt_stdio_output@@V?$format_validation_base@_WV?$string_output_adapter@_W@__crt_stdio_output@@@2@@__crt_stdio_output@@AAE_NXZ 0042ebfa f i libucrt:output.obj
 0001:0002dc04       ?type_case_X@?$output_processor@_WV?$string_output_adapter@_W@__crt_stdio_output@@V?$positional_parameter_base@_WV?$string_output_adapter@_W@__crt_stdio_output@@@2@@__crt_stdio_output@@AAE_NXZ 0042ec04 f i libucrt:output.obj
 0001:0002dc0e       ?type_case_X@?$output_processor@_WV?$string_output_adapter@_W@__crt_stdio_output@@V?$standard_base@_WV?$string_output_adapter@_W@__crt_stdio_output@@@2@@__crt_stdio_output@@AAE_NXZ 0042ec0e f i libucrt:output.obj
 0001:0002dc18       ?type_case_Z@?$output_processor@DV?$stream_output_adapter@D@__crt_stdio_output@@V?$format_validation_base@DV?$stream_output_adapter@D@__crt_stdio_output@@@2@@__crt_stdio_output@@AAE_NXZ 0042ec18 f i libucrt:output.obj
 0001:0002dc88       ?type_case_Z@?$output_processor@DV?$stream_output_adapter@D@__crt_stdio_output@@V?$positional_parameter_base@DV?$stream_output_adapter@D@__crt_stdio_output@@@2@@__crt_stdio_output@@AAE_NXZ 0042ec88 f i libucrt:output.obj
 0001:0002dd19       ?type_case_Z@?$output_processor@DV?$stream_output_adapter@D@__crt_stdio_output@@V?$standard_base@DV?$stream_output_adapter@D@__crt_stdio_output@@@2@@__crt_stdio_output@@AAE_NXZ 0042ed19 f i libucrt:output.obj
 0001:0002dd89       ?type_case_Z@?$output_processor@DV?$string_output_adapter@D@__crt_stdio_output@@V?$format_validation_base@DV?$string_output_adapter@D@__crt_stdio_output@@@2@@__crt_stdio_output@@AAE_NXZ 0042ed89 f i libucrt:output.obj
 0001:0002ddf9       ?type_case_Z@?$output_processor@DV?$string_output_adapter@D@__crt_stdio_output@@V?$positional_parameter_base@DV?$string_output_adapter@D@__crt_stdio_output@@@2@@__crt_stdio_output@@AAE_NXZ 0042edf9 f i libucrt:output.obj
 0001:0002de8a       ?type_case_Z@?$output_processor@DV?$string_output_adapter@D@__crt_stdio_output@@V?$standard_base@DV?$string_output_adapter@D@__crt_stdio_output@@@2@@__crt_stdio_output@@AAE_NXZ 0042ee8a f i libucrt:output.obj
 0001:0002defa       ?type_case_Z@?$output_processor@_WV?$stream_output_adapter@_W@__crt_stdio_output@@V?$format_validation_base@_WV?$stream_output_adapter@_W@__crt_stdio_output@@@2@@__crt_stdio_output@@AAE_NXZ 0042eefa f i libucrt:output.obj
 0001:0002df6a       ?type_case_Z@?$output_processor@_WV?$stream_output_adapter@_W@__crt_stdio_output@@V?$positional_parameter_base@_WV?$stream_output_adapter@_W@__crt_stdio_output@@@2@@__crt_stdio_output@@AAE_NXZ 0042ef6a f i libucrt:output.obj
 0001:0002dffb       ?type_case_Z@?$output_processor@_WV?$stream_output_adapter@_W@__crt_stdio_output@@V?$standard_base@_WV?$stream_output_adapter@_W@__crt_stdio_output@@@2@@__crt_stdio_output@@AAE_NXZ 0042effb f i libucrt:output.obj
 0001:0002e06b       ?type_case_Z@?$output_processor@_WV?$string_output_adapter@_W@__crt_stdio_output@@V?$format_validation_base@_WV?$string_output_adapter@_W@__crt_stdio_output@@@2@@__crt_stdio_output@@AAE_NXZ 0042f06b f i libucrt:output.obj
 0001:0002e0db       ?type_case_Z@?$output_processor@_WV?$string_output_adapter@_W@__crt_stdio_output@@V?$positional_parameter_base@_WV?$string_output_adapter@_W@__crt_stdio_output@@@2@@__crt_stdio_output@@AAE_NXZ 0042f0db f i libucrt:output.obj
 0001:0002e16c       ?type_case_Z@?$output_processor@_WV?$string_output_adapter@_W@__crt_stdio_output@@V?$standard_base@_WV?$string_output_adapter@_W@__crt_stdio_output@@@2@@__crt_stdio_output@@AAE_NXZ 0042f16c f i libucrt:output.obj
 0001:0002e1dc       ?type_case_a@?$output_processor@DV?$stream_output_adapter@D@__crt_stdio_output@@V?$format_validation_base@DV?$stream_output_adapter@D@__crt_stdio_output@@@2@@__crt_stdio_output@@AAE_NXZ 0042f1dc f i libucrt:output.obj
 0001:0002e3c8       ?type_case_a@?$output_processor@DV?$stream_output_adapter@D@__crt_stdio_output@@V?$positional_parameter_base@DV?$stream_output_adapter@D@__crt_stdio_output@@@2@@__crt_stdio_output@@AAE_NXZ 0042f3c8 f i libucrt:output.obj
 0001:0002e5dd       ?type_case_a@?$output_processor@DV?$stream_output_adapter@D@__crt_stdio_output@@V?$standard_base@DV?$stream_output_adapter@D@__crt_stdio_output@@@2@@__crt_stdio_output@@AAE_NXZ 0042f5dd f i libucrt:output.obj
 0001:0002e7c9       ?type_case_a@?$output_processor@DV?$string_output_adapter@D@__crt_stdio_output@@V?$format_validation_base@DV?$string_output_adapter@D@__crt_stdio_output@@@2@@__crt_stdio_output@@AAE_NXZ 0042f7c9 f i libucrt:output.obj
 0001:0002e9b5       ?type_case_a@?$output_processor@DV?$string_output_adapter@D@__crt_stdio_output@@V?$positional_parameter_base@DV?$string_output_adapter@D@__crt_stdio_output@@@2@@__crt_stdio_output@@AAE_NXZ 0042f9b5 f i libucrt:output.obj
 0001:0002ebca       ?type_case_a@?$output_processor@DV?$string_output_adapter@D@__crt_stdio_output@@V?$standard_base@DV?$string_output_adapter@D@__crt_stdio_output@@@2@@__crt_stdio_output@@AAE_NXZ 0042fbca f i libucrt:output.obj
 0001:0002edb6       ?type_case_a@?$output_processor@_WV?$stream_output_adapter@_W@__crt_stdio_output@@V?$format_validation_base@_WV?$stream_output_adapter@_W@__crt_stdio_output@@@2@@__crt_stdio_output@@AAE_NXZ 0042fdb6 f i libucrt:output.obj
 0001:0002efbe       ?type_case_a@?$output_processor@_WV?$stream_output_adapter@_W@__crt_stdio_output@@V?$positional_parameter_base@_WV?$stream_output_adapter@_W@__crt_stdio_output@@@2@@__crt_stdio_output@@AAE_NXZ 0042ffbe f i libucrt:output.obj
 0001:0002f1ef       ?type_case_a@?$output_processor@_WV?$stream_output_adapter@_W@__crt_stdio_output@@V?$standard_base@_WV?$stream_output_adapter@_W@__crt_stdio_output@@@2@@__crt_stdio_output@@AAE_NXZ 004301ef f i libucrt:output.obj
 0001:0002f3f7       ?type_case_a@?$output_processor@_WV?$string_output_adapter@_W@__crt_stdio_output@@V?$format_validation_base@_WV?$string_output_adapter@_W@__crt_stdio_output@@@2@@__crt_stdio_output@@AAE_NXZ 004303f7 f i libucrt:output.obj
 0001:0002f5ff       ?type_case_a@?$output_processor@_WV?$string_output_adapter@_W@__crt_stdio_output@@V?$positional_parameter_base@_WV?$string_output_adapter@_W@__crt_stdio_output@@@2@@__crt_stdio_output@@AAE_NXZ 004305ff f i libucrt:output.obj
 0001:0002f830       ?type_case_a@?$output_processor@_WV?$string_output_adapter@_W@__crt_stdio_output@@V?$standard_base@_WV?$string_output_adapter@_W@__crt_stdio_output@@@2@@__crt_stdio_output@@AAE_NXZ 00430830 f i libucrt:output.obj
 0001:0002fa38       ?type_case_c@?$output_processor@DV?$stream_output_adapter@D@__crt_stdio_output@@V?$format_validation_base@DV?$stream_output_adapter@D@__crt_stdio_output@@@2@@__crt_stdio_output@@AAE_NXZ 00430a38 f i libucrt:output.obj
 0001:0002fa42       ?type_case_c@?$output_processor@DV?$stream_output_adapter@D@__crt_stdio_output@@V?$positional_parameter_base@DV?$stream_output_adapter@D@__crt_stdio_output@@@2@@__crt_stdio_output@@AAE_NXZ 00430a42 f i libucrt:output.obj
 0001:0002fa4c       ?type_case_c@?$output_processor@DV?$stream_output_adapter@D@__crt_stdio_output@@V?$standard_base@DV?$stream_output_adapter@D@__crt_stdio_output@@@2@@__crt_stdio_output@@AAE_NXZ 00430a4c f i libucrt:output.obj
 0001:0002fa56       ?type_case_c@?$output_processor@DV?$string_output_adapter@D@__crt_stdio_output@@V?$format_validation_base@DV?$string_output_adapter@D@__crt_stdio_output@@@2@@__crt_stdio_output@@AAE_NXZ 00430a56 f i libucrt:output.obj
 0001:0002fa60       ?type_case_c@?$output_processor@DV?$string_output_adapter@D@__crt_stdio_output@@V?$positional_parameter_base@DV?$string_output_adapter@D@__crt_stdio_output@@@2@@__crt_stdio_output@@AAE_NXZ 00430a60 f i libucrt:output.obj
 0001:0002fa6a       ?type_case_c@?$output_processor@DV?$string_output_adapter@D@__crt_stdio_output@@V?$standard_base@DV?$string_output_adapter@D@__crt_stdio_output@@@2@@__crt_stdio_output@@AAE_NXZ 00430a6a f i libucrt:output.obj
 0001:0002fa74       ?type_case_c@?$output_processor@_WV?$stream_output_adapter@_W@__crt_stdio_output@@V?$format_validation_base@_WV?$stream_output_adapter@_W@__crt_stdio_output@@@2@@__crt_stdio_output@@AAE_NXZ 00430a74 f i libucrt:output.obj
 0001:0002fa7e       ?type_case_c@?$output_processor@_WV?$stream_output_adapter@_W@__crt_stdio_output@@V?$positional_parameter_base@_WV?$stream_output_adapter@_W@__crt_stdio_output@@@2@@__crt_stdio_output@@AAE_NXZ 00430a7e f i libucrt:output.obj
 0001:0002fa88       ?type_case_c@?$output_processor@_WV?$stream_output_adapter@_W@__crt_stdio_output@@V?$standard_base@_WV?$stream_output_adapter@_W@__crt_stdio_output@@@2@@__crt_stdio_output@@AAE_NXZ 00430a88 f i libucrt:output.obj
 0001:0002fa92       ?type_case_c@?$output_processor@_WV?$string_output_adapter@_W@__crt_stdio_output@@V?$format_validation_base@_WV?$string_output_adapter@_W@__crt_stdio_output@@@2@@__crt_stdio_output@@AAE_NXZ 00430a92 f i libucrt:output.obj
 0001:0002fa9c       ?type_case_c@?$output_processor@_WV?$string_output_adapter@_W@__crt_stdio_output@@V?$positional_parameter_base@_WV?$string_output_adapter@_W@__crt_stdio_output@@@2@@__crt_stdio_output@@AAE_NXZ 00430a9c f i libucrt:output.obj
 0001:0002faa6       ?type_case_c@?$output_processor@_WV?$string_output_adapter@_W@__crt_stdio_output@@V?$standard_base@_WV?$string_output_adapter@_W@__crt_stdio_output@@@2@@__crt_stdio_output@@AAE_NXZ 00430aa6 f i libucrt:output.obj
 0001:0002fab0       ?type_case_c_tchar@?$output_processor@DV?$stream_output_adapter@D@__crt_stdio_output@@V?$format_validation_base@DV?$stream_output_adapter@D@__crt_stdio_output@@@2@@__crt_stdio_output@@AAE_ND@Z 00430ab0 f i libucrt:output.obj
 0001:0002fb6a       ?type_case_c_tchar@?$output_processor@DV?$stream_output_adapter@D@__crt_stdio_output@@V?$positional_parameter_base@DV?$stream_output_adapter@D@__crt_stdio_output@@@2@@__crt_stdio_output@@AAE_ND@Z 00430b6a f i libucrt:output.obj
 0001:0002fc5b       ?type_case_c_tchar@?$output_processor@DV?$stream_output_adapter@D@__crt_stdio_output@@V?$standard_base@DV?$stream_output_adapter@D@__crt_stdio_output@@@2@@__crt_stdio_output@@AAE_ND@Z 00430c5b f i libucrt:output.obj
 0001:0002fd15       ?type_case_c_tchar@?$output_processor@DV?$string_output_adapter@D@__crt_stdio_output@@V?$format_validation_base@DV?$string_output_adapter@D@__crt_stdio_output@@@2@@__crt_stdio_output@@AAE_ND@Z 00430d15 f i libucrt:output.obj
 0001:0002fdcf       ?type_case_c_tchar@?$output_processor@DV?$string_output_adapter@D@__crt_stdio_output@@V?$positional_parameter_base@DV?$string_output_adapter@D@__crt_stdio_output@@@2@@__crt_stdio_output@@AAE_ND@Z 00430dcf f i libucrt:output.obj
 0001:0002fec0       ?type_case_c_tchar@?$output_processor@DV?$string_output_adapter@D@__crt_stdio_output@@V?$standard_base@DV?$string_output_adapter@D@__crt_stdio_output@@@2@@__crt_stdio_output@@AAE_ND@Z 00430ec0 f i libucrt:output.obj
 0001:0002ff7a       ?type_case_c_tchar@?$output_processor@_WV?$stream_output_adapter@_W@__crt_stdio_output@@V?$format_validation_base@_WV?$stream_output_adapter@_W@__crt_stdio_output@@@2@@__crt_stdio_output@@AAE_N_W@Z 00430f7a f i libucrt:output.obj
 0001:0003004a       ?type_case_c_tchar@?$output_processor@_WV?$stream_output_adapter@_W@__crt_stdio_output@@V?$positional_parameter_base@_WV?$stream_output_adapter@_W@__crt_stdio_output@@@2@@__crt_stdio_output@@AAE_N_W@Z 0043104a f i libucrt:output.obj
 0001:00030147       ?type_case_c_tchar@?$output_processor@_WV?$stream_output_adapter@_W@__crt_stdio_output@@V?$standard_base@_WV?$stream_output_adapter@_W@__crt_stdio_output@@@2@@__crt_stdio_output@@AAE_N_W@Z 00431147 f i libucrt:output.obj
 0001:00030217       ?type_case_c_tchar@?$output_processor@_WV?$string_output_adapter@_W@__crt_stdio_output@@V?$format_validation_base@_WV?$string_output_adapter@_W@__crt_stdio_output@@@2@@__crt_stdio_output@@AAE_N_W@Z 00431217 f i libucrt:output.obj
 0001:000302e7       ?type_case_c_tchar@?$output_processor@_WV?$string_output_adapter@_W@__crt_stdio_output@@V?$positional_parameter_base@_WV?$string_output_adapter@_W@__crt_stdio_output@@@2@@__crt_stdio_output@@AAE_N_W@Z 004312e7 f i libucrt:output.obj
 0001:000303e4       ?type_case_c_tchar@?$output_processor@_WV?$string_output_adapter@_W@__crt_stdio_output@@V?$standard_base@_WV?$string_output_adapter@_W@__crt_stdio_output@@@2@@__crt_stdio_output@@AAE_N_W@Z 004313e4 f i libucrt:output.obj
 0001:000304b4       ?type_case_d@?$output_processor@DV?$stream_output_adapter@D@__crt_stdio_output@@V?$format_validation_base@DV?$stream_output_adapter@D@__crt_stdio_output@@@2@@__crt_stdio_output@@AAE_NXZ 004314b4 f i libucrt:output.obj
 0001:000304c3       ?type_case_d@?$output_processor@DV?$stream_output_adapter@D@__crt_stdio_output@@V?$positional_parameter_base@DV?$stream_output_adapter@D@__crt_stdio_output@@@2@@__crt_stdio_output@@AAE_NXZ 004314c3 f i libucrt:output.obj
 0001:000304d2       ?type_case_d@?$output_processor@DV?$stream_output_adapter@D@__crt_stdio_output@@V?$standard_base@DV?$stream_output_adapter@D@__crt_stdio_output@@@2@@__crt_stdio_output@@AAE_NXZ 004314d2 f i libucrt:output.obj
 0001:000304e1       ?type_case_d@?$output_processor@DV?$string_output_adapter@D@__crt_stdio_output@@V?$format_validation_base@DV?$string_output_adapter@D@__crt_stdio_output@@@2@@__crt_stdio_output@@AAE_NXZ 004314e1 f i libucrt:output.obj
 0001:000304f0       ?type_case_d@?$output_processor@DV?$string_output_adapter@D@__crt_stdio_output@@V?$positional_parameter_base@DV?$string_output_adapter@D@__crt_stdio_output@@@2@@__crt_stdio_output@@AAE_NXZ 004314f0 f i libucrt:output.obj
 0001:000304ff       ?type_case_d@?$output_processor@DV?$string_output_adapter@D@__crt_stdio_output@@V?$standard_base@DV?$string_output_adapter@D@__crt_stdio_output@@@2@@__crt_stdio_output@@AAE_NXZ 004314ff f i libucrt:output.obj
 0001:0003050e       ?type_case_d@?$output_processor@_WV?$stream_output_adapter@_W@__crt_stdio_output@@V?$format_validation_base@_WV?$stream_output_adapter@_W@__crt_stdio_output@@@2@@__crt_stdio_output@@AAE_NXZ 0043150e f i libucrt:output.obj
 0001:0003051d       ?type_case_d@?$output_processor@_WV?$stream_output_adapter@_W@__crt_stdio_output@@V?$positional_parameter_base@_WV?$stream_output_adapter@_W@__crt_stdio_output@@@2@@__crt_stdio_output@@AAE_NXZ 0043151d f i libucrt:output.obj
 0001:0003052c       ?type_case_d@?$output_processor@_WV?$stream_output_adapter@_W@__crt_stdio_output@@V?$standard_base@_WV?$stream_output_adapter@_W@__crt_stdio_output@@@2@@__crt_stdio_output@@AAE_NXZ 0043152c f i libucrt:output.obj
 0001:0003053b       ?type_case_d@?$output_processor@_WV?$string_output_adapter@_W@__crt_stdio_output@@V?$format_validation_base@_WV?$string_output_adapter@_W@__crt_stdio_output@@@2@@__crt_stdio_output@@AAE_NXZ 0043153b f i libucrt:output.obj
 0001:0003054a       ?type_case_d@?$output_processor@_WV?$string_output_adapter@_W@__crt_stdio_output@@V?$positional_parameter_base@_WV?$string_output_adapter@_W@__crt_stdio_output@@@2@@__crt_stdio_output@@AAE_NXZ 0043154a f i libucrt:output.obj
 0001:00030559       ?type_case_d@?$output_processor@_WV?$string_output_adapter@_W@__crt_stdio_output@@V?$standard_base@_WV?$string_output_adapter@_W@__crt_stdio_output@@@2@@__crt_stdio_output@@AAE_NXZ 00431559 f i libucrt:output.obj
 0001:00030568       ?type_case_n@?$output_processor@DV?$stream_output_adapter@D@__crt_stdio_output@@V?$format_validation_base@DV?$stream_output_adapter@D@__crt_stdio_output@@@2@@__crt_stdio_output@@AAE_NXZ 00431568 f i libucrt:output.obj
 0001:0003060d       ?type_case_n@?$output_processor@DV?$stream_output_adapter@D@__crt_stdio_output@@V?$positional_parameter_base@DV?$stream_output_adapter@D@__crt_stdio_output@@@2@@__crt_stdio_output@@AAE_NXZ 0043160d f i libucrt:output.obj
 0001:000306e5       ?type_case_n@?$output_processor@DV?$stream_output_adapter@D@__crt_stdio_output@@V?$standard_base@DV?$stream_output_adapter@D@__crt_stdio_output@@@2@@__crt_stdio_output@@AAE_NXZ 004316e5 f i libucrt:output.obj
 0001:0003078a       ?type_case_n@?$output_processor@DV?$string_output_adapter@D@__crt_stdio_output@@V?$format_validation_base@DV?$string_output_adapter@D@__crt_stdio_output@@@2@@__crt_stdio_output@@AAE_NXZ 0043178a f i libucrt:output.obj
 0001:0003082f       ?type_case_n@?$output_processor@DV?$string_output_adapter@D@__crt_stdio_output@@V?$positional_parameter_base@DV?$string_output_adapter@D@__crt_stdio_output@@@2@@__crt_stdio_output@@AAE_NXZ 0043182f f i libucrt:output.obj
 0001:00030907       ?type_case_n@?$output_processor@DV?$string_output_adapter@D@__crt_stdio_output@@V?$standard_base@DV?$string_output_adapter@D@__crt_stdio_output@@@2@@__crt_stdio_output@@AAE_NXZ 00431907 f i libucrt:output.obj
 0001:000309ac       ?type_case_n@?$output_processor@_WV?$stream_output_adapter@_W@__crt_stdio_output@@V?$format_validation_base@_WV?$stream_output_adapter@_W@__crt_stdio_output@@@2@@__crt_stdio_output@@AAE_NXZ 004319ac f i libucrt:output.obj
 0001:00030a51       ?type_case_n@?$output_processor@_WV?$stream_output_adapter@_W@__crt_stdio_output@@V?$positional_parameter_base@_WV?$stream_output_adapter@_W@__crt_stdio_output@@@2@@__crt_stdio_output@@AAE_NXZ 00431a51 f i libucrt:output.obj
 0001:00030b29       ?type_case_n@?$output_processor@_WV?$stream_output_adapter@_W@__crt_stdio_output@@V?$standard_base@_WV?$stream_output_adapter@_W@__crt_stdio_output@@@2@@__crt_stdio_output@@AAE_NXZ 00431b29 f i libucrt:output.obj
 0001:00030bce       ?type_case_n@?$output_processor@_WV?$string_output_adapter@_W@__crt_stdio_output@@V?$format_validation_base@_WV?$string_output_adapter@_W@__crt_stdio_output@@@2@@__crt_stdio_output@@AAE_NXZ 00431bce f i libucrt:output.obj
 0001:00030c73       ?type_case_n@?$output_processor@_WV?$string_output_adapter@_W@__crt_stdio_output@@V?$positional_parameter_base@_WV?$string_output_adapter@_W@__crt_stdio_output@@@2@@__crt_stdio_output@@AAE_NXZ 00431c73 f i libucrt:output.obj
 0001:00030d4b       ?type_case_n@?$output_processor@_WV?$string_output_adapter@_W@__crt_stdio_output@@V?$standard_base@_WV?$string_output_adapter@_W@__crt_stdio_output@@@2@@__crt_stdio_output@@AAE_NXZ 00431d4b f i libucrt:output.obj
 0001:00030df0       ?type_case_o@?$output_processor@DV?$stream_output_adapter@D@__crt_stdio_output@@V?$format_validation_base@DV?$stream_output_adapter@D@__crt_stdio_output@@@2@@__crt_stdio_output@@AAE_NXZ 00431df0 f i libucrt:output.obj
 0001:00030e14       ?type_case_o@?$output_processor@DV?$stream_output_adapter@D@__crt_stdio_output@@V?$positional_parameter_base@DV?$stream_output_adapter@D@__crt_stdio_output@@@2@@__crt_stdio_output@@AAE_NXZ 00431e14 f i libucrt:output.obj
 0001:00030e38       ?type_case_o@?$output_processor@DV?$stream_output_adapter@D@__crt_stdio_output@@V?$standard_base@DV?$stream_output_adapter@D@__crt_stdio_output@@@2@@__crt_stdio_output@@AAE_NXZ 00431e38 f i libucrt:output.obj
 0001:00030e5c       ?type_case_o@?$output_processor@DV?$string_output_adapter@D@__crt_stdio_output@@V?$format_validation_base@DV?$string_output_adapter@D@__crt_stdio_output@@@2@@__crt_stdio_output@@AAE_NXZ 00431e5c f i libucrt:output.obj
 0001:00030e80       ?type_case_o@?$output_processor@DV?$string_output_adapter@D@__crt_stdio_output@@V?$positional_parameter_base@DV?$string_output_adapter@D@__crt_stdio_output@@@2@@__crt_stdio_output@@AAE_NXZ 00431e80 f i libucrt:output.obj
 0001:00030ea4       ?type_case_o@?$output_processor@DV?$string_output_adapter@D@__crt_stdio_output@@V?$standard_base@DV?$string_output_adapter@D@__crt_stdio_output@@@2@@__crt_stdio_output@@AAE_NXZ 00431ea4 f i libucrt:output.obj
 0001:00030ec8       ?type_case_o@?$output_processor@_WV?$stream_output_adapter@_W@__crt_stdio_output@@V?$format_validation_base@_WV?$stream_output_adapter@_W@__crt_stdio_output@@@2@@__crt_stdio_output@@AAE_NXZ 00431ec8 f i libucrt:output.obj
 0001:00030eec       ?type_case_o@?$output_processor@_WV?$stream_output_adapter@_W@__crt_stdio_output@@V?$positional_parameter_base@_WV?$stream_output_adapter@_W@__crt_stdio_output@@@2@@__crt_stdio_output@@AAE_NXZ 00431eec f i libucrt:output.obj
 0001:00030f10       ?type_case_o@?$output_processor@_WV?$stream_output_adapter@_W@__crt_stdio_output@@V?$standard_base@_WV?$stream_output_adapter@_W@__crt_stdio_output@@@2@@__crt_stdio_output@@AAE_NXZ 00431f10 f i libucrt:output.obj
 0001:00030f34       ?type_case_o@?$output_processor@_WV?$string_output_adapter@_W@__crt_stdio_output@@V?$format_validation_base@_WV?$string_output_adapter@_W@__crt_stdio_output@@@2@@__crt_stdio_output@@AAE_NXZ 00431f34 f i libucrt:output.obj
 0001:00030f58       ?type_case_o@?$output_processor@_WV?$string_output_adapter@_W@__crt_stdio_output@@V?$positional_parameter_base@_WV?$string_output_adapter@_W@__crt_stdio_output@@@2@@__crt_stdio_output@@AAE_NXZ 00431f58 f i libucrt:output.obj
 0001:00030f7c       ?type_case_o@?$output_processor@_WV?$string_output_adapter@_W@__crt_stdio_output@@V?$standard_base@_WV?$string_output_adapter@_W@__crt_stdio_output@@@2@@__crt_stdio_output@@AAE_NXZ 00431f7c f i libucrt:output.obj
 0001:00030fa0       ?type_case_p@?$output_processor@DV?$stream_output_adapter@D@__crt_stdio_output@@V?$format_validation_base@DV?$stream_output_adapter@D@__crt_stdio_output@@@2@@__crt_stdio_output@@AAE_NXZ 00431fa0 f i libucrt:output.obj
 0001:00030fbb       ?type_case_p@?$output_processor@DV?$stream_output_adapter@D@__crt_stdio_output@@V?$positional_parameter_base@DV?$stream_output_adapter@D@__crt_stdio_output@@@2@@__crt_stdio_output@@AAE_NXZ 00431fbb f i libucrt:output.obj
 0001:00030fd6       ?type_case_p@?$output_processor@DV?$stream_output_adapter@D@__crt_stdio_output@@V?$standard_base@DV?$stream_output_adapter@D@__crt_stdio_output@@@2@@__crt_stdio_output@@AAE_NXZ 00431fd6 f i libucrt:output.obj
 0001:00030ff1       ?type_case_p@?$output_processor@DV?$string_output_adapter@D@__crt_stdio_output@@V?$format_validation_base@DV?$string_output_adapter@D@__crt_stdio_output@@@2@@__crt_stdio_output@@AAE_NXZ 00431ff1 f i libucrt:output.obj
 0001:0003100c       ?type_case_p@?$output_processor@DV?$string_output_adapter@D@__crt_stdio_output@@V?$positional_parameter_base@DV?$string_output_adapter@D@__crt_stdio_output@@@2@@__crt_stdio_output@@AAE_NXZ 0043200c f i libucrt:output.obj
 0001:00031027       ?type_case_p@?$output_processor@DV?$string_output_adapter@D@__crt_stdio_output@@V?$standard_base@DV?$string_output_adapter@D@__crt_stdio_output@@@2@@__crt_stdio_output@@AAE_NXZ 00432027 f i libucrt:output.obj
 0001:00031042       ?type_case_p@?$output_processor@_WV?$stream_output_adapter@_W@__crt_stdio_output@@V?$format_validation_base@_WV?$stream_output_adapter@_W@__crt_stdio_output@@@2@@__crt_stdio_output@@AAE_NXZ 00432042 f i libucrt:output.obj
 0001:0003105d       ?type_case_p@?$output_processor@_WV?$stream_output_adapter@_W@__crt_stdio_output@@V?$positional_parameter_base@_WV?$stream_output_adapter@_W@__crt_stdio_output@@@2@@__crt_stdio_output@@AAE_NXZ 0043205d f i libucrt:output.obj
 0001:00031078       ?type_case_p@?$output_processor@_WV?$stream_output_adapter@_W@__crt_stdio_output@@V?$standard_base@_WV?$stream_output_adapter@_W@__crt_stdio_output@@@2@@__crt_stdio_output@@AAE_NXZ 00432078 f i libucrt:output.obj
 0001:00031093       ?type_case_p@?$output_processor@_WV?$string_output_adapter@_W@__crt_stdio_output@@V?$format_validation_base@_WV?$string_output_adapter@_W@__crt_stdio_output@@@2@@__crt_stdio_output@@AAE_NXZ 00432093 f i libucrt:output.obj
 0001:000310ae       ?type_case_p@?$output_processor@_WV?$string_output_adapter@_W@__crt_stdio_output@@V?$positional_parameter_base@_WV?$string_output_adapter@_W@__crt_stdio_output@@@2@@__crt_stdio_output@@AAE_NXZ 004320ae f i libucrt:output.obj
 0001:000310c9       ?type_case_p@?$output_processor@_WV?$string_output_adapter@_W@__crt_stdio_output@@V?$standard_base@_WV?$string_output_adapter@_W@__crt_stdio_output@@@2@@__crt_stdio_output@@AAE_NXZ 004320c9 f i libucrt:output.obj
 0001:000310e4       ?type_case_s@?$output_processor@DV?$stream_output_adapter@D@__crt_stdio_output@@V?$format_validation_base@DV?$stream_output_adapter@D@__crt_stdio_output@@@2@@__crt_stdio_output@@AAE_NXZ 004320e4 f i libucrt:output.obj
 0001:00031171       ?type_case_s@?$output_processor@DV?$stream_output_adapter@D@__crt_stdio_output@@V?$positional_parameter_base@DV?$stream_output_adapter@D@__crt_stdio_output@@@2@@__crt_stdio_output@@AAE_NXZ 00432171 f i libucrt:output.obj
 0001:0003120e       ?type_case_s@?$output_processor@DV?$stream_output_adapter@D@__crt_stdio_output@@V?$standard_base@DV?$stream_output_adapter@D@__crt_stdio_output@@@2@@__crt_stdio_output@@AAE_NXZ 0043220e f i libucrt:output.obj
 0001:0003129b       ?type_case_s@?$output_processor@DV?$string_output_adapter@D@__crt_stdio_output@@V?$format_validation_base@DV?$string_output_adapter@D@__crt_stdio_output@@@2@@__crt_stdio_output@@AAE_NXZ 0043229b f i libucrt:output.obj
 0001:00031328       ?type_case_s@?$output_processor@DV?$string_output_adapter@D@__crt_stdio_output@@V?$positional_parameter_base@DV?$string_output_adapter@D@__crt_stdio_output@@@2@@__crt_stdio_output@@AAE_NXZ 00432328 f i libucrt:output.obj
 0001:000313c5       ?type_case_s@?$output_processor@DV?$string_output_adapter@D@__crt_stdio_output@@V?$standard_base@DV?$string_output_adapter@D@__crt_stdio_output@@@2@@__crt_stdio_output@@AAE_NXZ 004323c5 f i libucrt:output.obj
 0001:00031452       ?type_case_s@?$output_processor@_WV?$stream_output_adapter@_W@__crt_stdio_output@@V?$format_validation_base@_WV?$stream_output_adapter@_W@__crt_stdio_output@@@2@@__crt_stdio_output@@AAE_NXZ 00432452 f i libucrt:output.obj
 0001:000314e1       ?type_case_s@?$output_processor@_WV?$stream_output_adapter@_W@__crt_stdio_output@@V?$positional_parameter_base@_WV?$stream_output_adapter@_W@__crt_stdio_output@@@2@@__crt_stdio_output@@AAE_NXZ 004324e1 f i libucrt:output.obj
 0001:00031581       ?type_case_s@?$output_processor@_WV?$stream_output_adapter@_W@__crt_stdio_output@@V?$standard_base@_WV?$stream_output_adapter@_W@__crt_stdio_output@@@2@@__crt_stdio_output@@AAE_NXZ 00432581 f i libucrt:output.obj
 0001:00031610       ?type_case_s@?$output_processor@_WV?$string_output_adapter@_W@__crt_stdio_output@@V?$format_validation_base@_WV?$string_output_adapter@_W@__crt_stdio_output@@@2@@__crt_stdio_output@@AAE_NXZ 00432610 f i libucrt:output.obj
 0001:0003169f       ?type_case_s@?$output_processor@_WV?$string_output_adapter@_W@__crt_stdio_output@@V?$positional_parameter_base@_WV?$string_output_adapter@_W@__crt_stdio_output@@@2@@__crt_stdio_output@@AAE_NXZ 0043269f f i libucrt:output.obj
 0001:0003173f       ?type_case_s@?$output_processor@_WV?$string_output_adapter@_W@__crt_stdio_output@@V?$standard_base@_WV?$string_output_adapter@_W@__crt_stdio_output@@@2@@__crt_stdio_output@@AAE_NXZ 0043273f f i libucrt:output.obj
 0001:000317ce       ?type_case_s_compute_narrow_string_length@?$output_processor@DV?$stream_output_adapter@D@__crt_stdio_output@@V?$format_validation_base@DV?$stream_output_adapter@D@__crt_stdio_output@@@2@@__crt_stdio_output@@AAEHHD@Z 004327ce f i libucrt:output.obj
 0001:000317e9       ?type_case_s_compute_narrow_string_length@?$output_processor@DV?$stream_output_adapter@D@__crt_stdio_output@@V?$positional_parameter_base@DV?$stream_output_adapter@D@__crt_stdio_output@@@2@@__crt_stdio_output@@AAEHHD@Z 004327e9 f i libucrt:output.obj
 0001:00031804       ?type_case_s_compute_narrow_string_length@?$output_processor@DV?$stream_output_adapter@D@__crt_stdio_output@@V?$standard_base@DV?$stream_output_adapter@D@__crt_stdio_output@@@2@@__crt_stdio_output@@AAEHHD@Z 00432804 f i libucrt:output.obj
 0001:0003181f       ?type_case_s_compute_narrow_string_length@?$output_processor@DV?$string_output_adapter@D@__crt_stdio_output@@V?$format_validation_base@DV?$string_output_adapter@D@__crt_stdio_output@@@2@@__crt_stdio_output@@AAEHHD@Z 0043281f f i libucrt:output.obj
 0001:0003183a       ?type_case_s_compute_narrow_string_length@?$output_processor@DV?$string_output_adapter@D@__crt_stdio_output@@V?$positional_parameter_base@DV?$string_output_adapter@D@__crt_stdio_output@@@2@@__crt_stdio_output@@AAEHHD@Z 0043283a f i libucrt:output.obj
 0001:00031855       ?type_case_s_compute_narrow_string_length@?$output_processor@DV?$string_output_adapter@D@__crt_stdio_output@@V?$standard_base@DV?$string_output_adapter@D@__crt_stdio_output@@@2@@__crt_stdio_output@@AAEHHD@Z 00432855 f i libucrt:output.obj
 0001:00031870       ?type_case_s_compute_narrow_string_length@?$output_processor@_WV?$stream_output_adapter@_W@__crt_stdio_output@@V?$format_validation_base@_WV?$stream_output_adapter@_W@__crt_stdio_output@@@2@@__crt_stdio_output@@AAEHH_W@Z 00432870 f i libucrt:output.obj
 0001:000318da       ?type_case_s_compute_narrow_string_length@?$output_processor@_WV?$stream_output_adapter@_W@__crt_stdio_output@@V?$positional_parameter_base@_WV?$stream_output_adapter@_W@__crt_stdio_output@@@2@@__crt_stdio_output@@AAEHH_W@Z 004328da f i libucrt:output.obj
 0001:00031944       ?type_case_s_compute_narrow_string_length@?$output_processor@_WV?$stream_output_adapter@_W@__crt_stdio_output@@V?$standard_base@_WV?$stream_output_adapter@_W@__crt_stdio_output@@@2@@__crt_stdio_output@@AAEHH_W@Z 00432944 f i libucrt:output.obj
 0001:000319ae       ?type_case_s_compute_narrow_string_length@?$output_processor@_WV?$string_output_adapter@_W@__crt_stdio_output@@V?$format_validation_base@_WV?$string_output_adapter@_W@__crt_stdio_output@@@2@@__crt_stdio_output@@AAEHH_W@Z 004329ae f i libucrt:output.obj
 0001:00031a18       ?type_case_s_compute_narrow_string_length@?$output_processor@_WV?$string_output_adapter@_W@__crt_stdio_output@@V?$positional_parameter_base@_WV?$string_output_adapter@_W@__crt_stdio_output@@@2@@__crt_stdio_output@@AAEHH_W@Z 00432a18 f i libucrt:output.obj
 0001:00031a82       ?type_case_s_compute_narrow_string_length@?$output_processor@_WV?$string_output_adapter@_W@__crt_stdio_output@@V?$standard_base@_WV?$string_output_adapter@_W@__crt_stdio_output@@@2@@__crt_stdio_output@@AAEHH_W@Z 00432a82 f i libucrt:output.obj
 0001:00031aec       ?type_case_u@?$output_processor@DV?$stream_output_adapter@D@__crt_stdio_output@@V?$format_validation_base@DV?$stream_output_adapter@D@__crt_stdio_output@@@2@@__crt_stdio_output@@AAE_NXZ 00432aec f i libucrt:output.obj
 0001:00031af6       ?type_case_u@?$output_processor@DV?$stream_output_adapter@D@__crt_stdio_output@@V?$positional_parameter_base@DV?$stream_output_adapter@D@__crt_stdio_output@@@2@@__crt_stdio_output@@AAE_NXZ 00432af6 f i libucrt:output.obj
 0001:00031b00       ?type_case_u@?$output_processor@DV?$stream_output_adapter@D@__crt_stdio_output@@V?$standard_base@DV?$stream_output_adapter@D@__crt_stdio_output@@@2@@__crt_stdio_output@@AAE_NXZ 00432b00 f i libucrt:output.obj
 0001:00031b0a       ?type_case_u@?$output_processor@DV?$string_output_adapter@D@__crt_stdio_output@@V?$format_validation_base@DV?$string_output_adapter@D@__crt_stdio_output@@@2@@__crt_stdio_output@@AAE_NXZ 00432b0a f i libucrt:output.obj
 0001:00031b14       ?type_case_u@?$output_processor@DV?$string_output_adapter@D@__crt_stdio_output@@V?$positional_parameter_base@DV?$string_output_adapter@D@__crt_stdio_output@@@2@@__crt_stdio_output@@AAE_NXZ 00432b14 f i libucrt:output.obj
 0001:00031b1e       ?type_case_u@?$output_processor@DV?$string_output_adapter@D@__crt_stdio_output@@V?$standard_base@DV?$string_output_adapter@D@__crt_stdio_output@@@2@@__crt_stdio_output@@AAE_NXZ 00432b1e f i libucrt:output.obj
 0001:00031b28       ?type_case_u@?$output_processor@_WV?$stream_output_adapter@_W@__crt_stdio_output@@V?$format_validation_base@_WV?$stream_output_adapter@_W@__crt_stdio_output@@@2@@__crt_stdio_output@@AAE_NXZ 00432b28 f i libucrt:output.obj
 0001:00031b32       ?type_case_u@?$output_processor@_WV?$stream_output_adapter@_W@__crt_stdio_output@@V?$positional_parameter_base@_WV?$stream_output_adapter@_W@__crt_stdio_output@@@2@@__crt_stdio_output@@AAE_NXZ 00432b32 f i libucrt:output.obj
 0001:00031b3c       ?type_case_u@?$output_processor@_WV?$stream_output_adapter@_W@__crt_stdio_output@@V?$standard_base@_WV?$stream_output_adapter@_W@__crt_stdio_output@@@2@@__crt_stdio_output@@AAE_NXZ 00432b3c f i libucrt:output.obj
 0001:00031b46       ?type_case_u@?$output_processor@_WV?$string_output_adapter@_W@__crt_stdio_output@@V?$format_validation_base@_WV?$string_output_adapter@_W@__crt_stdio_output@@@2@@__crt_stdio_output@@AAE_NXZ 00432b46 f i libucrt:output.obj
 0001:00031b50       ?type_case_u@?$output_processor@_WV?$string_output_adapter@_W@__crt_stdio_output@@V?$positional_parameter_base@_WV?$string_output_adapter@_W@__crt_stdio_output@@@2@@__crt_stdio_output@@AAE_NXZ 00432b50 f i libucrt:output.obj
 0001:00031b5a       ?type_case_u@?$output_processor@_WV?$string_output_adapter@_W@__crt_stdio_output@@V?$standard_base@_WV?$string_output_adapter@_W@__crt_stdio_output@@@2@@__crt_stdio_output@@AAE_NXZ 00432b5a f i libucrt:output.obj
 0001:00031b64       ?type_case_x@?$output_processor@DV?$stream_output_adapter@D@__crt_stdio_output@@V?$format_validation_base@DV?$stream_output_adapter@D@__crt_stdio_output@@@2@@__crt_stdio_output@@AAE_NXZ 00432b64 f i libucrt:output.obj
 0001:00031b6e       ?type_case_x@?$output_processor@DV?$stream_output_adapter@D@__crt_stdio_output@@V?$positional_parameter_base@DV?$stream_output_adapter@D@__crt_stdio_output@@@2@@__crt_stdio_output@@AAE_NXZ 00432b6e f i libucrt:output.obj
 0001:00031b78       ?type_case_x@?$output_processor@DV?$stream_output_adapter@D@__crt_stdio_output@@V?$standard_base@DV?$stream_output_adapter@D@__crt_stdio_output@@@2@@__crt_stdio_output@@AAE_NXZ 00432b78 f i libucrt:output.obj
 0001:00031b82       ?type_case_x@?$output_processor@DV?$string_output_adapter@D@__crt_stdio_output@@V?$format_validation_base@DV?$string_output_adapter@D@__crt_stdio_output@@@2@@__crt_stdio_output@@AAE_NXZ 00432b82 f i libucrt:output.obj
 0001:00031b8c       ?type_case_x@?$output_processor@DV?$string_output_adapter@D@__crt_stdio_output@@V?$positional_parameter_base@DV?$string_output_adapter@D@__crt_stdio_output@@@2@@__crt_stdio_output@@AAE_NXZ 00432b8c f i libucrt:output.obj
 0001:00031b96       ?type_case_x@?$output_processor@DV?$string_output_adapter@D@__crt_stdio_output@@V?$standard_base@DV?$string_output_adapter@D@__crt_stdio_output@@@2@@__crt_stdio_output@@AAE_NXZ 00432b96 f i libucrt:output.obj
 0001:00031ba0       ?type_case_x@?$output_processor@_WV?$stream_output_adapter@_W@__crt_stdio_output@@V?$format_validation_base@_WV?$stream_output_adapter@_W@__crt_stdio_output@@@2@@__crt_stdio_output@@AAE_NXZ 00432ba0 f i libucrt:output.obj
 0001:00031baa       ?type_case_x@?$output_processor@_WV?$stream_output_adapter@_W@__crt_stdio_output@@V?$positional_parameter_base@_WV?$stream_output_adapter@_W@__crt_stdio_output@@@2@@__crt_stdio_output@@AAE_NXZ 00432baa f i libucrt:output.obj
 0001:00031bb4       ?type_case_x@?$output_processor@_WV?$stream_output_adapter@_W@__crt_stdio_output@@V?$standard_base@_WV?$stream_output_adapter@_W@__crt_stdio_output@@@2@@__crt_stdio_output@@AAE_NXZ 00432bb4 f i libucrt:output.obj
 0001:00031bbe       ?type_case_x@?$output_processor@_WV?$string_output_adapter@_W@__crt_stdio_output@@V?$format_validation_base@_WV?$string_output_adapter@_W@__crt_stdio_output@@@2@@__crt_stdio_output@@AAE_NXZ 00432bbe f i libucrt:output.obj
 0001:00031bc8       ?type_case_x@?$output_processor@_WV?$string_output_adapter@_W@__crt_stdio_output@@V?$positional_parameter_base@_WV?$string_output_adapter@_W@__crt_stdio_output@@@2@@__crt_stdio_output@@AAE_NXZ 00432bc8 f i libucrt:output.obj
 0001:00031bd2       ?type_case_x@?$output_processor@_WV?$string_output_adapter@_W@__crt_stdio_output@@V?$standard_base@_WV?$string_output_adapter@_W@__crt_stdio_output@@@2@@__crt_stdio_output@@AAE_NXZ 00432bd2 f i libucrt:output.obj
 0001:00031bdc       ?unget@?$c_string_character_source@D@__crt_strtox@@QAEXD@Z 00432bdc f i libucrt:output.obj
 0001:00031c0f       ?unget@?$c_string_character_source@_W@__crt_strtox@@QAEX_W@Z 00432c0f f i libucrt:output.obj
 0001:00031c48       ?unsafe_value@?$cached@H@__crt_cached_ptd_host@@QAEHXZ 00432c48 f i libucrt:output.obj
 0001:00031c4b       ?unsafe_value@?$cached@K@__crt_cached_ptd_host@@QAEKXZ 00432c4b f i libucrt:output.obj
 0001:00031c4e       ?unset_flag@?$output_processor@DV?$stream_output_adapter@D@__crt_stdio_output@@V?$format_validation_base@DV?$stream_output_adapter@D@__crt_stdio_output@@@2@@__crt_stdio_output@@AAEXI@Z 00432c4e f i libucrt:output.obj
 0001:00031c63       ?unset_flag@?$output_processor@DV?$stream_output_adapter@D@__crt_stdio_output@@V?$positional_parameter_base@DV?$stream_output_adapter@D@__crt_stdio_output@@@2@@__crt_stdio_output@@AAEXI@Z 00432c63 f i libucrt:output.obj
 0001:00031c78       ?unset_flag@?$output_processor@DV?$stream_output_adapter@D@__crt_stdio_output@@V?$standard_base@DV?$stream_output_adapter@D@__crt_stdio_output@@@2@@__crt_stdio_output@@AAEXI@Z 00432c78 f i libucrt:output.obj
 0001:00031c8d       ?unset_flag@?$output_processor@DV?$string_output_adapter@D@__crt_stdio_output@@V?$format_validation_base@DV?$string_output_adapter@D@__crt_stdio_output@@@2@@__crt_stdio_output@@AAEXI@Z 00432c8d f i libucrt:output.obj
 0001:00031ca2       ?unset_flag@?$output_processor@DV?$string_output_adapter@D@__crt_stdio_output@@V?$positional_parameter_base@DV?$string_output_adapter@D@__crt_stdio_output@@@2@@__crt_stdio_output@@AAEXI@Z 00432ca2 f i libucrt:output.obj
 0001:00031cb7       ?unset_flag@?$output_processor@DV?$string_output_adapter@D@__crt_stdio_output@@V?$standard_base@DV?$string_output_adapter@D@__crt_stdio_output@@@2@@__crt_stdio_output@@AAEXI@Z 00432cb7 f i libucrt:output.obj
 0001:00031ccc       ?unset_flag@?$output_processor@_WV?$stream_output_adapter@_W@__crt_stdio_output@@V?$format_validation_base@_WV?$stream_output_adapter@_W@__crt_stdio_output@@@2@@__crt_stdio_output@@AAEXI@Z 00432ccc f i libucrt:output.obj
 0001:00031ce1       ?unset_flag@?$output_processor@_WV?$stream_output_adapter@_W@__crt_stdio_output@@V?$positional_parameter_base@_WV?$stream_output_adapter@_W@__crt_stdio_output@@@2@@__crt_stdio_output@@AAEXI@Z 00432ce1 f i libucrt:output.obj
 0001:00031cf6       ?unset_flag@?$output_processor@_WV?$stream_output_adapter@_W@__crt_stdio_output@@V?$standard_base@_WV?$stream_output_adapter@_W@__crt_stdio_output@@@2@@__crt_stdio_output@@AAEXI@Z 00432cf6 f i libucrt:output.obj
 0001:00031d0b       ?unset_flag@?$output_processor@_WV?$string_output_adapter@_W@__crt_stdio_output@@V?$format_validation_base@_WV?$string_output_adapter@_W@__crt_stdio_output@@@2@@__crt_stdio_output@@AAEXI@Z 00432d0b f i libucrt:output.obj
 0001:00031d20       ?unset_flag@?$output_processor@_WV?$string_output_adapter@_W@__crt_stdio_output@@V?$positional_parameter_base@_WV?$string_output_adapter@_W@__crt_stdio_output@@@2@@__crt_stdio_output@@AAEXI@Z 00432d20 f i libucrt:output.obj
 0001:00031d35       ?unset_flag@?$output_processor@_WV?$string_output_adapter@_W@__crt_stdio_output@@V?$standard_base@_WV?$string_output_adapter@_W@__crt_stdio_output@@@2@@__crt_stdio_output@@AAEXI@Z 00432d35 f i libucrt:output.obj
 0001:00031d4a       ?update_field_width@?$positional_parameter_base@DV?$stream_output_adapter@D@__crt_stdio_output@@@__crt_stdio_output@@IAE_NXZ 00432d4a f i libucrt:output.obj
 0001:00031e53       ?update_field_width@?$positional_parameter_base@DV?$string_output_adapter@D@__crt_stdio_output@@@__crt_stdio_output@@IAE_NXZ 00432e53 f i libucrt:output.obj
 0001:00031f5c       ?update_field_width@?$positional_parameter_base@_WV?$stream_output_adapter@_W@__crt_stdio_output@@@__crt_stdio_output@@IAE_NXZ 00432f5c f i libucrt:output.obj
 0001:00032066       ?update_field_width@?$positional_parameter_base@_WV?$string_output_adapter@_W@__crt_stdio_output@@@__crt_stdio_output@@IAE_NXZ 00433066 f i libucrt:output.obj
 0001:00032170       ?update_field_width@?$standard_base@DV?$stream_output_adapter@D@__crt_stdio_output@@@__crt_stdio_output@@IAE_NXZ 00433170 f i libucrt:output.obj
 0001:00032184       ?update_field_width@?$standard_base@DV?$string_output_adapter@D@__crt_stdio_output@@@__crt_stdio_output@@IAE_NXZ 00433184 f i libucrt:output.obj
 0001:00032198       ?update_field_width@?$standard_base@_WV?$stream_output_adapter@_W@__crt_stdio_output@@@__crt_stdio_output@@IAE_NXZ 00433198 f i libucrt:output.obj
 0001:000321ac       ?update_field_width@?$standard_base@_WV?$string_output_adapter@_W@__crt_stdio_output@@@__crt_stdio_output@@IAE_NXZ 004331ac f i libucrt:output.obj
 0001:000321c0       ?update_locale@__crt_cached_ptd_host@@AAEXXZ 004331c0 f i libucrt:output.obj
 0001:000321d0       ?update_locale_slow@__crt_cached_ptd_host@@AAEXXZ 004331d0 f i libucrt:output.obj
 0001:00032241       ?update_precision@?$positional_parameter_base@DV?$stream_output_adapter@D@__crt_stdio_output@@@__crt_stdio_output@@IAE_NXZ 00433241 f i libucrt:output.obj
 0001:0003234a       ?update_precision@?$positional_parameter_base@DV?$string_output_adapter@D@__crt_stdio_output@@@__crt_stdio_output@@IAE_NXZ 0043334a f i libucrt:output.obj
 0001:00032453       ?update_precision@?$positional_parameter_base@_WV?$stream_output_adapter@_W@__crt_stdio_output@@@__crt_stdio_output@@IAE_NXZ 00433453 f i libucrt:output.obj
 0001:0003255d       ?update_precision@?$positional_parameter_base@_WV?$string_output_adapter@_W@__crt_stdio_output@@@__crt_stdio_output@@IAE_NXZ 0043355d f i libucrt:output.obj
 0001:00032667       ?update_precision@?$standard_base@DV?$stream_output_adapter@D@__crt_stdio_output@@@__crt_stdio_output@@IAE_NXZ 00433667 f i libucrt:output.obj
 0001:0003267b       ?update_precision@?$standard_base@DV?$string_output_adapter@D@__crt_stdio_output@@@__crt_stdio_output@@IAE_NXZ 0043367b f i libucrt:output.obj
 0001:0003268f       ?update_precision@?$standard_base@_WV?$stream_output_adapter@_W@__crt_stdio_output@@@__crt_stdio_output@@IAE_NXZ 0043368f f i libucrt:output.obj
 0001:000326a3       ?update_precision@?$standard_base@_WV?$string_output_adapter@_W@__crt_stdio_output@@@__crt_stdio_output@@IAE_NXZ 004336a3 f i libucrt:output.obj
 0001:000326b7       ?valid@?$cached@H@__crt_cached_ptd_host@@QBE_NXZ 004336b7 f i libucrt:output.obj
 0001:000326bb       ?valid@?$cached@K@__crt_cached_ptd_host@@QBE_NXZ 004336bb f i libucrt:output.obj
 0001:000326bf       ?validate@?$c_string_character_source@D@__crt_strtox@@QBE_NXZ 004336bf f i libucrt:output.obj
 0001:000326e0       ?validate@?$c_string_character_source@_W@__crt_strtox@@QBE_NXZ 004336e0 f i libucrt:output.obj
 0001:00032701       ?validate@?$stream_output_adapter@D@__crt_stdio_output@@QBE_NAAV__crt_cached_ptd_host@@@Z 00433701 f i libucrt:output.obj
 0001:00032747       ?validate@?$stream_output_adapter@_W@__crt_stdio_output@@QBE_NAAV__crt_cached_ptd_host@@@Z 00433747 f i libucrt:output.obj
 0001:00032784       ?validate@?$string_output_adapter@D@__crt_stdio_output@@QBE_NAAV__crt_cached_ptd_host@@@Z 00433784 f i libucrt:output.obj
 0001:000327c1       ?validate@?$string_output_adapter@_W@__crt_stdio_output@@QBE_NAAV__crt_cached_ptd_host@@@Z 004337c1 f i libucrt:output.obj
 0001:000327fe       ?validate_and_store_parameter_data@?$positional_parameter_base@DV?$stream_output_adapter@D@__crt_stdio_output@@@__crt_stdio_output@@AAE_NAAUparameter_data@12@W4parameter_type@12@DW4length_modifier@2@@Z 004337fe f i libucrt:output.obj
 0001:00032878       ?validate_and_store_parameter_data@?$positional_parameter_base@DV?$string_output_adapter@D@__crt_stdio_output@@@__crt_stdio_output@@AAE_NAAUparameter_data@12@W4parameter_type@12@DW4length_modifier@2@@Z 00433878 f i libucrt:output.obj
 0001:000328f2       ?validate_and_store_parameter_data@?$positional_parameter_base@_WV?$stream_output_adapter@_W@__crt_stdio_output@@@__crt_stdio_output@@AAE_NAAUparameter_data@12@W4parameter_type@12@_WW4length_modifier@2@@Z 004338f2 f i libucrt:output.obj
 0001:0003296f       ?validate_and_store_parameter_data@?$positional_parameter_base@_WV?$string_output_adapter@_W@__crt_stdio_output@@@__crt_stdio_output@@AAE_NAAUparameter_data@12@W4parameter_type@12@_WW4length_modifier@2@@Z 0043396f f i libucrt:output.obj
 0001:000329ec       ?validate_and_update_state_at_beginning_of_format_character@?$positional_parameter_base@DV?$stream_output_adapter@D@__crt_stdio_output@@@__crt_stdio_output@@IAE_NXZ 004339ec f i libucrt:output.obj
 0001:00032b4b       ?validate_and_update_state_at_beginning_of_format_character@?$positional_parameter_base@DV?$string_output_adapter@D@__crt_stdio_output@@@__crt_stdio_output@@IAE_NXZ 00433b4b f i libucrt:output.obj
 0001:00032caa       ?validate_and_update_state_at_beginning_of_format_character@?$positional_parameter_base@_WV?$stream_output_adapter@_W@__crt_stdio_output@@@__crt_stdio_output@@IAE_NXZ 00433caa f i libucrt:output.obj
 0001:00032e15       ?validate_and_update_state_at_beginning_of_format_character@?$positional_parameter_base@_WV?$string_output_adapter@_W@__crt_stdio_output@@@__crt_stdio_output@@IAE_NXZ 00433e15 f i libucrt:output.obj
 0001:00032f80       ?validate_and_update_state_at_beginning_of_format_character@?$standard_base@DV?$stream_output_adapter@D@__crt_stdio_output@@@__crt_stdio_output@@IAE_NXZ 00433f80 f i libucrt:output.obj
 0001:00032f83       ?validate_and_update_state_at_beginning_of_format_character@?$standard_base@DV?$string_output_adapter@D@__crt_stdio_output@@@__crt_stdio_output@@IAE_NXZ 00433f83 f i libucrt:output.obj
 0001:00032f86       ?validate_and_update_state_at_beginning_of_format_character@?$standard_base@_WV?$stream_output_adapter@_W@__crt_stdio_output@@@__crt_stdio_output@@IAE_NXZ 00433f86 f i libucrt:output.obj
 0001:00032f89       ?validate_and_update_state_at_beginning_of_format_character@?$standard_base@_WV?$string_output_adapter@_W@__crt_stdio_output@@@__crt_stdio_output@@IAE_NXZ 00433f89 f i libucrt:output.obj
 0001:00032f8c       ?validate_and_update_state_at_end_of_format_string@?$format_validation_base@DV?$stream_output_adapter@D@__crt_stdio_output@@@__crt_stdio_output@@IAE_NXZ 00433f8c f i libucrt:output.obj
 0001:00032fc9       ?validate_and_update_state_at_end_of_format_string@?$format_validation_base@DV?$string_output_adapter@D@__crt_stdio_output@@@__crt_stdio_output@@IAE_NXZ 00433fc9 f i libucrt:output.obj
 0001:00033006       ?validate_and_update_state_at_end_of_format_string@?$format_validation_base@_WV?$stream_output_adapter@_W@__crt_stdio_output@@@__crt_stdio_output@@IAE_NXZ 00434006 f i libucrt:output.obj
 0001:00033043       ?validate_and_update_state_at_end_of_format_string@?$format_validation_base@_WV?$string_output_adapter@_W@__crt_stdio_output@@@__crt_stdio_output@@IAE_NXZ 00434043 f i libucrt:output.obj
 0001:00033080       ?validate_and_update_state_at_end_of_format_string@?$positional_parameter_base@DV?$stream_output_adapter@D@__crt_stdio_output@@@__crt_stdio_output@@IAE_NXZ 00434080 f i libucrt:output.obj
 0001:0003316e       ?validate_and_update_state_at_end_of_format_string@?$positional_parameter_base@DV?$string_output_adapter@D@__crt_stdio_output@@@__crt_stdio_output@@IAE_NXZ 0043416e f i libucrt:output.obj
 0001:0003325c       ?validate_and_update_state_at_end_of_format_string@?$positional_parameter_base@_WV?$stream_output_adapter@_W@__crt_stdio_output@@@__crt_stdio_output@@IAE_NXZ 0043425c f i libucrt:output.obj
 0001:0003334a       ?validate_and_update_state_at_end_of_format_string@?$positional_parameter_base@_WV?$string_output_adapter@_W@__crt_stdio_output@@@__crt_stdio_output@@IAE_NXZ 0043434a f i libucrt:output.obj
 0001:00033438       ?validate_and_update_state_at_end_of_format_string@?$standard_base@DV?$stream_output_adapter@D@__crt_stdio_output@@@__crt_stdio_output@@IBE_NXZ 00434438 f i libucrt:output.obj
 0001:0003343b       ?validate_and_update_state_at_end_of_format_string@?$standard_base@DV?$string_output_adapter@D@__crt_stdio_output@@@__crt_stdio_output@@IBE_NXZ 0043443b f i libucrt:output.obj
 0001:0003343e       ?validate_and_update_state_at_end_of_format_string@?$standard_base@_WV?$stream_output_adapter@_W@__crt_stdio_output@@@__crt_stdio_output@@IBE_NXZ 0043443e f i libucrt:output.obj
 0001:00033441       ?validate_and_update_state_at_end_of_format_string@?$standard_base@_WV?$string_output_adapter@_W@__crt_stdio_output@@@__crt_stdio_output@@IBE_NXZ 00434441 f i libucrt:output.obj
 0001:00033444       ?validate_state_for_type_case_a@?$positional_parameter_base@DV?$stream_output_adapter@D@__crt_stdio_output@@@__crt_stdio_output@@IAE_NXZ 00434444 f i libucrt:output.obj
 0001:000334ba       ?validate_state_for_type_case_a@?$positional_parameter_base@DV?$string_output_adapter@D@__crt_stdio_output@@@__crt_stdio_output@@IAE_NXZ 004344ba f i libucrt:output.obj
 0001:00033530       ?validate_state_for_type_case_a@?$positional_parameter_base@_WV?$stream_output_adapter@_W@__crt_stdio_output@@@__crt_stdio_output@@IAE_NXZ 00434530 f i libucrt:output.obj
 0001:000335a6       ?validate_state_for_type_case_a@?$positional_parameter_base@_WV?$string_output_adapter@_W@__crt_stdio_output@@@__crt_stdio_output@@IAE_NXZ 004345a6 f i libucrt:output.obj
 0001:0003361c       ?validate_state_for_type_case_a@?$standard_base@DV?$stream_output_adapter@D@__crt_stdio_output@@@__crt_stdio_output@@IBE_NXZ 0043461c f i libucrt:output.obj
 0001:0003361f       ?validate_state_for_type_case_a@?$standard_base@DV?$string_output_adapter@D@__crt_stdio_output@@@__crt_stdio_output@@IBE_NXZ 0043461f f i libucrt:output.obj
 0001:00033622       ?validate_state_for_type_case_a@?$standard_base@_WV?$stream_output_adapter@_W@__crt_stdio_output@@@__crt_stdio_output@@IBE_NXZ 00434622 f i libucrt:output.obj
 0001:00033625       ?validate_state_for_type_case_a@?$standard_base@_WV?$string_output_adapter@_W@__crt_stdio_output@@@__crt_stdio_output@@IBE_NXZ 00434625 f i libucrt:output.obj
 0001:00033628       ?validate_stream_is_ansi_if_required@?$__acrt_stdio_char_traits@D@@SA_NQAU_iobuf@@@Z 00434628 f i libucrt:output.obj
 0001:000336d0       ?validate_stream_is_ansi_if_required@?$__acrt_stdio_char_traits@_W@@SA_NQAU_iobuf@@@Z 004346d0 f i libucrt:output.obj
 0001:000336d3       ?wide_character_to_digit@__crt_strtox@@YAH_W@Z 004346d3 f i libucrt:output.obj
 0001:000338dc       ?wide_null_string@?$output_processor@DV?$stream_output_adapter@D@__crt_stdio_output@@V?$format_validation_base@DV?$stream_output_adapter@D@__crt_stdio_output@@@2@@__crt_stdio_output@@CAPA_WXZ 004348dc f i libucrt:output.obj
 0001:000338e2       ?wide_null_string@?$output_processor@DV?$stream_output_adapter@D@__crt_stdio_output@@V?$positional_parameter_base@DV?$stream_output_adapter@D@__crt_stdio_output@@@2@@__crt_stdio_output@@CAPA_WXZ 004348e2 f i libucrt:output.obj
 0001:000338e8       ?wide_null_string@?$output_processor@DV?$stream_output_adapter@D@__crt_stdio_output@@V?$standard_base@DV?$stream_output_adapter@D@__crt_stdio_output@@@2@@__crt_stdio_output@@CAPA_WXZ 004348e8 f i libucrt:output.obj
 0001:000338ee       ?wide_null_string@?$output_processor@DV?$string_output_adapter@D@__crt_stdio_output@@V?$format_validation_base@DV?$string_output_adapter@D@__crt_stdio_output@@@2@@__crt_stdio_output@@CAPA_WXZ 004348ee f i libucrt:output.obj
 0001:000338f4       ?wide_null_string@?$output_processor@DV?$string_output_adapter@D@__crt_stdio_output@@V?$positional_parameter_base@DV?$string_output_adapter@D@__crt_stdio_output@@@2@@__crt_stdio_output@@CAPA_WXZ 004348f4 f i libucrt:output.obj
 0001:000338fa       ?wide_null_string@?$output_processor@DV?$string_output_adapter@D@__crt_stdio_output@@V?$standard_base@DV?$string_output_adapter@D@__crt_stdio_output@@@2@@__crt_stdio_output@@CAPA_WXZ 004348fa f i libucrt:output.obj
 0001:00033900       ?wide_null_string@?$output_processor@_WV?$stream_output_adapter@_W@__crt_stdio_output@@V?$format_validation_base@_WV?$stream_output_adapter@_W@__crt_stdio_output@@@2@@__crt_stdio_output@@CAPA_WXZ 00434900 f i libucrt:output.obj
 0001:00033906       ?wide_null_string@?$output_processor@_WV?$stream_output_adapter@_W@__crt_stdio_output@@V?$positional_parameter_base@_WV?$stream_output_adapter@_W@__crt_stdio_output@@@2@@__crt_stdio_output@@CAPA_WXZ 00434906 f i libucrt:output.obj
 0001:0003390c       ?wide_null_string@?$output_processor@_WV?$stream_output_adapter@_W@__crt_stdio_output@@V?$standard_base@_WV?$stream_output_adapter@_W@__crt_stdio_output@@@2@@__crt_stdio_output@@CAPA_WXZ 0043490c f i libucrt:output.obj
 0001:00033912       ?wide_null_string@?$output_processor@_WV?$string_output_adapter@_W@__crt_stdio_output@@V?$format_validation_base@_WV?$string_output_adapter@_W@__crt_stdio_output@@@2@@__crt_stdio_output@@CAPA_WXZ 00434912 f i libucrt:output.obj
 0001:00033918       ?wide_null_string@?$output_processor@_WV?$string_output_adapter@_W@__crt_stdio_output@@V?$positional_parameter_base@_WV?$string_output_adapter@_W@__crt_stdio_output@@@2@@__crt_stdio_output@@CAPA_WXZ 00434918 f i libucrt:output.obj
 0001:0003391e       ?wide_null_string@?$output_processor@_WV?$string_output_adapter@_W@__crt_stdio_output@@V?$standard_base@_WV?$string_output_adapter@_W@__crt_stdio_output@@@2@@__crt_stdio_output@@CAPA_WXZ 0043491e f i libucrt:output.obj
 0001:00033924       ?write_character@?$output_adapter_common@DV?$stream_output_adapter@D@__crt_stdio_output@@@__crt_stdio_output@@QBEXDQAHAAV__crt_cached_ptd_host@@@Z 00434924 f i libucrt:output.obj
 0001:0003394e       ?write_character@?$output_adapter_common@_WV?$stream_output_adapter@_W@__crt_stdio_output@@@__crt_stdio_output@@QBEX_WQAHAAV__crt_cached_ptd_host@@@Z 0043494e f i libucrt:output.obj
 0001:00033978       ?write_character@?$string_output_adapter@D@__crt_stdio_output@@QBE_NDQAHAAV__crt_cached_ptd_host@@@Z 00434978 f i libucrt:output.obj
 0001:000339ca       ?write_character@?$string_output_adapter@_W@__crt_stdio_output@@QBE_N_WQAHAAV__crt_cached_ptd_host@@@Z 004349ca f i libucrt:output.obj
 0001:00033a20       ?write_character_without_count_update@?$stream_output_adapter@D@__crt_stdio_output@@QBE_NDAAV__crt_cached_ptd_host@@@Z 00434a20 f i libucrt:output.obj
 0001:00033a68       ?write_character_without_count_update@?$stream_output_adapter@_W@__crt_stdio_output@@QBE_N_WAAV__crt_cached_ptd_host@@@Z 00434a68 f i libucrt:output.obj
 0001:00033ab4       ?write_stored_string_tchar@?$output_processor@DV?$stream_output_adapter@D@__crt_stdio_output@@V?$format_validation_base@DV?$stream_output_adapter@D@__crt_stdio_output@@@2@@__crt_stdio_output@@AAE_ND@Z 00434ab4 f i libucrt:output.obj
 0001:00033b7f       ?write_stored_string_tchar@?$output_processor@DV?$stream_output_adapter@D@__crt_stdio_output@@V?$positional_parameter_base@DV?$stream_output_adapter@D@__crt_stdio_output@@@2@@__crt_stdio_output@@AAE_ND@Z 00434b7f f i libucrt:output.obj
 0001:00033c4a       ?write_stored_string_tchar@?$output_processor@DV?$stream_output_adapter@D@__crt_stdio_output@@V?$standard_base@DV?$stream_output_adapter@D@__crt_stdio_output@@@2@@__crt_stdio_output@@AAE_ND@Z 00434c4a f i libucrt:output.obj
 0001:00033d15       ?write_stored_string_tchar@?$output_processor@DV?$string_output_adapter@D@__crt_stdio_output@@V?$format_validation_base@DV?$string_output_adapter@D@__crt_stdio_output@@@2@@__crt_stdio_output@@AAE_ND@Z 00434d15 f i libucrt:output.obj
 0001:00033de0       ?write_stored_string_tchar@?$output_processor@DV?$string_output_adapter@D@__crt_stdio_output@@V?$positional_parameter_base@DV?$string_output_adapter@D@__crt_stdio_output@@@2@@__crt_stdio_output@@AAE_ND@Z 00434de0 f i libucrt:output.obj
 0001:00033eab       ?write_stored_string_tchar@?$output_processor@DV?$string_output_adapter@D@__crt_stdio_output@@V?$standard_base@DV?$string_output_adapter@D@__crt_stdio_output@@@2@@__crt_stdio_output@@AAE_ND@Z 00434eab f i libucrt:output.obj
 0001:00033f76       ?write_stored_string_tchar@?$output_processor@_WV?$stream_output_adapter@_W@__crt_stdio_output@@V?$format_validation_base@_WV?$stream_output_adapter@_W@__crt_stdio_output@@@2@@__crt_stdio_output@@AAE_N_W@Z 00434f76 f i libucrt:output.obj
 0001:00034052       ?write_stored_string_tchar@?$output_processor@_WV?$stream_output_adapter@_W@__crt_stdio_output@@V?$positional_parameter_base@_WV?$stream_output_adapter@_W@__crt_stdio_output@@@2@@__crt_stdio_output@@AAE_N_W@Z 00435052 f i libucrt:output.obj
 0001:0003412e       ?write_stored_string_tchar@?$output_processor@_WV?$stream_output_adapter@_W@__crt_stdio_output@@V?$standard_base@_WV?$stream_output_adapter@_W@__crt_stdio_output@@@2@@__crt_stdio_output@@AAE_N_W@Z 0043512e f i libucrt:output.obj
 0001:0003420a       ?write_stored_string_tchar@?$output_processor@_WV?$string_output_adapter@_W@__crt_stdio_output@@V?$format_validation_base@_WV?$string_output_adapter@_W@__crt_stdio_output@@@2@@__crt_stdio_output@@AAE_N_W@Z 0043520a f i libucrt:output.obj
 0001:0003431a       ?write_stored_string_tchar@?$output_processor@_WV?$string_output_adapter@_W@__crt_stdio_output@@V?$positional_parameter_base@_WV?$string_output_adapter@_W@__crt_stdio_output@@@2@@__crt_stdio_output@@AAE_N_W@Z 0043531a f i libucrt:output.obj
 0001:0003442a       ?write_stored_string_tchar@?$output_processor@_WV?$string_output_adapter@_W@__crt_stdio_output@@V?$standard_base@_WV?$string_output_adapter@_W@__crt_stdio_output@@@2@@__crt_stdio_output@@AAE_N_W@Z 0043542a f i libucrt:output.obj
 0001:0003453a       ?write_string@?$stream_output_adapter@D@__crt_stdio_output@@QBEXQBDHQAHAAV__crt_cached_ptd_host@@@Z 0043553a f i libucrt:output.obj
 0001:00034571       ?write_string@?$stream_output_adapter@_W@__crt_stdio_output@@QBEXQB_WHQAHAAV__crt_cached_ptd_host@@@Z 00435571 f i libucrt:output.obj
 0001:000345a8       ?write_string@?$string_output_adapter@D@__crt_stdio_output@@QBEXQBDHQAHAAV__crt_cached_ptd_host@@@Z 004355a8 f i libucrt:output.obj
 0001:00034628       ?write_string@?$string_output_adapter@_W@__crt_stdio_output@@QBEXQB_WHQAHAAV__crt_cached_ptd_host@@@Z 00435628 f i libucrt:output.obj
 0001:000346b5       ?write_string_impl@?$output_adapter_common@DV?$stream_output_adapter@D@__crt_stdio_output@@@__crt_stdio_output@@IBEXQBDHQAHAAV__crt_cached_ptd_host@@@Z 004356b5 f i libucrt:output.obj
 0001:00034753       ?write_string_impl@?$output_adapter_common@_WV?$stream_output_adapter@_W@__crt_stdio_output@@@__crt_stdio_output@@IBEXQB_WHQAHAAV__crt_cached_ptd_host@@@Z 00435753 f i libucrt:output.obj
 0001:000347f5       ___acrt_disable_global_locale_sync 004357f5 f i libucrt:output.obj
 0001:0003480c       ___acrt_enable_global_locale_sync 0043580c f i libucrt:output.obj
 0001:00034826       ___acrt_isleadbyte_l_noupdate 00435826 f i libucrt:output.obj
 0001:0003484b       ___acrt_locale_changed     0043584b f i libucrt:output.obj
 0001:00034858       ___acrt_locale_get_ctype_array_value 00435858 f i libucrt:output.obj
 0001:00034882       ___ascii_iswalpha          00435882 f i libucrt:output.obj
 0001:000348ad       ___ascii_toupper           004358ad f i libucrt:output.obj
 0001:000348c9       ___ascii_towupper          004358c9 f i libucrt:output.obj
 0001:000348e5       ___stdio_common_vfprintf   004358e5 f   libucrt:output.obj
 0001:000349b2       ___stdio_common_vfprintf_p 004359b2 f   libucrt:output.obj
 0001:00034a7f       ___stdio_common_vfprintf_s 00435a7f f   libucrt:output.obj
 0001:00034b4c       ___stdio_common_vfwprintf  00435b4c f   libucrt:output.obj
 0001:00034c19       ___stdio_common_vfwprintf_p 00435c19 f   libucrt:output.obj
 0001:00034ce6       ___stdio_common_vfwprintf_s 00435ce6 f   libucrt:output.obj
 0001:00034db3       ___stdio_common_vsnprintf_s 00435db3 f   libucrt:output.obj
 0001:00034e08       ___stdio_common_vsnwprintf_s 00435e08 f   libucrt:output.obj
 0001:00034e5d       ___stdio_common_vsprintf   00435e5d f   libucrt:output.obj
 0001:00034eae       ___stdio_common_vsprintf_p 00435eae f   libucrt:output.obj
 0001:00034eff       ___stdio_common_vsprintf_s 00435eff f   libucrt:output.obj
 0001:00034f50       ___stdio_common_vswprintf  00435f50 f   libucrt:output.obj
 0001:00034fa1       ___stdio_common_vswprintf_p 00435fa1 f   libucrt:output.obj
 0001:00034ff2       ___stdio_common_vswprintf_s 00435ff2 f   libucrt:output.obj
 0001:00035043       __ctype_fast_check_internal 00436043 f i libucrt:output.obj
 0001:00035063       __isdigit_fast_internal    00436063 f i libucrt:output.obj
 0001:00035083       __tolower_fast_internal    00436083 f i libucrt:output.obj
 0001:000350cf       __seh_filter_dll           004360cf f   libucrt:exception_filter.obj
 0001:000350f7       __seh_filter_exe           004360f7 f   libucrt:exception_filter.obj
 0001:00035352       ___acrt_report_runtime_error 00436352 f   libucrt:report_runtime_error.obj
 0001:000354ac       __invoke_watson_if_error   004364ac f i libucrt:report_runtime_error.obj
 0001:000354d6       __query_app_type           004364d6 f   libucrt:report_runtime_error.obj
 0001:000354dc       __set_app_type             004364dc f   libucrt:report_runtime_error.obj
 0001:000354ee       ??$__crt_fast_decode_pointer@P6AHPAU_exception@@@Z@@YAP6AHPAU_exception@@@ZQ6AH0@Z@Z 004364ee f i libucrt:matherr.obj
 0001:00035509       ??$__crt_fast_encode_pointer@P6AHPAU_exception@@@Z@@YAP6AHPAU_exception@@@ZQ6AH0@Z@Z 00436509 f i libucrt:matherr.obj
 0001:0003552f       ?__crt_rotate_pointer_value@@YAIIH@Z 0043652f f i libucrt:matherr.obj
 0001:00035541       ?get_current_state_index@__crt_state_management@@YAIXZ 00436541 f i libucrt:matherr.obj
 0001:00035544       ?initialize@?$dual_state_global@P6AHPAU_exception@@@Z@__crt_state_management@@QAEXQ6AHPAU_exception@@@Z@Z 00436544 f i libucrt:matherr.obj
 0001:00035567       ?value@?$dual_state_global@P6AHPAU_exception@@@Z@__crt_state_management@@QAEAAP6AHPAU_exception@@@ZXZ 00436567 f i libucrt:matherr.obj
 0001:0003556a       ___acrt_has_user_matherr   0043656a f   libucrt:matherr.obj
 0001:00035588       ___acrt_initialize_user_matherr 00436588 f   libucrt:matherr.obj
 0001:0003559a       ___acrt_invoke_user_matherr 0043659a f   libucrt:matherr.obj
 0001:000355d8       ___setusermatherr          004365d8 f   libucrt:matherr.obj
 0001:000355f2       ??$?RE@__crt_internal_free_policy@@QBEXQBE@Z 004365f2 f i libucrt:argv_parsing.obj
 0001:00035608       ??$?RPAD@__crt_internal_free_policy@@QBEXQBQAD@Z 00436608 f i libucrt:argv_parsing.obj
 0001:0003561e       ??$?RPA_W@__crt_internal_free_policy@@QBEXQBQA_W@Z 0043661e f i libucrt:argv_parsing.obj
 0001:00035943       ??$get_module_file_name@$$TAAY0BAF@DH@?$__crt_char_traits@D@@SAK$$QA$$TAAY0BAF@D$$QAH@Z 00436943 f i libucrt:argv_parsing.obj
 0001:00035966       ??$get_module_file_name@$$TAAY0BAF@_WH@?$__crt_char_traits@_W@@SAK$$QA$$TAAY0BAF@_W$$QAH@Z 00436966 f i libucrt:argv_parsing.obj
 0001:00035d60       ??$set_program_name@PAD@?$__crt_char_traits@D@@SAX$$QAPAD@Z 00436d60 f i libucrt:argv_parsing.obj
 0001:00035d75       ??$set_program_name@PA_W@?$__crt_char_traits@_W@@SAX$$QAPA_W@Z 00436d75 f i libucrt:argv_parsing.obj
 0001:00035db2       ??0?$__crt_unique_heap_ptr@EU__crt_internal_free_policy@@@@QAE@QAE@Z 00436db2 f i libucrt:argv_parsing.obj
 0001:00035dc6       ??0?$__crt_unique_heap_ptr@PADU__crt_internal_free_policy@@@@QAE@QAPAD@Z 00436dc6 f i libucrt:argv_parsing.obj
 0001:00035dda       ??0?$__crt_unique_heap_ptr@PA_WU__crt_internal_free_policy@@@@QAE@QAPA_W@Z 00436dda f i libucrt:argv_parsing.obj
 0001:00035dee       ??1?$__crt_unique_heap_ptr@EU__crt_internal_free_policy@@@@QAE@XZ 00436dee f i libucrt:argv_parsing.obj
 0001:00035e04       ??1?$__crt_unique_heap_ptr@PADU__crt_internal_free_policy@@@@QAE@XZ 00436e04 f i libucrt:argv_parsing.obj
 0001:00035e1a       ??1?$__crt_unique_heap_ptr@PA_WU__crt_internal_free_policy@@@@QAE@XZ 00436e1a f i libucrt:argv_parsing.obj
 0001:00035e30       ??B?$__crt_unique_heap_ptr@EU__crt_internal_free_policy@@@@QBE_NXZ 00436e30 f i libucrt:argv_parsing.obj
 0001:00035e6d       ?detach@?$__crt_unique_heap_ptr@EU__crt_internal_free_policy@@@@QAEPAEXZ 00436e6d f i libucrt:argv_parsing.obj
 0001:00035e73       ?detach@?$__crt_unique_heap_ptr@PADU__crt_internal_free_policy@@@@QAEPAPADXZ 00436e73 f i libucrt:argv_parsing.obj
 0001:00035e79       ?detach@?$__crt_unique_heap_ptr@PA_WU__crt_internal_free_policy@@@@QAEPAPA_WXZ 00436e79 f i libucrt:argv_parsing.obj
 0001:00035ea1       ?get@?$__crt_unique_heap_ptr@EU__crt_internal_free_policy@@@@QBEPAEXZ 00436ea1 f i libucrt:argv_parsing.obj
 0001:00035ea4       ?get@?$__crt_unique_heap_ptr@PADU__crt_internal_free_policy@@@@QBEPAPADXZ 00436ea4 f i libucrt:argv_parsing.obj
 0001:00035ea7       ?get@?$__crt_unique_heap_ptr@PA_WU__crt_internal_free_policy@@@@QBEPAPA_WXZ 00436ea7 f i libucrt:argv_parsing.obj
 0001:00035eaa       ?get_address_of@?$__crt_unique_heap_ptr@PADU__crt_internal_free_policy@@@@QAEPAPAPADXZ 00436eaa f i libucrt:argv_parsing.obj
 0001:00035ead       ?get_address_of@?$__crt_unique_heap_ptr@PA_WU__crt_internal_free_policy@@@@QAEPAPAPA_WXZ 00436ead f i libucrt:argv_parsing.obj
 0001:00035ec8       ?is_valid@?$__crt_unique_heap_ptr@EU__crt_internal_free_policy@@@@QBE_NXZ 00436ec8 f i libucrt:argv_parsing.obj
 0001:00035ecf       ?release@?$__crt_unique_heap_ptr@EU__crt_internal_free_policy@@@@QAEXXZ 00436ecf f i libucrt:argv_parsing.obj
 0001:00035ee5       ?release@?$__crt_unique_heap_ptr@PADU__crt_internal_free_policy@@@@QAEXXZ 00436ee5 f i libucrt:argv_parsing.obj
 0001:00035efb       ?release@?$__crt_unique_heap_ptr@PA_WU__crt_internal_free_policy@@@@QAEXXZ 00436efb f i libucrt:argv_parsing.obj
 0001:00035f30       ___acrt_allocate_buffer_for_argv 00436f30 f   libucrt:argv_parsing.obj
 0001:00035f92       __configure_narrow_argv    00436f92 f   libucrt:argv_parsing.obj
 0001:00035f9f       __configure_wide_argv      00436f9f f   libucrt:argv_parsing.obj
 0001:00035fac       __set_pgmptr               00436fac f i libucrt:argv_parsing.obj
 0001:00035fbe       __set_wpgmptr              00436fbe f i libucrt:argv_parsing.obj
 0001:00035fd0       ??$?R_W@__crt_internal_free_policy@@QBEXQB_W@Z 00436fd0 f i libucrt:environment_initialization.obj
 0001:000364ef       ??$get_environment_from_os@$$V@?$__crt_char_traits@D@@SAPADXZ 004374ef f i libucrt:environment_initialization.obj
 0001:000364f4       ??$get_environment_from_os@$$V@?$__crt_char_traits@_W@@SAPA_WXZ 004374f4 f i libucrt:environment_initialization.obj
 0001:0003663d       ??$set_variable_in_environment_nolock@PADH@?$__crt_char_traits@D@@SAH$$QAPAD$$QAH@Z 0043763d f i libucrt:environment_initialization.obj
 0001:0003665b       ??$set_variable_in_environment_nolock@PA_WH@?$__crt_char_traits@_W@@SAH$$QAPA_W$$QAH@Z 0043765b f i libucrt:environment_initialization.obj
 0001:00036679       ??$tcscpy_s@PADABIAAPAD@?$__crt_char_traits@D@@SAH$$QAPADABIAAPAD@Z 00437679 f i libucrt:environment_initialization.obj
 0001:0003669e       ??$tcscpy_s@PA_WABIAAPA_W@?$__crt_char_traits@_W@@SAH$$QAPA_WABIAAPA_W@Z 0043769e f i libucrt:environment_initialization.obj
 0001:000366c3       ??$tcslen@AAPAD@?$__crt_char_traits@D@@SAIAAPAD@Z 004376c3 f i libucrt:environment_initialization.obj
 0001:000366e1       ??$tcslen@AAPA_W@?$__crt_char_traits@_W@@SAIAAPA_W@Z 004376e1 f i libucrt:environment_initialization.obj
 0001:00036706       ??$uninitialize@A6AXAAPAPAD@_E@?$dual_state_global@PAPAD@__crt_state_management@@QAEXA6AXAAPAPAD@_E@Z 00437706 f i libucrt:environment_initialization.obj
 0001:00036774       ??$uninitialize@A6AXAAPAPA_W@_E@?$dual_state_global@PAPA_W@__crt_state_management@@QAEXA6AXAAPAPA_W@_E@Z 00437774 f i libucrt:environment_initialization.obj
 0001:00036824       ??0?$__crt_unique_heap_ptr@_WU__crt_internal_free_policy@@@@QAE@QA_W@Z 00437824 f i libucrt:environment_initialization.obj
 0001:00036838       ??1?$__crt_unique_heap_ptr@_WU__crt_internal_free_policy@@@@QAE@XZ 00437838 f i libucrt:environment_initialization.obj
 0001:0003684e       ??B?$__crt_unique_heap_ptr@PADU__crt_internal_free_policy@@@@QBE_NXZ 0043784e f i libucrt:environment_initialization.obj
 0001:00036855       ??B?$__crt_unique_heap_ptr@PA_WU__crt_internal_free_policy@@@@QBE_NXZ 00437855 f i libucrt:environment_initialization.obj
 0001:0003685c       ??B?$__crt_unique_heap_ptr@_WU__crt_internal_free_policy@@@@QBE_NXZ 0043785c f i libucrt:environment_initialization.obj
 0001:00036863       ?__crt_compute_required_transform_buffer_count@@YAIIQBD@Z 00437863 f i libucrt:environment_initialization.obj
 0001:00036886       ?__crt_compute_required_transform_buffer_count@@YAIIQB_W@Z 00437886 f i libucrt:environment_initialization.obj
 0001:000368ab       ?__crt_transform_string@@YAIIQBDQA_WI@Z 004378ab f i libucrt:environment_initialization.obj
 0001:000368d1       ?__crt_transform_string@@YAIIQB_WQADI@Z 004378d1 f i libucrt:environment_initialization.obj
 0001:000368fb       ?detach@?$__crt_unique_heap_ptr@DU__crt_internal_free_policy@@@@QAEPADXZ 004378fb f i libucrt:environment_initialization.obj
 0001:00036901       ?detach@?$__crt_unique_heap_ptr@_WU__crt_internal_free_policy@@@@QAEPA_WXZ 00437901 f i libucrt:environment_initialization.obj
 0001:00036907       ?get@?$__crt_unique_heap_ptr@_WU__crt_internal_free_policy@@@@QBEPA_WXZ 00437907 f i libucrt:environment_initialization.obj
 0001:0003692e       ?initialize@?$dual_state_global@PAPAD@__crt_state_management@@QAEXQAPAD@Z 0043792e f i libucrt:environment_initialization.obj
 0001:00036951       ?initialize@?$dual_state_global@PAPA_W@__crt_state_management@@QAEXQAPA_W@Z 00437951 f i libucrt:environment_initialization.obj
 0001:00036974       ?is_valid@?$__crt_unique_heap_ptr@PADU__crt_internal_free_policy@@@@QBE_NXZ 00437974 f i libucrt:environment_initialization.obj
 0001:0003697b       ?is_valid@?$__crt_unique_heap_ptr@PA_WU__crt_internal_free_policy@@@@QBE_NXZ 0043797b f i libucrt:environment_initialization.obj
 0001:00036982       ?is_valid@?$__crt_unique_heap_ptr@_WU__crt_internal_free_policy@@@@QBE_NXZ 00437982 f i libucrt:environment_initialization.obj
 0001:00036991       ?release@?$__crt_unique_heap_ptr@_WU__crt_internal_free_policy@@@@QAEXXZ 00437991 f i libucrt:environment_initialization.obj
 0001:000369a7       ?value@?$dual_state_global@PAPAD@__crt_state_management@@QAEAAPAPADXZ 004379a7 f i libucrt:environment_initialization.obj
 0001:000369aa       ?value@?$dual_state_global@PAPA_W@__crt_state_management@@QAEAAPAPA_WXZ 004379aa f i libucrt:environment_initialization.obj
 0001:000369ad       ___dcrt_get_or_create_narrow_environment_nolock 004379ad f   libucrt:environment_initialization.obj
 0001:000369b2       ___dcrt_get_or_create_wide_environment_nolock 004379b2 f   libucrt:environment_initialization.obj
 0001:000369b7       ___dcrt_uninitialize_environments_nolock 004379b7 f   libucrt:environment_initialization.obj
 0001:00036a1c       ___p__environ              00437a1c f   libucrt:environment_initialization.obj
 0001:00036a22       ___p__wenviron             00437a22 f   libucrt:environment_initialization.obj
 0001:00036a28       __get_initial_narrow_environment 00437a28 f   libucrt:environment_initialization.obj
 0001:00036a41       __get_initial_wide_environment 00437a41 f   libucrt:environment_initialization.obj
 0001:00036a5a       __initialize_narrow_environment 00437a5a f   libucrt:environment_initialization.obj
 0001:00036a5f       __initialize_wide_environment 00437a5f f   libucrt:environment_initialization.obj
 0001:00036a64       __initterm                 00437a64 f   libucrt:initterm.obj
 0001:00036a99       __initterm_e               00437a99 f   libucrt:initterm.obj
 0001:00036ad2       ??$?B$$A6GXPAXK0@Z@__crt_fast_encoded_nullptr_t@@QBEP6GXPAXK0@ZXZ 00437ad2 f i libucrt:exit.obj
 0001:00036ba2       ??$__crt_fast_decode_pointer@P6GXPAXK0@Z@@YAP6GXPAXK0@ZQ6GX0K0@Z@Z 00437ba2 f i libucrt:exit.obj
 0001:00036bbd       ??$__crt_fast_encode_pointer@P6GXPAXK0@Z@@YAP6GXPAXK0@ZQ6GX0K0@Z@Z 00437bbd f i libucrt:exit.obj
 0001:00036be3       ??$__crt_get_proc_address@P6GXI@Z@@YAP6GXI@ZQAUHINSTANCE__@@QBD@Z 00437be3 f i libucrt:exit.obj
 0001:00036c49       ??0?$__crt_unique_handle_t@U__crt_hmodule_traits@@@@QAE@QAUHINSTANCE__@@@Z 00437c49 f i libucrt:exit.obj
 0001:00036c5d       ??1?$__crt_unique_handle_t@U__crt_hmodule_traits@@@@QAE@XZ 00437c5d f i libucrt:exit.obj
 0001:00036db4       ?__acrt_select_exit_lock@@YA?AW4__acrt_lock_id@@XZ 00437db4 f i libucrt:exit.obj
 0001:00036db8       ?__crt_fast_encode_pointer@@YA?AU__crt_fast_encoded_nullptr_t@@$$T@Z 00437db8 f i libucrt:exit.obj
 0001:00036ddc       ?close@?$__crt_unique_handle_t@U__crt_hmodule_traits@@@@QAEXXZ 00437ddc f i libucrt:exit.obj
 0001:00036df8       ?close@__crt_hmodule_traits@@SA_NPAUHINSTANCE__@@@Z 00437df8 f i libucrt:exit.obj
 0001:00036f0b       ?get@?$__crt_unique_handle_t@U__crt_hmodule_traits@@@@QBEPAUHINSTANCE__@@XZ 00437f0b f i libucrt:exit.obj
 0001:00036f0e       ?get_address_of@?$__crt_unique_handle_t@U__crt_hmodule_traits@@@@QAEPAPAUHINSTANCE__@@XZ 00437f0e f i libucrt:exit.obj
 0001:00036f11       ?get_invalid_value@__crt_hmodule_traits@@SAPAUHINSTANCE__@@XZ 00437f11 f i libucrt:exit.obj
 0001:00037033       __Exit                     00438033 f   libucrt:exit.obj
 0001:0003704e       ___acrt_initialize_thread_local_exit_callback 0043804e f   libucrt:exit.obj
 0001:00037060       __c_exit                   00438060 f   libucrt:exit.obj
 0001:00037072       __cexit                    00438072 f   libucrt:exit.obj
 0001:00037084       __exit                     00438084 f   libucrt:exit.obj
 0001:0003709f       __is_c_termination_complete 0043809f f   libucrt:exit.obj
 0001:000370a6       __register_thread_local_exe_atexit_callback 004380a6 f   libucrt:exit.obj
 0001:000370d5       _exit                      004380d5 f   libucrt:exit.obj
 0001:000370f0       _quick_exit                004380f0 f   libucrt:exit.obj
 0001:0003710b       ??$__crt_interlocked_read@H@@YAHPDH@Z 0043810b f i libucrt:setmode.obj
 0001:0003711b       ?value@?$dual_state_global@H@__crt_state_management@@QAEAAHXZ 0043811b f i libucrt:setmode.obj
 0001:0003711e       __get_fmode                0043811e f   libucrt:setmode.obj
 0001:00037156       __set_fmode                00438156 f   libucrt:setmode.obj
 0001:000371a2       __setmode                  004381a2 f   libucrt:setmode.obj
 0001:000372f7       __setmode_nolock           004382f7 f   libucrt:setmode.obj
 0001:000373f9       ___acrt_initialize_command_line 004383f9 f   libucrt:argv_data.obj
 0001:00037418       ___acrt_uninitialize_command_line 00438418 f   libucrt:argv_data.obj
 0001:0003741b       ___p___argc                0043841b f   libucrt:argv_data.obj
 0001:00037421       ___p___argv                00438421 f   libucrt:argv_data.obj
 0001:00037427       ___p___wargv               00438427 f   libucrt:argv_data.obj
 0001:0003742d       ___p__acmdln               0043842d f   libucrt:argv_data.obj
 0001:00037433       ___p__pgmptr               00438433 f   libucrt:argv_data.obj
 0001:00037439       ___p__wcmdln               00438439 f   libucrt:argv_data.obj
 0001:0003743f       ___p__wpgmptr              0043843f f   libucrt:argv_data.obj
 0001:00037445       __get_pgmptr               00438445 f   libucrt:argv_data.obj
 0001:00037482       __get_wpgmptr              00438482 f   libucrt:argv_data.obj
 0001:000374c2       ??$?RU__crt_locale_data@@@__crt_internal_free_policy@@QBEXQBU__crt_locale_data@@@Z 004384c2 f i libucrt:wsetlocale.obj
 0001:000374d8       ??$?RU__crt_locale_pointers@@@__crt_internal_free_policy@@QBEXQBU__crt_locale_pointers@@@Z 004384d8 f i libucrt:wsetlocale.obj
 0001:000374ee       ??$?RU__crt_multibyte_data@@@__crt_internal_free_policy@@QBEXQBU__crt_multibyte_data@@@Z 004384ee f i libucrt:wsetlocale.obj
 0001:00037978       ??0?$__crt_unique_heap_ptr@U__crt_locale_data@@U__crt_internal_free_policy@@@@QAE@QAU__crt_locale_data@@@Z 00438978 f i libucrt:wsetlocale.obj
 0001:0003798c       ??0?$__crt_unique_heap_ptr@U__crt_locale_pointers@@U__crt_internal_free_policy@@@@QAE@QAU__crt_locale_pointers@@@Z 0043898c f i libucrt:wsetlocale.obj
 0001:000379a0       ??0?$__crt_unique_heap_ptr@U__crt_multibyte_data@@U__crt_internal_free_policy@@@@QAE@QAU__crt_multibyte_data@@@Z 004389a0 f i libucrt:wsetlocale.obj
 0001:000379b4       ??0_expandlocale_locale_name_cache@@QAE@QA_WIQAU__crt_qualified_locale_data@@@Z 004389b4 f i libucrt:wsetlocale.obj
 0001:00037a10       ??1?$__crt_unique_heap_ptr@U__crt_locale_data@@U__crt_internal_free_policy@@@@QAE@XZ 00438a10 f i libucrt:wsetlocale.obj
 0001:00037a26       ??1?$__crt_unique_heap_ptr@U__crt_locale_pointers@@U__crt_internal_free_policy@@@@QAE@XZ 00438a26 f i libucrt:wsetlocale.obj
 0001:00037a3c       ??1?$__crt_unique_heap_ptr@U__crt_multibyte_data@@U__crt_internal_free_policy@@@@QAE@XZ 00438a3c f i libucrt:wsetlocale.obj
 0001:00037a52       ??1_expandlocale_locale_name_cache@@QAE@XZ 00438a52 f i libucrt:wsetlocale.obj
 0001:00037a8e       ??B?$__crt_unique_heap_ptr@U__crt_locale_data@@U__crt_internal_free_policy@@@@QBE_NXZ 00438a8e f i libucrt:wsetlocale.obj
 0001:00037a95       ??B?$__crt_unique_heap_ptr@U__crt_locale_pointers@@U__crt_internal_free_policy@@@@QBE_NXZ 00438a95 f i libucrt:wsetlocale.obj
 0001:00037a9c       ??B?$__crt_unique_heap_ptr@U__crt_multibyte_data@@U__crt_internal_free_policy@@@@QBE_NXZ 00438a9c f i libucrt:wsetlocale.obj
 0001:00037d3d       ?commit_locale_name@_expandlocale_locale_name_cache@@QAEXQB_WI@Z 00438d3d f i libucrt:wsetlocale.obj
 0001:00037d92       ?commit_locale_name_cache_already_updated@_expandlocale_locale_name_cache@@QAEXQB_WI@Z 00438d92 f i libucrt:wsetlocale.obj
 0001:00037dd4       ?detach@?$__crt_unique_heap_ptr@U__crt_locale_data@@U__crt_internal_free_policy@@@@QAEPAU__crt_locale_data@@XZ 00438dd4 f i libucrt:wsetlocale.obj
 0001:00037dda       ?detach@?$__crt_unique_heap_ptr@U__crt_locale_pointers@@U__crt_internal_free_policy@@@@QAEPAU__crt_locale_pointers@@XZ 00438dda f i libucrt:wsetlocale.obj
 0001:00037de0       ?detach@?$__crt_unique_heap_ptr@U__crt_multibyte_data@@U__crt_internal_free_policy@@@@QAEPAU__crt_multibyte_data@@XZ 00438de0 f i libucrt:wsetlocale.obj
 0001:00037de6       ?get@?$__crt_unique_heap_ptr@U__crt_locale_data@@U__crt_internal_free_policy@@@@QBEPAU__crt_locale_data@@XZ 00438de6 f i libucrt:wsetlocale.obj
 0001:00037de9       ?get@?$__crt_unique_heap_ptr@U__crt_locale_pointers@@U__crt_internal_free_policy@@@@QBEPAU__crt_locale_pointers@@XZ 00438de9 f i libucrt:wsetlocale.obj
 0001:00037dec       ?get@?$__crt_unique_heap_ptr@U__crt_multibyte_data@@U__crt_internal_free_policy@@@@QBEPAU__crt_multibyte_data@@XZ 00438dec f i libucrt:wsetlocale.obj
 0001:00037def       ?is_valid@?$__crt_unique_heap_ptr@U__crt_locale_data@@U__crt_internal_free_policy@@@@QBE_NXZ 00438def f i libucrt:wsetlocale.obj
 0001:00037df6       ?is_valid@?$__crt_unique_heap_ptr@U__crt_locale_pointers@@U__crt_internal_free_policy@@@@QBE_NXZ 00438df6 f i libucrt:wsetlocale.obj
 0001:00037dfd       ?is_valid@?$__crt_unique_heap_ptr@U__crt_multibyte_data@@U__crt_internal_free_policy@@@@QBE_NXZ 00438dfd f i libucrt:wsetlocale.obj
 0001:00037e04       ?release@?$__crt_unique_heap_ptr@U__crt_locale_data@@U__crt_internal_free_policy@@@@QAEXXZ 00438e04 f i libucrt:wsetlocale.obj
 0001:00037e1a       ?release@?$__crt_unique_heap_ptr@U__crt_locale_pointers@@U__crt_internal_free_policy@@@@QAEXXZ 00438e1a f i libucrt:wsetlocale.obj
 0001:00037e30       ?release@?$__crt_unique_heap_ptr@U__crt_multibyte_data@@U__crt_internal_free_policy@@@@QAEXXZ 00438e30 f i libucrt:wsetlocale.obj
 0001:00037e46       ?value@?$dual_state_global@PAU__crt_locale_data@@@__crt_state_management@@QAEAAPAU__crt_locale_data@@XZ 00438e46 f i libucrt:wsetlocale.obj
 0001:00037e49       ___acrt_copy_locale_name   00438e49 f   libucrt:wsetlocale.obj
 0001:00037ec1       ___acrt_set_locale_changed 00438ec1 f   libucrt:wsetlocale.obj
 0001:00037ece       ___acrt_uninitialize_locale 00438ece f   libucrt:wsetlocale.obj
 0001:00037efe       ___ascii_tolower           00438efe f i libucrt:wsetlocale.obj
 0001:00037f1a       ___ascii_towlower          00438f1a f i libucrt:wsetlocale.obj
 0001:00037f36       ___lc_lctowcs              00438f36 f   libucrt:wsetlocale.obj
 0001:00037fc2       ___lc_wcstolc              00438fc2 f   libucrt:wsetlocale.obj
 0001:00038166       __configthreadlocale       00439166 f   libucrt:wsetlocale.obj
 0001:0003821a       __create_locale            0043921a f   libucrt:wsetlocale.obj
 0001:0003874e       __free_locale              0043974e f   libucrt:wsetlocale.obj
 0001:00038840       __get_current_locale       00439840 f   libucrt:wsetlocale.obj
 0001:00038901       __wcreate_locale           00439901 f   libucrt:wsetlocale.obj
 0001:00038a49       __wcscats                  00439a49 f   libucrt:wsetlocale.obj
 0001:00038a9a       __wsetlocale               00439a9a f   libucrt:wsetlocale.obj
 0001:00039b52       ?value@?$dual_state_global@J@__crt_state_management@@QAEAAJXZ 0043ab52 f i libucrt:new_mode.obj
 0001:00039b55       __query_new_mode           0043ab55 f   libucrt:new_mode.obj
 0001:00039b5c       __set_new_mode             0043ab5c f   libucrt:new_mode.obj
 0001:00039b96       ___p__commode              0043ab96 f   libucrt:ncommode.obj
 0001:00039b9c       ??$?B$$A6AXXZ@__crt_fast_encoded_nullptr_t@@QBEP6AXXZXZ 0043ab9c f i libucrt:onexit.obj
 0001:00039ba2       ??$?BP6AXXZ@__crt_fast_encoded_nullptr_t@@QBEPAP6AXXZXZ 0043aba2 f i libucrt:onexit.obj
 0001:00039ba8       ??$?RP6AXXZ@__crt_internal_free_policy@@QBEXQBQ6AXXZ@Z 0043aba8 f i libucrt:onexit.obj
 0001:00039d39       ??$__crt_fast_decode_pointer@P6AXXZ@@YAP6AXXZQ6AXXZ@Z 0043ad39 f i libucrt:onexit.obj
 0001:00039d54       ??$__crt_fast_decode_pointer@PAP6AXXZ@@YAPAP6AXXZQAP6AXXZ@Z 0043ad54 f i libucrt:onexit.obj
 0001:00039d6f       ??$__crt_fast_encode_pointer@P6AHXZ@@YAP6AHXZQ6AHXZ@Z 0043ad6f f i libucrt:onexit.obj
 0001:00039d95       ??$__crt_fast_encode_pointer@P6AXXZ@@YAP6AXXZQ6AXXZ@Z 0043ad95 f i libucrt:onexit.obj
 0001:00039dbb       ??$__crt_fast_encode_pointer@PAP6AXXZ@@YAPAP6AXXZQAP6AXXZ@Z 0043adbb f i libucrt:onexit.obj
 0001:00039e68       ??0?$__crt_unique_heap_ptr@P6AXXZU__crt_internal_free_policy@@@@QAE@QAP6AXXZ@Z 0043ae68 f i libucrt:onexit.obj
 0001:00039e7c       ??1?$__crt_unique_heap_ptr@P6AXXZU__crt_internal_free_policy@@@@QAE@XZ 0043ae7c f i libucrt:onexit.obj
 0001:00039e92       ??1scoped_global_state_reset@__crt_state_management@@QAE@XZ 0043ae92 f i libucrt:onexit.obj
 0001:0003a113       ?detach@?$__crt_unique_heap_ptr@P6AXXZU__crt_internal_free_policy@@@@QAEPAP6AXXZXZ 0043b113 f i libucrt:onexit.obj
 0001:0003a119       ?release@?$__crt_unique_heap_ptr@P6AXXZU__crt_internal_free_policy@@@@QAEXXZ 0043b119 f i libucrt:onexit.obj
 0001:0003a12f       __crt_at_quick_exit        0043b12f f   libucrt:onexit.obj
 0001:0003a14a       __crt_atexit               0043b14a f   libucrt:onexit.obj
 0001:0003a165       __execute_onexit_table     0043b165 f   libucrt:onexit.obj
 0001:0003a1b2       __initialize_onexit_table  0043b1b2 f   libucrt:onexit.obj
 0001:0003a1e5       __register_onexit_function 0043b1e5 f   libucrt:onexit.obj
 0001:0003a331       ??$?BX@__crt_fast_encoded_nullptr_t@@QBEPAXXZ 0043b331 f i libucrt:initialization.obj
 0001:0003a337       ??$__crt_fast_encode_pointer@PAX@@YAPAXQAX@Z 0043b337 f i libucrt:initialization.obj
 0001:0003a3c3       ?__acrt_stdio_is_initialized@@YA_NXZ 0043b3c3 f i libucrt:initialization.obj
 0001:0003a3d0       ?initialize@?$dual_state_global@PAU__crt_locale_data@@@__crt_state_management@@QAEXQAU__crt_locale_data@@@Z 0043b3d0 f i libucrt:initialization.obj
 0001:0003a3f3       ___acrt_initialize         0043b3f3 f   libucrt:initialization.obj
 0001:0003a409       ___acrt_thread_attach      0043b409 f   libucrt:initialization.obj
 0001:0003a416       ___acrt_thread_detach      0043b416 f   libucrt:initialization.obj
 0001:0003a420       ___acrt_uninitialize       0043b420 f   libucrt:initialization.obj
 0001:0003a45c       ___acrt_uninitialize_critical 0043b45c f   libucrt:initialization.obj
 0001:0003a472       __controlfp_s              0043b472 f   libucrt:contrlfp.obj
 0001:0003a503       __get_terminate            0043b503 f   libucrt:terminate.obj
 0001:0003a519       _set_terminate             0043b519 f   libucrt:terminate.obj
 0001:0003a541       _terminate                 0043b541 f   libucrt:terminate.obj
 0001:0003a58c       _free                      0043b58c f   libucrt:free.obj
 0001:0003a5ad       _malloc                    0043b5ad f   libucrt:malloc.obj
 0001:0003a62a       _strcpy_s                  0043b62a f   libucrt:strcpy_s.obj
 0001:0003a69a       __set_abort_behavior       0043b69a f   libucrt:abort.obj
 0001:0003a6c3       _abort                     0043b6c3 f   libucrt:abort.obj
 0001:0003a718       _calloc                    0043b718 f   libucrt:calloc.obj
 0001:0003a725       ??$is_overflow_condition@_K@__crt_strtox@@YA_NI_K@Z 0043b725 f i libucrt:atox.obj
 0001:0003a776       ??$make_c_string_character_source@D$$T@__crt_strtox@@YA?AV?$c_string_character_source@D@0@QBD$$T@Z 0043b776 f i libucrt:atox.obj
 0001:0003a797       ??$make_c_string_character_source@_W$$T@__crt_strtox@@YA?AV?$c_string_character_source@_W@0@QB_W$$T@Z 0043b797 f i libucrt:atox.obj
 0001:0003a7b8       ??$parse_integer@KV?$c_string_character_source@D@__crt_strtox@@$00@__crt_strtox@@YAKAAV__crt_cached_ptd_host@@V?$c_string_character_source@D@0@H_N@Z 0043b7b8 f i libucrt:atox.obj
 0001:0003aa90       ??$parse_integer@KV?$c_string_character_source@_W@__crt_strtox@@$00@__crt_strtox@@YAKAAV__crt_cached_ptd_host@@V?$c_string_character_source@_W@0@H_N@Z 0043ba90 f i libucrt:atox.obj
 0001:0003b21c       ??$parse_integer@_KV?$c_string_character_source@D@__crt_strtox@@$00@__crt_strtox@@YA_KAAV__crt_cached_ptd_host@@V?$c_string_character_source@D@0@H_N@Z 0043c21c f i libucrt:atox.obj
 0001:0003b596       ??$parse_integer@_KV?$c_string_character_source@_W@__crt_strtox@@$00@__crt_strtox@@YA_KAAV__crt_cached_ptd_host@@V?$c_string_character_source@_W@0@H_N@Z 0043c596 f i libucrt:atox.obj
 0001:0003bdbd       ??$parse_integer_from_string@JD$$T@__crt_strtox@@YAJQBD$$THQAU__crt_locale_pointers@@@Z 0043cdbd f i libucrt:atox.obj
 0001:0003be15       ??$parse_integer_from_string@J_W$$T@__crt_strtox@@YAJQB_W$$THQAU__crt_locale_pointers@@@Z 0043ce15 f i libucrt:atox.obj
 0001:0003be6d       ??$parse_integer_from_string@_JD$$T@__crt_strtox@@YA_JQBD$$THQAU__crt_locale_pointers@@@Z 0043ce6d f i libucrt:atox.obj
 0001:0003becd       ??$parse_integer_from_string@_J_W$$T@__crt_strtox@@YA_JQB_W$$THQAU__crt_locale_pointers@@@Z 0043cecd f i libucrt:atox.obj
 0001:0003bf2d       ?is_space@__crt_strtox@@YA_NDQAU__crt_locale_pointers@@@Z 0043cf2d f i libucrt:atox.obj
 0001:0003bf52       ?is_space@__crt_strtox@@YA_N_WPAU__crt_locale_pointers@@@Z 0043cf52 f i libucrt:atox.obj
 0001:0003bf70       ?maximum_signed_value@__crt_strtox@@YA_J_K@Z 0043cf70 f i libucrt:atox.obj
 0001:0003bf7b       ?minimum_signed_value@__crt_strtox@@YA_J_K@Z 0043cf7b f i libucrt:atox.obj
 0001:0003bf85       ___acrt_get_locale_data_prefix 0043cf85 f i libucrt:atox.obj
 0001:0003bf94       __atoi64                   0043cf94 f   libucrt:atox.obj
 0001:0003bfea       __atoi64_l                 0043cfea f   libucrt:atox.obj
 0001:0003c041       __atoi_l                   0043d041 f   libucrt:atox.obj
 0001:0003c091       __atol_l                   0043d091 f   libucrt:atox.obj
 0001:0003c0e1       __atoll_l                  0043d0e1 f   libucrt:atox.obj
 0001:0003c138       __chvalidchk_l             0043d138 f i libucrt:atox.obj
 0001:0003c16a       __ischartype_l             0043d16a f i libucrt:atox.obj
 0001:0003c1d6       __wtoi                     0043d1d6 f   libucrt:atox.obj
 0001:0003c224       __wtoi64                   0043d224 f   libucrt:atox.obj
 0001:0003c27a       __wtoi64_l                 0043d27a f   libucrt:atox.obj
 0001:0003c2d1       __wtoi_l                   0043d2d1 f   libucrt:atox.obj
 0001:0003c321       __wtol                     0043d321 f   libucrt:atox.obj
 0001:0003c36f       __wtol_l                   0043d36f f   libucrt:atox.obj
 0001:0003c3bf       __wtoll                    0043d3bf f   libucrt:atox.obj
 0001:0003c415       __wtoll_l                  0043d415 f   libucrt:atox.obj
 0001:0003c46c       _atoi                      0043d46c f   libucrt:atox.obj
 0001:0003c4ba       _atol                      0043d4ba f   libucrt:atox.obj
 0001:0003c508       _atoll                     0043d508 f   libucrt:atox.obj
 0001:0003c560       _strncmp                   0043d560 f   libucrt:strncmp.obj
 0001:0003c5f6       _wcsncmp                   0043d5f6 f   libucrt:wcsncmp.obj
 0001:0003c63e       ??$__crt_fast_decode_pointer@P6AXPB_W00II@Z@@YAP6AXPB_W00II@ZQ6AX000II@Z@Z 0043d63e f i libucrt:invalid_parameter.obj
 0001:0003c659       ??$__crt_fast_encode_pointer@P6AXPB_W00II@Z@@YAP6AXPB_W00II@ZQ6AX000II@Z@Z 0043d659 f i libucrt:invalid_parameter.obj
 0001:0003c67f       ??$initialize_from_array@$$BY00Q6AXPB_W00II@Z@?$dual_state_global@P6AXPB_W00II@Z@__crt_state_management@@QAAXAAY00Q6AXPB_W00II@Z@Z 0043d67f f i libucrt:invalid_parameter.obj
 0001:0003c694       ?check_synchronize_global_state_index@__crt_cached_ptd_host@@AAEIXZ 0043d694 f i libucrt:invalid_parameter.obj
 0001:0003c6c7       ?dangerous_get_state_array@?$dual_state_global@P6AXPB_W00II@Z@__crt_state_management@@QAEPAP6AXPB_W00II@ZXZ 0043d6c7 f i libucrt:invalid_parameter.obj
 0001:0003c6ca       ?get_current_global_state_index@__crt_cached_ptd_host@@QAEIXZ 0043d6ca f i libucrt:invalid_parameter.obj
 0001:0003c6cf       ?get_raw_ptd_noexit@__crt_cached_ptd_host@@QAEPAU__acrt_ptd@@XZ 0043d6cf f i libucrt:invalid_parameter.obj
 0001:0003c6dc       ?try_synchronize_per_thread_data@__crt_cached_ptd_host@@AAEPAU__acrt_ptd@@XZ 0043d6dc f i libucrt:invalid_parameter.obj
 0001:0003c6e9       ?value@?$dual_state_global@P6AXPB_W00II@Z@__crt_state_management@@QAEAAP6AXPB_W00II@ZAAV__crt_cached_ptd_host@@@Z 0043d6e9 f i libucrt:invalid_parameter.obj
 0001:0003c707       ?value@?$dual_state_global@P6AXPB_W00II@Z@__crt_state_management@@QAEAAP6AXPB_W00II@ZXZ 0043d707 f i libucrt:invalid_parameter.obj
 0001:0003c70a       ___acrt_call_reportfault   0043d70a f   libucrt:invalid_parameter.obj
 0001:0003c891       ___acrt_initialize_invalid_parameter_handler 0043d891 f   libucrt:invalid_parameter.obj
 0001:0003c8a3       __get_invalid_parameter_handler 0043d8a3 f   libucrt:invalid_parameter.obj
 0001:0003c8ba       __get_thread_local_invalid_parameter_handler 0043d8ba f   libucrt:invalid_parameter.obj
 0001:0003c8cf       __invalid_parameter        0043d8cf f   libucrt:invalid_parameter.obj
 0001:0003c913       __invalid_parameter_internal 0043d913 f   libucrt:invalid_parameter.obj
 0001:0003c9af       __invalid_parameter_noinfo 0043d9af f   libucrt:invalid_parameter.obj
 0001:0003c9c3       __invalid_parameter_noinfo_noreturn 0043d9c3 f   libucrt:invalid_parameter.obj
 0001:0003c9e7       __invoke_watson            0043d9e7 f   libucrt:invalid_parameter.obj
 0001:0003ca28       __set_invalid_parameter_handler 0043da28 f   libucrt:invalid_parameter.obj
 0001:0003ca64       __set_thread_local_invalid_parameter_handler 0043da64 f   libucrt:invalid_parameter.obj
 0001:0003ca88       ?get_doserrno@__crt_cached_ptd_host@@QAEAAU?$cached@K@1@XZ 0043da88 f i libucrt:errno.obj
 0001:0003ca8c       ?set@?$cached@K@__crt_cached_ptd_host@@QAEKK@Z 0043da8c f i libucrt:errno.obj
 0001:0003caa2       ___acrt_errno_from_os_error 0043daa2 f   libucrt:errno.obj
 0001:0003caf5       ___acrt_errno_map_os_error 0043daf5 f   libucrt:errno.obj
 0001:0003cb20       ___acrt_errno_map_os_error_ptd 0043db20 f   libucrt:errno.obj
 0001:0003cb4d       ___doserrno                0043db4d f   libucrt:errno.obj
 0001:0003cb64       __errno                    0043db64 f   libucrt:errno.obj
 0001:0003cb7b       __get_doserrno             0043db7b f   libucrt:errno.obj
 0001:0003cba9       __get_errno                0043dba9 f   libucrt:errno.obj
 0001:0003cbd7       __set_doserrno             0043dbd7 f   libucrt:errno.obj
 0001:0003cc00       __set_errno                0043dc00 f   libucrt:errno.obj
 0001:0003cc29       __calloc_base              0043dc29 f   libucrt:calloc_base.obj
 0001:0003cca3       __free_base                0043dca3 f   libucrt:free_base.obj
 0001:0003ccfb       ??$?B$$A6GHPA_WKJ@Z@__crt_fast_encoded_nullptr_t@@QBEP6GHPA_WKJ@ZXZ 0043dcfb f i libucrt:winapi_thunks.obj
 0001:0003cdcb       ??$__crt_fast_decode_pointer@P6GHPA_WKJ@Z@@YAP6GHPA_WKJ@ZQ6GH0KJ@Z@Z 0043ddcb f i libucrt:winapi_thunks.obj
 0001:0003cde6       ??$__crt_fast_decode_pointer@PAX@@YAPAXQAX@Z 0043dde6 f i libucrt:winapi_thunks.obj
 0001:0003ce01       ??$__crt_fast_encode_pointer@P6GHPA_WKJ@Z@@YAP6GHPA_WKJ@ZQ6GH0KJ@Z@Z 0043de01 f i libucrt:winapi_thunks.obj
 0001:0003d61b       _GetCurrentThreadEffectiveToken 0043e61b f i libucrt:winapi_thunks.obj
 0001:0003d61f       ___acrt_AppPolicyGetProcessTerminationMethodInternal@4 0043e61f f   libucrt:winapi_thunks.obj
 0001:0003d66f       ___acrt_AppPolicyGetShowDeveloperDiagnosticInternal@4 0043e66f f   libucrt:winapi_thunks.obj
 0001:0003d6bf       ___acrt_AppPolicyGetThreadInitializationTypeInternal@4 0043e6bf f   libucrt:winapi_thunks.obj
 0001:0003d70f       ___acrt_AppPolicyGetWindowingModelInternal@4 0043e70f f   libucrt:winapi_thunks.obj
 0001:0003d75f       ___acrt_AreFileApisANSI@0  0043e75f f   libucrt:winapi_thunks.obj
 0001:0003d785       ___acrt_CompareStringEx@36 0043e785 f   libucrt:winapi_thunks.obj
 0001:0003d7f9       ___acrt_EnumSystemLocalesEx@16 0043e7f9 f   libucrt:winapi_thunks.obj
 0001:0003d862       ___acrt_FlsAlloc@4         0043e862 f   libucrt:winapi_thunks.obj
 0001:0003d8b0       ___acrt_FlsFree@4          0043e8b0 f   libucrt:winapi_thunks.obj
 0001:0003d8fe       ___acrt_FlsGetValue@4      0043e8fe f   libucrt:winapi_thunks.obj
 0001:0003d94c       ___acrt_FlsSetValue@8      0043e94c f   libucrt:winapi_thunks.obj
 0001:0003d99e       ___acrt_GetDateFormatEx@28 0043e99e f   libucrt:winapi_thunks.obj
 0001:0003da0a       ___acrt_GetEnabledXStateFeatures@0 0043ea0a f   libucrt:winapi_thunks.obj
 0001:0003da4b       ___acrt_GetLocaleInfoEx@16 0043ea4b f   libucrt:winapi_thunks.obj
 0001:0003da99       ___acrt_GetSystemTimePreciseAsFileTime@4 0043ea99 f   libucrt:winapi_thunks.obj
 0001:0003dae7       ___acrt_GetTimeFormatEx@24 0043eae7 f   libucrt:winapi_thunks.obj
 0001:0003db3d       ___acrt_GetUserDefaultLocaleName@8 0043eb3d f   libucrt:winapi_thunks.obj
 0001:0003db88       ___acrt_GetXStateFeaturesMask@8 0043eb88 f   libucrt:winapi_thunks.obj
 0001:0003dbd8       ___acrt_InitializeCriticalSectionEx@12 0043ebd8 f   libucrt:winapi_thunks.obj
 0001:0003dc35       ___acrt_IsValidLocaleName@4 0043ec35 f   libucrt:winapi_thunks.obj
 0001:0003dc7b       ___acrt_LCIDToLocaleName@16 0043ec7b f   libucrt:winapi_thunks.obj
 0001:0003dcc9       ___acrt_LCMapStringEx@36   0043ecc9 f   libucrt:winapi_thunks.obj
 0001:0003dd3d       ___acrt_LocaleNameToLCID@8 0043ed3d f   libucrt:winapi_thunks.obj
 0001:0003dd7a       ___acrt_LocateXStateFeature@12 0043ed7a f   libucrt:winapi_thunks.obj
 0001:0003ddb4       ___acrt_MessageBoxA@16     0043edb4 f   libucrt:winapi_thunks.obj
 0001:0003ddf2       ___acrt_MessageBoxW@16     0043edf2 f   libucrt:winapi_thunks.obj
 0001:0003de30       ___acrt_RoInitialize@4     0043ee30 f   libucrt:winapi_thunks.obj
 0001:0003de79       ___acrt_RoUninitialize@0   0043ee79 f   libucrt:winapi_thunks.obj
 0001:0003deb2       ___acrt_RtlGenRandom@8     0043eeb2 f   libucrt:winapi_thunks.obj
 0001:0003df02       ___acrt_SetThreadStackGuarantee@4 0043ef02 f   libucrt:winapi_thunks.obj
 0001:0003df4b       ___acrt_can_show_message_box 0043ef4b f   libucrt:winapi_thunks.obj
 0001:0003df7b       ___acrt_can_use_vista_locale_apis 0043ef7b f   libucrt:winapi_thunks.obj
 0001:0003df88       ___acrt_can_use_xstate_apis 0043ef88 f   libucrt:winapi_thunks.obj
 0001:0003df95       ___acrt_eagerly_load_locale_apis 0043ef95 f   libucrt:winapi_thunks.obj
 0001:0003dfd9       ___acrt_get_parent_window  0043efd9 f   libucrt:winapi_thunks.obj
 0001:0003e05b       ___acrt_initialize_winapi_thunks 0043f05b f   libucrt:winapi_thunks.obj
 0001:0003e074       ___acrt_is_interactive     0043f074 f   libucrt:winapi_thunks.obj
 0001:0003e13a       ___acrt_uninitialize_winapi_thunks 0043f13a f   libucrt:winapi_thunks.obj
 0001:0003e17d       ??0__crt_stdio_stream@@QAE@QAU__crt_stdio_stream_data@@@Z 0043f17d f i libucrt:closeall.obj
 0001:0003e191       ?is_in_use@__crt_stdio_stream@@QBE_NXZ 0043f191 f i libucrt:closeall.obj
 0001:0003e1a0       __fcloseall                0043f1a0 f   libucrt:closeall.obj
 0001:0003e71d       ?__acrt_stdio_reset_buffer@@YAXV__crt_stdio_stream@@@Z 0043f71d f i libucrt:fflush.obj
 0001:0003e836       ?has_all_of@__crt_stdio_stream@@QBE_NJ@Z 0043f836 f i libucrt:fflush.obj
 0001:0003e8b7       ?set_flags@__crt_stdio_stream@@QBE_NJ@Z 0043f8b7 f i libucrt:fflush.obj
 0001:0003e8e4       ?unset_flags@__crt_stdio_stream@@QBE_NJ@Z 0043f8e4 f i libucrt:fflush.obj
 0001:0003e917       ___acrt_stdio_flush_nolock 0043f917 f   libucrt:fflush.obj
 0001:0003e99a       __fflush_nolock            0043f99a f   libucrt:fflush.obj
 0001:0003ea18       __flushall                 0043fa18 f   libucrt:fflush.obj
 0001:0003ea23       _fflush                    0043fa23 f   libucrt:fflush.obj
 0001:0003ea8d       ?has_any_of@__crt_stdio_stream@@QBE_NJ@Z 0043fa8d f i libucrt:_freebuf.obj
 0001:0003eaa7       ?has_crt_buffer@__crt_stdio_stream@@QBE_NXZ 0043faa7 f i libucrt:_freebuf.obj
 0001:0003eab6       ___acrt_stdio_free_buffer_nolock 0043fab6 f   libucrt:_freebuf.obj
 0001:0003ecef       ___acrt_initialize_lowio   0043fcef f   libucrt:ioinit.obj
 0001:0003ed67       ___acrt_uninitialize_lowio 0043fd67 f   libucrt:ioinit.obj
 0001:0003ed9e       ?lowio_handle@__crt_stdio_stream@@QBEHXZ 0043fd9e f i libucrt:fileno.obj
 0001:0003eda5       __fileno                   0043fda5 f   libucrt:fileno.obj
 0001:0003f23e       ?has_any_buffer@__crt_stdio_stream@@QBE_NXZ 0044023e f i libucrt:_filbuf.obj
 0001:0003f302       ___acrt_stdio_refill_and_read_narrow_nolock 00440302 f   libucrt:_filbuf.obj
 0001:0003f30f       ___acrt_stdio_refill_and_read_wide_nolock 0044030f f   libucrt:_filbuf.obj
 0001:0003f31c       __malloc_base              0044031c f   libucrt:malloc_base.obj
 0001:0003fd71       ??1?$__crt_simd_cleanup_guard@$00@@QAE@XZ 00440d71 f i libucrt:strnlen.obj
 0001:0003fd75       ??1?$__crt_simd_cleanup_guard@$0A@@@QAE@XZ 00440d75 f i libucrt:strnlen.obj
 0001:0003fd78       ?compare_equals@?$__crt_simd_traits@$00E@@SA?AT__m256i@@T2@0@Z 00440d78 f i libucrt:strnlen.obj
 0001:0003fd7d       ?compare_equals@?$__crt_simd_traits@$00G@@SA?AT__m256i@@T2@0@Z 00440d7d f i libucrt:strnlen.obj
 0001:0003fd82       ?compare_equals@?$__crt_simd_traits@$0A@E@@SA?AT__m128i@@T2@0@Z 00440d82 f i libucrt:strnlen.obj
 0001:0003fd87       ?compare_equals@?$__crt_simd_traits@$0A@G@@SA?AT__m128i@@T2@0@Z 00440d87 f i libucrt:strnlen.obj
 0001:0003fd8c       ?compute_byte_mask@?$__crt_simd_pack_traits@$00@@SAHT__m256i@@@Z 00440d8c f i libucrt:strnlen.obj
 0001:0003fd91       ?compute_byte_mask@?$__crt_simd_pack_traits@$0A@@@SAHT__m128i@@@Z 00440d91 f i libucrt:strnlen.obj
 0001:0003fd96       ?get_zero_pack@?$__crt_simd_pack_traits@$00@@SA?AT__m256i@@XZ 00440d96 f i libucrt:strnlen.obj
 0001:0003fd9b       ?get_zero_pack@?$__crt_simd_pack_traits@$0A@@@SA?AT__m128i@@XZ 00440d9b f i libucrt:strnlen.obj
 0001:0003fd9f       _strnlen                   00440d9f f   libucrt:strnlen.obj
 0001:0003ff09       _wcslen                    00440f09 f   libucrt:strnlen.obj
 0001:0004007b       _wcsnlen                   0044107b f   libucrt:strnlen.obj
 0001:00040297       ?value@?$dual_state_global@PAU__crt_multibyte_data@@@__crt_state_management@@QAEAAPAU__crt_multibyte_data@@XZ 00441297 f i libucrt:locale_update.obj
 0001:0004029a       ?value_explicit@?$dual_state_global@PAU__crt_locale_data@@@__crt_state_management@@QAEAAPAU__crt_locale_data@@I@Z 0044129a f i libucrt:locale_update.obj
 0001:000402ac       ?value_explicit@?$dual_state_global@PAU__crt_multibyte_data@@@__crt_state_management@@QAEAAPAU__crt_multibyte_data@@I@Z 004412ac f i libucrt:locale_update.obj
 0001:000402be       ___acrt_should_sync_with_global_locale 004412be f i libucrt:locale_update.obj
 0001:000402e1       ___acrt_update_locale_info 004412e1 f   libucrt:locale_update.obj
 0001:00040319       ___acrt_update_locale_info_explicit 00441319 f   libucrt:locale_update.obj
 0001:00040356       ___acrt_update_multibyte_info 00441356 f   libucrt:locale_update.obj
 0001:0004038e       ___acrt_update_multibyte_info_explicit 0044138e f   libucrt:locale_update.obj
 0001:000403cb       ?__acrt_fp_classify@@YA?AW4__acrt_fp_class@@ABN@Z 004413cb f i libucrt:cvt.obj
 0001:00040445       ?__acrt_fp_is_negative@@YA_NABN@Z 00441445 f i libucrt:cvt.obj
 0001:00041021       ?strrchr@@YAPADQADH@Z      00442021 f i libucrt:cvt.obj
 0001:0004102e       ___acrt_fp_format          0044202e f   libucrt:cvt.obj
 0001:0004120f       ?value_or@?$cached@H@__crt_cached_ptd_host@@QBEHH@Z 0044220f f i libucrt:wctomb.obj
 0001:0004122a       __wctomb_internal          0044222a f   libucrt:wctomb.obj
 0001:000413ee       __wctomb_l                 004423ee f   libucrt:wctomb.obj
 0001:0004145f       __wctomb_s_l               0044245f f   libucrt:wctomb.obj
 0001:000414a8       _wctomb                    004424a8 f   libucrt:wctomb.obj
 0001:00041507       _wctomb_s                  00442507 f   libucrt:wctomb.obj
 0001:0004154f       __isleadbyte_fast_internal 0044254f f i libucrt:mbtowc.obj
 0001:00041574       __mbtowc_internal          00442574 f   libucrt:mbtowc.obj
 0001:000416f3       __mbtowc_l                 004426f3 f   libucrt:mbtowc.obj
 0001:00041739       _mbtowc                    00442739 f   libucrt:mbtowc.obj
 0001:0004177d       __get_printf_count_output  0044277d f   libucrt:printf_count_output.obj
 0001:00041797       __set_printf_count_output  00442797 f   libucrt:printf_count_output.obj
 0001:000418c0       __fputwc_nolock            004428c0 f   libucrt:fputwc.obj
 0001:00041903       __fputwc_nolock_internal   00442903 f   libucrt:fputwc.obj
 0001:00041a89       __fputwchar                00442a89 f   libucrt:fputwc.obj
 0001:00041aa9       __putwc_nolock             00442aa9 f   libucrt:fputwc.obj
 0001:00041ab6       _fputwc                    00442ab6 f   libucrt:fputwc.obj
 0001:00041af9       _putwc                     00442af9 f   libucrt:fputwc.obj
 0001:00041b06       _putwchar                  00442b06 f   libucrt:fputwc.obj
 0001:00041c8b       __fputc_nolock             00442c8b f   libucrt:fputc.obj
 0001:00041ccc       __fputc_nolock_internal    00442ccc f   libucrt:fputc.obj
 0001:00041d04       __fputchar                 00442d04 f   libucrt:fputc.obj
 0001:00041d24       __putc_nolock              00442d24 f   libucrt:fputc.obj
 0001:00041d31       _fputc                     00442d31 f   libucrt:fputc.obj
 0001:00041d72       _putc                      00442d72 f   libucrt:fputc.obj
 0001:00041d7f       _putchar                   00442d7f f   libucrt:fputc.obj
 0001:00041d8c       ?has_temporary_buffer@__crt_stdio_stream@@QBE_NXZ 00442d8c f i libucrt:_sftbuf.obj
 0001:00041d9b       ___acrt_should_use_temporary_buffer 00442d9b f   libucrt:_sftbuf.obj
 0001:00041de4       ___acrt_stdio_begin_temporary_buffering_nolock 00442de4 f   libucrt:_sftbuf.obj
 0001:00041ebb       ___acrt_stdio_end_temporary_buffering_nolock 00442ebb f   libucrt:_sftbuf.obj
 0001:00041f08       ??$?RU__acrt_ptd@@@__crt_internal_free_policy@@QBEXQBU__acrt_ptd@@@Z 00442f08 f i libucrt:per_thread_data.obj
 0001:000422a6       ??0?$__crt_unique_heap_ptr@U__acrt_ptd@@U__crt_internal_free_policy@@@@QAE@QAU__acrt_ptd@@@Z 004432a6 f i libucrt:per_thread_data.obj
 0001:000422ba       ??1?$__crt_unique_heap_ptr@U__acrt_ptd@@U__crt_internal_free_policy@@@@QAE@XZ 004432ba f i libucrt:per_thread_data.obj
 0001:000422d0       ??B?$__crt_unique_heap_ptr@U__acrt_ptd@@U__crt_internal_free_policy@@@@QBE_NXZ 004432d0 f i libucrt:per_thread_data.obj
 0001:0004246b       ?dangerous_get_state_array@?$dual_state_global@PAU__crt_locale_data@@@__crt_state_management@@QAEPAPAU__crt_locale_data@@XZ 0044346b f i libucrt:per_thread_data.obj
 0001:0004259c       ?detach@?$__crt_unique_heap_ptr@U__acrt_ptd@@U__crt_internal_free_policy@@@@QAEPAU__acrt_ptd@@XZ 0044359c f i libucrt:per_thread_data.obj
 0001:000425a2       ?get@?$__crt_unique_heap_ptr@U__acrt_ptd@@U__crt_internal_free_policy@@@@QBEPAU__acrt_ptd@@XZ 004435a2 f i libucrt:per_thread_data.obj
 0001:000427fe       ?is_valid@?$__crt_unique_heap_ptr@U__acrt_ptd@@U__crt_internal_free_policy@@@@QBE_NXZ 004437fe f i libucrt:per_thread_data.obj
 0001:00042805       ?release@?$__crt_unique_heap_ptr@U__acrt_ptd@@U__crt_internal_free_policy@@@@QAEXXZ 00443805 f i libucrt:per_thread_data.obj
 0001:00042894       ___acrt_freeptd            00443894 f   libucrt:per_thread_data.obj
 0001:000428cb       ___acrt_getptd             004438cb f   libucrt:per_thread_data.obj
 0001:000429b4       ___acrt_getptd_head        004439b4 f   libucrt:per_thread_data.obj
 0001:00042a6f       ___acrt_getptd_noexit      00443a6f f   libucrt:per_thread_data.obj
 0001:00042b4c       ___acrt_getptd_noexit_explicit 00443b4c f   libucrt:per_thread_data.obj
 0001:00042c17       ___acrt_initialize_ptd     00443c17 f   libucrt:per_thread_data.obj
 0001:00042c4e       ___acrt_uninitialize_ptd   00443c4e f   libucrt:per_thread_data.obj
 0001:00042c6e       ___threadhandle            00443c6e f   libucrt:per_thread_data.obj
 0001:00042c74       ___threadid                00443c74 f   libucrt:per_thread_data.obj
 0001:00042c7a       ___p___mb_cur_max          00443c7a f   libucrt:nlsdata.obj
 0001:00042ca8       __set_error_mode           00443ca8 f   libucrt:set_error_mode.obj
 0001:00042d8c       _wcscat_s                  00443d8c f   libucrt:wcscat_s.obj
 0001:00042e16       _wcscpy_s                  00443e16 f   libucrt:wcscpy_s.obj
 0001:00042f94       _wcsncpy_s                 00443f94 f   libucrt:wcsncpy_s.obj
 0001:000430da       ??$message_box@$$TABQBDABQBDK@?$__crt_char_traits@D@@SAH$$QA$$TABQBD1$$QAK@Z 004440da f i libucrt:crtmbox.obj
 0001:00043102       ??$message_box@$$TABQB_WABQB_WK@?$__crt_char_traits@_W@@SAH$$QA$$TABQB_W1$$QAK@Z 00444102 f i libucrt:crtmbox.obj
 0001:0004312a       ??$message_box@PAUHWND__@@ABQBDABQBDABI@?$__crt_char_traits@D@@SAH$$QAPAUHWND__@@ABQBD1ABI@Z 0044412a f i libucrt:crtmbox.obj
 0001:00043152       ??$message_box@PAUHWND__@@ABQB_WABQB_WABI@?$__crt_char_traits@_W@@SAH$$QAPAUHWND__@@ABQB_W1ABI@Z 00444152 f i libucrt:crtmbox.obj
 0001:0004317a       ??$output_debug_string@ABQBD@?$__crt_char_traits@D@@SAXABQBD@Z 0044417a f i libucrt:crtmbox.obj
 0001:0004318f       ??$output_debug_string@ABQB_W@?$__crt_char_traits@_W@@SAXABQB_W@Z 0044418f f i libucrt:crtmbox.obj
 0001:000431a5       ___acrt_show_narrow_message_box 004441a5 f   libucrt:crtmbox.obj
 0001:000431b2       ___acrt_show_wide_message_box 004441b2 f   libucrt:crtmbox.obj
 0001:000431fb       ??$__acrt_convert_wcs_mbs_cp@D_WV<lambda_62f6974d9771e494a5ea317cc32e971c>@@U__crt_win32_buffer_internal_dynamic_resizing@@@@YAHQBDAAV?$__crt_win32_buffer@_WU__crt_win32_buffer_internal_dynamic_resizing@@@@ABV<lambda_62f6974d9771e494a5ea317cc32e971c>@@I@Z 004441fb f i libucrt:argv_wildcards.obj
 0001:000432d9       ??$__acrt_convert_wcs_mbs_cp@_WDV<lambda_28bda7af82a03b66c1cb3803a755f95d>@@U__crt_win32_buffer_internal_dynamic_resizing@@@@YAHQB_WAAV?$__crt_win32_buffer@DU__crt_win32_buffer_internal_dynamic_resizing@@@@ABV<lambda_28bda7af82a03b66c1cb3803a755f95d>@@I@Z 004442d9 f i libucrt:argv_wildcards.obj
 0001:000433d0       ??$__acrt_mbs_to_wcs_cp@U__crt_win32_buffer_internal_dynamic_resizing@@@@YAHQBDAAV?$__crt_win32_buffer@_WU__crt_win32_buffer_internal_dynamic_resizing@@@@I@Z 004443d0 f i libucrt:argv_wildcards.obj
 0001:000433f4       ??$__acrt_wcs_to_mbs_cp@U__crt_win32_buffer_internal_dynamic_resizing@@@@YAHQB_WAAV?$__crt_win32_buffer@DU__crt_win32_buffer_internal_dynamic_resizing@@@@I@Z 004443f4 f i libucrt:argv_wildcards.obj
 0001:00043ed1       ??$tcslen@ABQBD@?$__crt_char_traits@D@@SAIABQBD@Z 00444ed1 f i libucrt:argv_wildcards.obj
 0001:00043eef       ??$tcslen@ABQB_W@?$__crt_char_traits@_W@@SAIABQB_W@Z 00444eef f i libucrt:argv_wildcards.obj
 0001:00043f14       ??$tcsncpy_s@AAPADIAAPADABI@?$__crt_char_traits@D@@SAHAAPAD$$QAI0ABI@Z 00444f14 f i libucrt:argv_wildcards.obj
 0001:00043f3f       ??$tcsncpy_s@AAPA_WIAAPA_WABI@?$__crt_char_traits@_W@@SAHAAPA_W$$QAI0ABI@Z 00444f3f f i libucrt:argv_wildcards.obj
 0001:00043f6a       ??$tcsncpy_s@PADABIABQBDABI@?$__crt_char_traits@D@@SAH$$QAPADABIABQBD1@Z 00444f6a f i libucrt:argv_wildcards.obj
 0001:00043f95       ??$tcsncpy_s@PADIABQBDABI@?$__crt_char_traits@D@@SAH$$QAPAD$$QAIABQBDABI@Z 00444f95 f i libucrt:argv_wildcards.obj
 0001:00043fc0       ??$tcsncpy_s@PA_WABIABQB_WABI@?$__crt_char_traits@_W@@SAH$$QAPA_WABIABQB_W1@Z 00444fc0 f i libucrt:argv_wildcards.obj
 0001:00043feb       ??$tcsncpy_s@PA_WIABQB_WABI@?$__crt_char_traits@_W@@SAH$$QAPA_W$$QAIABQB_WABI@Z 00444feb f i libucrt:argv_wildcards.obj
 0001:00044016       ??$tcspbrk@AAPADAAY02$$CBD@?$__crt_char_traits@D@@SAPADAAPADAAY02$$CBD@Z 00445016 f i libucrt:argv_wildcards.obj
 0001:00044031       ??$tcspbrk@AAPA_WAAY02$$CB_W@?$__crt_char_traits@_W@@SAPA_WAAPA_WAAY02$$CB_W@Z 00445031 f i libucrt:argv_wildcards.obj
 0001:0004404c       ??0?$__crt_unique_handle_t@U__crt_findfile_traits@@@@QAE@QAX@Z 0044504c f i libucrt:argv_wildcards.obj
 0001:00044060       ??0?$__crt_win32_buffer@DU__crt_win32_buffer_internal_dynamic_resizing@@@@QAE@XZ 00445060 f i libucrt:argv_wildcards.obj
 0001:0004407b       ??0?$__crt_win32_buffer@_WU__crt_win32_buffer_internal_dynamic_resizing@@@@QAE@XZ 0044507b f i libucrt:argv_wildcards.obj
 0001:000440b6       ??0_LocaleUpdate@@QAE@QAU__crt_locale_pointers@@@Z 004450b6 f i libucrt:argv_wildcards.obj
 0001:00044158       ??1?$__crt_unique_handle_t@U__crt_findfile_traits@@@@QAE@XZ 00445158 f i libucrt:argv_wildcards.obj
 0001:00044174       ??1?$__crt_win32_buffer@DU__crt_win32_buffer_internal_dynamic_resizing@@@@QAE@XZ 00445174 f i libucrt:argv_wildcards.obj
 0001:00044179       ??1?$__crt_win32_buffer@_WU__crt_win32_buffer_internal_dynamic_resizing@@@@QAE@XZ 00445179 f i libucrt:argv_wildcards.obj
 0001:000441e4       ??1_LocaleUpdate@@QAE@XZ   004451e4 f i libucrt:argv_wildcards.obj
 0001:00044204       ??R<lambda_28bda7af82a03b66c1cb3803a755f95d>@@QBEHIQB_WQADI@Z 00445204 f i libucrt:argv_wildcards.obj
 0001:00044256       ??R<lambda_62f6974d9771e494a5ea317cc32e971c>@@QBEHIQBDQA_WI@Z 00445256 f i libucrt:argv_wildcards.obj
 0001:000442ec       ?GetLocaleT@_LocaleUpdate@@QAEPAU__crt_locale_pointers@@XZ 004452ec f i libucrt:argv_wildcards.obj
 0001:000442f0       ?__acrt_get_utf8_acp_compatibility_codepage@@YAIXZ 004452f0 f i libucrt:argv_wildcards.obj
 0001:0004433e       ?_deallocate@?$__crt_win32_buffer@DU__crt_win32_buffer_internal_dynamic_resizing@@@@AAEXXZ 0044533e f i libucrt:argv_wildcards.obj
 0001:0004435e       ?_deallocate@?$__crt_win32_buffer@_WU__crt_win32_buffer_internal_dynamic_resizing@@@@AAEXXZ 0044535e f i libucrt:argv_wildcards.obj
 0001:0004437e       ?allocate@?$__crt_win32_buffer@DU__crt_win32_buffer_internal_dynamic_resizing@@@@QAEHI@Z 0044537e f i libucrt:argv_wildcards.obj
 0001:000443c9       ?allocate@?$__crt_win32_buffer@_WU__crt_win32_buffer_internal_dynamic_resizing@@@@QAEHI@Z 004453c9 f i libucrt:argv_wildcards.obj
 0001:00044417       ?allocate@__crt_win32_buffer_internal_dynamic_resizing@@SAHQAPAXIABV__crt_win32_buffer_empty_debug_info@@@Z 00445417 f i libucrt:argv_wildcards.obj
 0001:000444c7       ?capacity@?$__crt_win32_buffer@DU__crt_win32_buffer_internal_dynamic_resizing@@@@QBEIXZ 004454c7 f i libucrt:argv_wildcards.obj
 0001:000444cb       ?capacity@?$__crt_win32_buffer@_WU__crt_win32_buffer_internal_dynamic_resizing@@@@QBEIXZ 004454cb f i libucrt:argv_wildcards.obj
 0001:000444cf       ?close@?$__crt_unique_handle_t@U__crt_findfile_traits@@@@QAEXXZ 004454cf f i libucrt:argv_wildcards.obj
 0001:000444eb       ?close@__crt_findfile_traits@@SA_NPAX@Z 004454eb f i libucrt:argv_wildcards.obj
 0001:00044505       ?data@?$__crt_win32_buffer@DU__crt_win32_buffer_internal_dynamic_resizing@@@@QAEPADXZ 00445505 f i libucrt:argv_wildcards.obj
 0001:00044509       ?data@?$__crt_win32_buffer@_WU__crt_win32_buffer_internal_dynamic_resizing@@@@QAEPA_WXZ 00445509 f i libucrt:argv_wildcards.obj
 0001:0004450d       ?deallocate@__crt_win32_buffer_internal_dynamic_resizing@@SAXQAXABV__crt_win32_buffer_empty_debug_info@@@Z 0044550d f i libucrt:argv_wildcards.obj
 0001:00044521       ?debug_info@?$__crt_win32_buffer@DU__crt_win32_buffer_internal_dynamic_resizing@@@@QBEABV__crt_win32_buffer_empty_debug_info@@XZ 00445521 f i libucrt:argv_wildcards.obj
 0001:00044524       ?debug_info@?$__crt_win32_buffer@_WU__crt_win32_buffer_internal_dynamic_resizing@@@@QBEABV__crt_win32_buffer_empty_debug_info@@XZ 00445524 f i libucrt:argv_wildcards.obj
 0001:0004467f       ?get@?$__crt_unique_handle_t@U__crt_findfile_traits@@@@QBEPAXXZ 0044567f f i libucrt:argv_wildcards.obj
 0001:000446c1       ?get_invalid_value@__crt_findfile_traits@@SAPAXXZ 004456c1 f i libucrt:argv_wildcards.obj
 0001:00044721       ?set_to_nullptr@?$__crt_win32_buffer@DU__crt_win32_buffer_internal_dynamic_resizing@@@@QAEXXZ 00445721 f i libucrt:argv_wildcards.obj
 0001:0004473d       ?set_to_nullptr@?$__crt_win32_buffer@_WU__crt_win32_buffer_internal_dynamic_resizing@@@@QAEXXZ 0044573d f i libucrt:argv_wildcards.obj
 0001:00044759       ?size@?$__crt_win32_buffer@DU__crt_win32_buffer_internal_dynamic_resizing@@@@QAEXI@Z 00445759 f i libucrt:argv_wildcards.obj
 0001:0004476b       ?size@?$__crt_win32_buffer@_WU__crt_win32_buffer_internal_dynamic_resizing@@@@QAEXI@Z 0044576b f i libucrt:argv_wildcards.obj
 0001:00044793       ?strpbrk@@YAPADQADQBD@Z    00445793 f i libucrt:argv_wildcards.obj
 0001:000447a0       ?wcspbrk@@YAPA_WPA_WPB_W@Z 004457a0 f i libucrt:argv_wildcards.obj
 0001:000447ad       ___acrt_expand_narrow_argv_wildcards 004457ad f   libucrt:argv_wildcards.obj
 0001:000447ba       ___acrt_expand_wide_argv_wildcards 004457ba f   libucrt:argv_wildcards.obj
 0001:000447c7       ??$__acrt_convert_wcs_mbs_cp@_WDV<lambda_0fec1a7b3f42a53036604e18c2d5e07e>@@U__crt_win32_buffer_no_resizing@@@@YAHQB_WAAV?$__crt_win32_buffer@DU__crt_win32_buffer_no_resizing@@@@ABV<lambda_0fec1a7b3f42a53036604e18c2d5e07e>@@I@Z 004457c7 f i libucrt:getmodulefilenamea.obj
 0001:000448b9       ??$__acrt_wcs_to_mbs_cp@U__crt_win32_buffer_no_resizing@@@@YAHQB_WAAV?$__crt_win32_buffer@DU__crt_win32_buffer_no_resizing@@@@I@Z 004458b9 f i libucrt:getmodulefilenamea.obj
 0001:000448dd       ??0?$__crt_win32_buffer@DU__crt_win32_buffer_no_resizing@@@@QAE@QADI@Z 004458dd f i libucrt:getmodulefilenamea.obj
 0001:0004490a       ??1?$__crt_win32_buffer@DU__crt_win32_buffer_no_resizing@@@@QAE@XZ 0044590a f i libucrt:getmodulefilenamea.obj
 0001:00044917       ??R<lambda_0fec1a7b3f42a53036604e18c2d5e07e>@@QBEHIQB_WQADI@Z 00445917 f i libucrt:getmodulefilenamea.obj
 0001:00044944       ?_deallocate@?$__crt_win32_buffer@DU__crt_win32_buffer_no_resizing@@@@AAEXXZ 00445944 f i libucrt:getmodulefilenamea.obj
 0001:00044951       ?allocate@?$__crt_win32_buffer@DU__crt_win32_buffer_no_resizing@@@@QAEHI@Z 00445951 f i libucrt:getmodulefilenamea.obj
 0001:00044981       ?allocate@__crt_win32_buffer_no_resizing@@SAHQAPAXIABV__crt_win32_buffer_empty_debug_info@@@Z 00445981 f i libucrt:getmodulefilenamea.obj
 0001:00044991       ?capacity@?$__crt_win32_buffer@DU__crt_win32_buffer_no_resizing@@@@QBEIXZ 00445991 f i libucrt:getmodulefilenamea.obj
 0001:00044995       ?data@?$__crt_win32_buffer@DU__crt_win32_buffer_no_resizing@@@@QAEPADXZ 00445995 f i libucrt:getmodulefilenamea.obj
 0001:00044999       ?deallocate@__crt_win32_buffer_no_resizing@@SAXQAXABV__crt_win32_buffer_empty_debug_info@@@Z 00445999 f i libucrt:getmodulefilenamea.obj
 0001:0004499c       ?debug_info@?$__crt_win32_buffer@DU__crt_win32_buffer_no_resizing@@@@QBEABV__crt_win32_buffer_empty_debug_info@@XZ 0044599c f i libucrt:getmodulefilenamea.obj
 0001:0004499f       ?set_to_nullptr@?$__crt_win32_buffer@DU__crt_win32_buffer_no_resizing@@@@QAEXXZ 0044599f f i libucrt:getmodulefilenamea.obj
 0001:000449b8       ?size@?$__crt_win32_buffer@DU__crt_win32_buffer_no_resizing@@@@QAEXI@Z 004459b8 f i libucrt:getmodulefilenamea.obj
 0001:000449ca       ?size@?$__crt_win32_buffer@DU__crt_win32_buffer_no_resizing@@@@QBEIXZ 004459ca f i libucrt:getmodulefilenamea.obj
 0001:000449ce       ___acrt_GetModuleFileNameA 004459ce f   libucrt:getmodulefilenamea.obj
 0001:00044b26       ??$initialize_from_array@$$BY10BAA@E@?$dual_state_global@PAE@__crt_state_management@@QAAXAAY10BAA@E@Z 00445b26 f i libucrt:mbctype.obj
 0001:00044b38       ??$initialize_from_array@$$BY10BAB@E@?$dual_state_global@PAE@__crt_state_management@@QAAXAAY10BAB@E@Z 00445b38 f i libucrt:mbctype.obj
 0001:00044c97       ?dangerous_get_state_array@?$dual_state_global@PAE@__crt_state_management@@QAEPAPAEXZ 00445c97 f i libucrt:mbctype.obj
 0001:00044c9a       ?dangerous_get_state_array@?$dual_state_global@PAU__crt_multibyte_data@@@__crt_state_management@@QAEPAPAU__crt_multibyte_data@@XZ 00445c9a f i libucrt:mbctype.obj
 0001:00044d2a       ?initialize@?$dual_state_global@PAU__crt_multibyte_data@@@__crt_state_management@@QAEXQAU__crt_multibyte_data@@@Z 00445d2a f i libucrt:mbctype.obj
 0001:00045251       ?value@?$dual_state_global@PAE@__crt_state_management@@QAEAAPAEXZ 00446251 f i libucrt:mbctype.obj
 0001:00045254       ___acrt_initialize_multibyte 00446254 f   libucrt:mbctype.obj
 0001:000452ae       ___acrt_update_thread_multibyte_data 004462ae f   libucrt:mbctype.obj
 0001:000452c5       ___p__mbcasemap            004462c5 f   libucrt:mbctype.obj
 0001:000452cb       ___p__mbctype              004462cb f   libucrt:mbctype.obj
 0001:000452d1       __getmbcp                  004462d1 f   libucrt:mbctype.obj
 0001:00045312       __setmbcp                  00446312 f   libucrt:mbctype.obj
 0001:00045338       __setmbcp_nolock           00446338 f   libucrt:mbctype.obj
 0001:000456c7       __ismbbalnum               004466c7 f   libucrt:ismbbyte.obj
 0001:000456e8       __ismbbalnum_l             004466e8 f   libucrt:ismbbyte.obj
 0001:0004570b       __ismbbalpha               0044670b f   libucrt:ismbbyte.obj
 0001:0004572c       __ismbbalpha_l             0044672c f   libucrt:ismbbyte.obj
 0001:0004574f       __ismbbblank               0044674f f   libucrt:ismbbyte.obj
 0001:0004577a       __ismbbblank_l             0044677a f   libucrt:ismbbyte.obj
 0001:000457a7       __ismbbgraph               004467a7 f   libucrt:ismbbyte.obj
 0001:000457c8       __ismbbgraph_l             004467c8 f   libucrt:ismbbyte.obj
 0001:000457eb       __ismbbkalnum              004467eb f   libucrt:ismbbyte.obj
 0001:00045809       __ismbbkalnum_l            00446809 f   libucrt:ismbbyte.obj
 0001:00045828       __ismbbkana                00446828 f   libucrt:ismbbyte.obj
 0001:0004583f       __ismbbkana_l              0044683f f   libucrt:ismbbyte.obj
 0001:000458a1       __ismbbkprint              004468a1 f   libucrt:ismbbyte.obj
 0001:000458bf       __ismbbkprint_l            004468bf f   libucrt:ismbbyte.obj
 0001:000458de       __ismbbkpunct              004468de f   libucrt:ismbbyte.obj
 0001:000458fc       __ismbbkpunct_l            004468fc f   libucrt:ismbbyte.obj
 0001:0004591b       __ismbblead                0044691b f   libucrt:ismbbyte.obj
 0001:00045939       __ismbblead_l              00446939 f   libucrt:ismbbyte.obj
 0001:00045958       __ismbbprint               00446958 f   libucrt:ismbbyte.obj
 0001:00045979       __ismbbprint_l             00446979 f   libucrt:ismbbyte.obj
 0001:0004599c       __ismbbpunct               0044699c f   libucrt:ismbbyte.obj
 0001:000459ba       __ismbbpunct_l             004469ba f   libucrt:ismbbyte.obj
 0001:000459d9       __ismbbtrail               004469d9 f   libucrt:ismbbyte.obj
 0001:000459f7       __ismbbtrail_l             004469f7 f   libucrt:ismbbyte.obj
 0001:00045a98       ___acrt_MultiByteToWideChar 00446a98 f   libucrt:multibytetowidechar.obj
 0001:00045bb1       ___acrt_WideCharToMultiByte 00446bb1 f   libucrt:widechartomultibyte.obj
 0001:00045d4f       ___dcrt_get_narrow_environment_from_os 00446d4f f   libucrt:get_environment_from_os.obj
 0001:00045e17       ___dcrt_get_wide_environment_from_os 00446e17 f   libucrt:get_environment_from_os.obj
 0001:0004676c       ??$get_or_create_environment_nolock@$$V@?$__crt_char_traits@D@@SAPAPADXZ 0044776c f i libucrt:setenv.obj
 0001:00046771       ??$get_or_create_environment_nolock@$$V@?$__crt_char_traits@_W@@SAPAPA_WXZ 00447771 f i libucrt:setenv.obj
 0001:00046776       ??$set_environment_variable@ABQADQAD@?$__crt_char_traits@D@@SAHABQAD$$QBQAD@Z 00447776 f i libucrt:setenv.obj
 0001:00046794       ??$set_environment_variable@ABQA_WQA_W@?$__crt_char_traits@_W@@SAHABQA_W$$QBQA_W@Z 00447794 f i libucrt:setenv.obj
 0001:000467b0       ??$tcschr@ABQADD@?$__crt_char_traits@D@@SAPADABQAD$$QAD@Z 004477b0 f i libucrt:setenv.obj
 0001:000467d0       ??$tcschr@ABQA_WD@?$__crt_char_traits@_W@@SAPA_WABQA_W$$QAD@Z 004477d0 f i libucrt:setenv.obj
 0001:000467f5       ??$tcscpy_s@AAPADABIAAPAD@?$__crt_char_traits@D@@SAHAAPADABI0@Z 004477f5 f i libucrt:setenv.obj
 0001:0004681a       ??$tcscpy_s@AAPA_WABIAAPA_W@?$__crt_char_traits@_W@@SAHAAPA_WABI0@Z 0044781a f i libucrt:setenv.obj
 0001:0004683f       ??$tcscpy_s@ABQADABIABQAD@?$__crt_char_traits@D@@SAHABQADABI0@Z 0044783f f i libucrt:setenv.obj
 0001:00046864       ??$tcscpy_s@ABQA_WABIABQA_W@?$__crt_char_traits@_W@@SAHABQA_WABI0@Z 00447864 f i libucrt:setenv.obj
 0001:00046889       ??$tcslen@ABQAD@?$__crt_char_traits@D@@SAIABQAD@Z 00447889 f i libucrt:setenv.obj
 0001:000468a7       ??$tcslen@ABQA_W@?$__crt_char_traits@_W@@SAIABQA_W@Z 004478a7 f i libucrt:setenv.obj
 0001:000468cc       ??$tcsnicoll@ABQBDAAPADABI@?$__crt_char_traits@D@@SAHABQBDAAPADABI@Z 004478cc f i libucrt:setenv.obj
 0001:000468f1       ??$tcsnicoll@ABQB_WAAPA_WABI@?$__crt_char_traits@_W@@SAHABQB_WAAPA_WABI@Z 004478f1 f i libucrt:setenv.obj
 0001:0004693a       ?strchr@@YAPADQADH@Z       0044793a f i libucrt:setenv.obj
 0001:00046947       ?wcschr@@YAPA_WPA_W_W@Z    00447947 f i libucrt:setenv.obj
 0001:00046954       ___dcrt_set_variable_in_narrow_environment_nolock 00447954 f   libucrt:setenv.obj
 0001:00046961       ___dcrt_set_variable_in_wide_environment_nolock 00447961 f   libucrt:setenv.obj
 0001:0004696e       ___acrt_initialize_locks   0044796e f   libucrt:locks.obj
 0001:000469bf       ___acrt_lock               004479bf f   libucrt:locks.obj
 0001:000469db       ___acrt_uninitialize_locks 004479db f   libucrt:locks.obj
 0001:00046a18       ___acrt_unlock             00447a18 f   libucrt:locks.obj
 0001:00046a34       __lock_locales             00447a34 f   libucrt:locks.obj
 0001:00046a45       __unlock_locales           00447a45 f   libucrt:locks.obj
 0001:00046c5a       ___acrt_get_begin_thread_init_policy 00447c5a f   libucrt:win_policies.obj
 0001:00046caf       ___acrt_get_developer_information_policy 00447caf f   libucrt:win_policies.obj
 0001:00046d04       ___acrt_get_process_end_policy 00447d04 f   libucrt:win_policies.obj
 0001:00046d41       ___acrt_get_windowing_model_policy 00447d41 f   libucrt:win_policies.obj
 0001:00046db4       ??$?RU__crt_lowio_handle_data@@@__crt_internal_free_policy@@QBEXQBU__crt_lowio_handle_data@@@Z 00447db4 f i libucrt:osfinfo.obj
 0001:00046dca       ??0?$__crt_unique_heap_ptr@U__crt_lowio_handle_data@@U__crt_internal_free_policy@@@@QAE@QAU__crt_lowio_handle_data@@@Z 00447dca f i libucrt:osfinfo.obj
 0001:00046dde       ??1?$__crt_unique_heap_ptr@U__crt_lowio_handle_data@@U__crt_internal_free_policy@@@@QAE@XZ 00447dde f i libucrt:osfinfo.obj
 0001:00046df4       ??B?$__crt_unique_heap_ptr@U__crt_lowio_handle_data@@U__crt_internal_free_policy@@@@QBE_NXZ 00447df4 f i libucrt:osfinfo.obj
 0001:00046dfb       ?detach@?$__crt_unique_heap_ptr@U__crt_lowio_handle_data@@U__crt_internal_free_policy@@@@QAEPAU__crt_lowio_handle_data@@XZ 00447dfb f i libucrt:osfinfo.obj
 0001:00046e01       ?get@?$__crt_unique_heap_ptr@U__crt_lowio_handle_data@@U__crt_internal_free_policy@@@@QBEPAU__crt_lowio_handle_data@@XZ 00447e01 f i libucrt:osfinfo.obj
 0001:00046e04       ?is_valid@?$__crt_unique_heap_ptr@U__crt_lowio_handle_data@@U__crt_internal_free_policy@@@@QBE_NXZ 00447e04 f i libucrt:osfinfo.obj
 0001:00046e0b       ?release@?$__crt_unique_heap_ptr@U__crt_lowio_handle_data@@U__crt_internal_free_policy@@@@QAEXXZ 00447e0b f i libucrt:osfinfo.obj
 0001:00046e21       ___acrt_lowio_create_handle_array 00447e21 f   libucrt:osfinfo.obj
 0001:00046eba       ___acrt_lowio_destroy_handle_array 00447eba f   libucrt:osfinfo.obj
 0001:00046efc       ___acrt_lowio_ensure_fh_exists 00447efc f   libucrt:osfinfo.obj
 0001:00046fc1       ___acrt_lowio_lock_fh      00447fc1 f   libucrt:osfinfo.obj
 0001:00046fec       ___acrt_lowio_set_os_handle 00447fec f   libucrt:osfinfo.obj
 0001:000470a2       ___acrt_lowio_unlock_fh    004480a2 f   libucrt:osfinfo.obj
 0001:000470cd       __alloc_osfhnd             004480cd f   libucrt:osfinfo.obj
 0001:00047224       __free_osfhnd              00448224 f   libucrt:osfinfo.obj
 0001:000472d9       __get_osfhandle            004482d9 f   libucrt:osfinfo.obj
 0001:0004735d       __open_osfhandle           0044835d f   libucrt:osfinfo.obj
 0001:000474b8       ?dangerous_get_state_array@?$dual_state_global@H@__crt_state_management@@QAEPAHXZ 004484b8 f i libucrt:txtmode.obj
 0001:000474bb       ___acrt_initialize_fmode   004484bb f   libucrt:txtmode.obj
 0001:000474d6       ___p__fmode                004484d6 f   libucrt:txtmode.obj
 0001:000474dc       ??$?RG@__crt_internal_free_policy@@QBEXQBG@Z 004484dc f i libucrt:initctype.obj
 0001:000474f2       ??$?RJ@__crt_internal_free_policy@@QBEXQBJ@Z 004484f2 f i libucrt:initctype.obj
 0001:00047508       ??0?$__crt_unique_heap_ptr@GU__crt_internal_free_policy@@@@QAE@QAG@Z 00448508 f i libucrt:initctype.obj
 0001:0004751c       ??0?$__crt_unique_heap_ptr@JU__crt_internal_free_policy@@@@QAE@QAJ@Z 0044851c f i libucrt:initctype.obj
 0001:00047530       ??1?$__crt_unique_heap_ptr@GU__crt_internal_free_policy@@@@QAE@XZ 00448530 f i libucrt:initctype.obj
 0001:00047546       ??1?$__crt_unique_heap_ptr@JU__crt_internal_free_policy@@@@QAE@XZ 00448546 f i libucrt:initctype.obj
 0001:0004755c       ?detach@?$__crt_unique_heap_ptr@GU__crt_internal_free_policy@@@@QAEPAGXZ 0044855c f i libucrt:initctype.obj
 0001:00047562       ?detach@?$__crt_unique_heap_ptr@JU__crt_internal_free_policy@@@@QAEPAJXZ 00448562 f i libucrt:initctype.obj
 0001:00047568       ?release@?$__crt_unique_heap_ptr@GU__crt_internal_free_policy@@@@QAEXXZ 00448568 f i libucrt:initctype.obj
 0001:0004757e       ?release@?$__crt_unique_heap_ptr@JU__crt_internal_free_policy@@@@QAEXXZ 0044857e f i libucrt:initctype.obj
 0001:00047594       ____lc_codepage_func       00448594 f   libucrt:initctype.obj
 0001:000475c2       ____lc_collate_cp_func     004485c2 f   libucrt:initctype.obj
 0001:000475f0       ____lc_locale_name_func    004485f0 f   libucrt:initctype.obj
 0001:00047620       ____mb_cur_max_func        00448620 f   libucrt:initctype.obj
 0001:0004764e       ____mb_cur_max_l_func      0044864e f   libucrt:initctype.obj
 0001:0004766d       ___acrt_locale_initialize_ctype 0044866d f   libucrt:initctype.obj
 0001:00047be1       ??$?RUlconv@@@__crt_internal_free_policy@@QBEXQBUlconv@@@Z 00448be1 f i libucrt:initmon.obj
 0001:00047bf7       ??0?$__crt_unique_heap_ptr@Ulconv@@U__crt_internal_free_policy@@@@QAE@QAUlconv@@@Z 00448bf7 f i libucrt:initmon.obj
 0001:00047c0b       ??1?$__crt_unique_heap_ptr@Ulconv@@U__crt_internal_free_policy@@@@QAE@XZ 00448c0b f i libucrt:initmon.obj
 0001:00047c21       ?detach@?$__crt_unique_heap_ptr@Ulconv@@U__crt_internal_free_policy@@@@QAEPAUlconv@@XZ 00448c21 f i libucrt:initmon.obj
 0001:00047c27       ?release@?$__crt_unique_heap_ptr@Ulconv@@U__crt_internal_free_policy@@@@QAEXXZ 00448c27 f i libucrt:initmon.obj
 0001:00047c3d       ___acrt_locale_free_monetary 00448c3d f   libucrt:initmon.obj
 0001:00047d7a       ___acrt_locale_initialize_monetary 00448d7a f   libucrt:initmon.obj
 0001:00048261       ___acrt_locale_free_numeric 00449261 f   libucrt:initnum.obj
 0001:000482e4       ___acrt_locale_initialize_numeric 004492e4 f   libucrt:initnum.obj
 0001:000485bd       ??$?RU__crt_lc_time_data@@@__crt_internal_free_policy@@QBEXQBU__crt_lc_time_data@@@Z 004495bd f i libucrt:inittime.obj
 0001:0004865d       ??0?$__crt_unique_heap_ptr@U__crt_lc_time_data@@U__crt_internal_free_policy@@@@QAE@QAU__crt_lc_time_data@@@Z 0044965d f i libucrt:inittime.obj
 0001:00048671       ??1?$__crt_unique_heap_ptr@U__crt_lc_time_data@@U__crt_internal_free_policy@@@@QAE@XZ 00449671 f i libucrt:inittime.obj
 0001:00048687       ??B?$__crt_unique_heap_ptr@U__crt_lc_time_data@@U__crt_internal_free_policy@@@@QBE_NXZ 00449687 f i libucrt:inittime.obj
 0001:0004868e       ?detach@?$__crt_unique_heap_ptr@U__crt_lc_time_data@@U__crt_internal_free_policy@@@@QAEPAU__crt_lc_time_data@@XZ 0044968e f i libucrt:inittime.obj
 0001:000486c2       ?get@?$__crt_unique_heap_ptr@U__crt_lc_time_data@@U__crt_internal_free_policy@@@@QBEPAU__crt_lc_time_data@@XZ 004496c2 f i libucrt:inittime.obj
 0001:00048a67       ?is_valid@?$__crt_unique_heap_ptr@U__crt_lc_time_data@@U__crt_internal_free_policy@@@@QBE_NXZ 00449a67 f i libucrt:inittime.obj
 0001:00048a6e       ?release@?$__crt_unique_heap_ptr@U__crt_lc_time_data@@U__crt_internal_free_policy@@@@QAEXXZ 00449a6e f i libucrt:inittime.obj
 0001:00048a84       ___acrt_locale_free_time   00449a84 f   libucrt:inittime.obj
 0001:00048ba1       ___acrt_locale_initialize_time 00449ba1 f   libucrt:inittime.obj
 0001:00048c3a       ___pctype_func             00449c3a f   libucrt:ctype.obj
 0001:00048c67       ___pwctype_func            00449c67 f   libucrt:ctype.obj
 0001:00048d95       _wcsncat_s                 00449d95 f   libucrt:wcsncat_s.obj
 0001:00048da2       _wcscspn                   00449da2 f   libucrt:wcscspn.obj
 0001:00048e11       _wcspbrk                   00449e11 f   libucrt:wcspbrk.obj
 0001:00048e72       ??0?$__crt_scoped_stack_ptr@_W@@QAE@U?$__crt_scoped_stack_ptr_tag@_W@@@Z 00449e72 f i libucrt:getstringtypea.obj
 0001:00048e86       ??0?$__crt_scoped_stack_ptr_tag@_W@@QAE@QA_W@Z 00449e86 f i libucrt:getstringtypea.obj
 0001:00048e9a       ??1?$__crt_scoped_stack_ptr@_W@@QAE@XZ 00449e9a f i libucrt:getstringtypea.obj
 0001:00048ea5       ?get@?$__crt_scoped_stack_ptr@_W@@QBEPA_WXZ 00449ea5 f i libucrt:getstringtypea.obj
 0001:00048ea8       __MallocaComputeSize       00449ea8 f i libucrt:getstringtypea.obj
 0001:00048ebf       __MarkAllocaS              00449ebf f i libucrt:getstringtypea.obj
 0001:00048eda       ___acrt_GetStringTypeA     00449eda f   libucrt:getstringtypea.obj
 0001:00049025       __freea_crt                0044a025 f i libucrt:getstringtypea.obj
 0001:0004904d       ___acrt_add_locale_ref     0044a04d f   libucrt:locale_refcounting.obj
 0001:000490e9       ___acrt_free_locale        0044a0e9 f   libucrt:locale_refcounting.obj
 0001:00049283       ___acrt_locale_add_lc_time_reference 0044a283 f   libucrt:locale_refcounting.obj
 0001:000492b6       ___acrt_locale_free_lc_time_if_unreferenced 0044a2b6 f   libucrt:locale_refcounting.obj
 0001:000492f3       ___acrt_locale_release_lc_time_reference 0044a2f3 f   libucrt:locale_refcounting.obj
 0001:00049326       ___acrt_release_locale_ref 0044a326 f   libucrt:locale_refcounting.obj
 0001:000493c7       ___acrt_update_thread_locale_data 0044a3c7 f   libucrt:locale_refcounting.obj
 0001:00049468       __updatetlocinfoEx_nolock  0044a468 f   libucrt:locale_refcounting.obj
 0001:00049ddb       ___acrt_get_qualified_locale 0044addb f   libucrt:get_qualified_locale.obj
 0001:0004a9b7       ___acrt_get_qualified_locale_downlevel 0044b9b7 f   libucrt:getqloc_downlevel.obj
 0001:0004ac29       _localeconv                0044bc29 f   libucrt:localeconv.obj
 0001:0004ac5b       __recalloc                 0044bc5b f   libucrt:recalloc.obj
 0001:0004ac68       __recalloc_base            0044bc68 f   libucrt:recalloc.obj
 0001:0004acf0       ___acrt_getheap            0044bcf0 f   libucrt:heap_handle.obj
 0001:0004acf6       ___acrt_initialize_heap    0044bcf6 f   libucrt:heap_handle.obj
 0001:0004ad0b       ___acrt_uninitialize_heap  0044bd0b f   libucrt:heap_handle.obj
 0001:0004ad17       __get_heap_handle          0044bd17 f   libucrt:heap_handle.obj
 0001:0004ad1d       ___acrt_execute_initializers 0044bd1d f   libucrt:shared_initialization.obj
 0001:0004ad9f       ___acrt_execute_uninitializers 0044bd9f f   libucrt:shared_initialization.obj
 0001:0004addc       ??$?B$$A6AHI@Z@__crt_fast_encoded_nullptr_t@@QBEP6AHI@ZXZ 0044bddc f i libucrt:new_handler.obj
 0001:0004ade2       ??$__crt_fast_decode_pointer@P6AHI@Z@@YAP6AHI@ZQ6AHI@Z@Z 0044bde2 f i libucrt:new_handler.obj
 0001:0004adfd       ??$__crt_fast_encode_pointer@P6AHI@Z@@YAP6AHI@ZQ6AHI@Z@Z 0044bdfd f i libucrt:new_handler.obj
 0001:0004ae23       ?_set_new_handler@@YAP6AHI@ZH@Z 0044be23 f   libucrt:new_handler.obj
 0001:0004ae33       ?initialize@?$dual_state_global@P6AHI@Z@__crt_state_management@@QAEXQ6AHI@Z@Z 0044be33 f i libucrt:new_handler.obj
 0001:0004ae56       ?value@?$dual_state_global@P6AHI@Z@__crt_state_management@@QAEAAP6AHI@ZXZ 0044be56 f i libucrt:new_handler.obj
 0001:0004ae59       ___acrt_initialize_new_handler 0044be59 f   libucrt:new_handler.obj
 0001:0004ae6b       __callnewh                 0044be6b f   libucrt:new_handler.obj
 0001:0004aea3       __query_new_handler        0044bea3 f   libucrt:new_handler.obj
 0001:0004af16       __set_new_handler          0044bf16 f   libucrt:new_handler.obj
 0001:0004af9a       ??$?B$$A6AXH@Z@__crt_fast_encoded_nullptr_t@@QBEP6AXH@ZXZ 0044bf9a f i libucrt:signal.obj
 0001:0004b04c       ??$__crt_fast_decode_pointer@P6AXH@Z@@YAP6AXH@ZQ6AXH@Z@Z 0044c04c f i libucrt:signal.obj
 0001:0004b067       ??$__crt_fast_encode_pointer@P6AXH@Z@@YAP6AXH@ZQ6AXH@Z@Z 0044c067 f i libucrt:signal.obj
 0001:0004b20c       ?initialize@?$dual_state_global@P6AXH@Z@__crt_state_management@@QAEXQ6AXH@Z@Z 0044c20c f i libucrt:signal.obj
 0001:0004b2de       ?value@?$dual_state_global@P6AXH@Z@__crt_state_management@@QAEAAP6AXH@ZXZ 0044c2de f i libucrt:signal.obj
 0001:0004b2e1       ___acrt_get_sigabrt_handler 0044c2e1 f   libucrt:signal.obj
 0001:0004b311       ___acrt_initialize_signal_handlers 0044c311 f   libucrt:signal.obj
 0001:0004b336       ___fpecode                 0044c336 f   libucrt:signal.obj
 0001:0004b341       ___pxcptinfoptrs           0044c341 f   libucrt:signal.obj
 0001:0004b34c       _raise                     0044c34c f   libucrt:signal.obj
 0001:0004b5bb       _signal                    0044c5bb f   libucrt:signal.obj
 0001:0004b97b       ___control87_2             0044c97b f   libucrt:ieee87.obj
 0001:0004bf39       ___fpreset_sse2            0044cf39 f   libucrt:ieee87.obj
 0001:0004c182       __clearfp                  0044d182 f   libucrt:ieee87.obj
 0001:0004c297       __control87                0044d297 f   libucrt:ieee87.obj
 0001:0004c658       __controlfp                0044d658 f   libucrt:ieee87.obj
 0001:0004c678       __fpreset                  0044d678 f   libucrt:ieee87.obj
 0001:0004c783       __set_controlfp            0044d783 f   libucrt:ieee87.obj
 0001:0004c812       __statusfp                 0044d812 f   libucrt:ieee87.obj
 0001:0004c8d3       __statusfp2                0044d8d3 f   libucrt:ieee87.obj
 0001:0004c94e       __iswctype_l               0044d94e f   libucrt:iswctype.obj
 0001:0004c967       _iswctype                  0044d967 f   libucrt:iswctype.obj
 0001:0004c9ea       __isctype                  0044d9ea f   libucrt:isctype.obj
 0001:0004ca29       __isctype_l                0044da29 f   libucrt:isctype.obj
 0001:0004cbce       ___acrt_DownlevelLCIDToLocaleName 0044dbce f   libucrt:lcidtoname_downlevel.obj
 0001:0004cc99       ___acrt_DownlevelLocaleNameToLCID 0044dc99 f   libucrt:lcidtoname_downlevel.obj
 0001:0004ce3d       __fclose_nolock            0044de3d f   libucrt:fclose.obj
 0001:0004ce79       _fclose                    0044de79 f   libucrt:fclose.obj
 0001:0004d06e       __commit                   0044e06e f   libucrt:commit.obj
 0001:0004db03       __utf8_no_of_trailbytes    0044eb03 f i libucrt:write.obj
 0001:0004db18       __write                    0044eb18 f   libucrt:write.obj
 0001:0004db5c       __write_internal           0044eb5c f   libucrt:write.obj
 0001:0004dca6       __write_nolock             0044eca6 f   libucrt:write.obj
 0001:0004e595       __read                     0044f595 f   libucrt:read.obj
 0001:0004e6ee       __read_nolock              0044f6ee f   libucrt:read.obj
 0001:0004eb74       ___acrt_stdio_allocate_buffer_nolock 0044fb74 f   libucrt:_getbuf.obj
 0001:0004ecad       ___acrt_fp_strflt_to_string 0044fcad f   libucrt:_fptostr.obj
 0001:00050480       ??0big_integer@__crt_strtox@@QAE@ABU01@@Z 00451480 f i libucrt:cfout.obj
 0001:000504c0       ??0big_integer@__crt_strtox@@QAE@XZ 004514c0 f i libucrt:cfout.obj
 0001:00050510       ??4big_integer@__crt_strtox@@QAEAAU01@ABU01@@Z 00451510 f i libucrt:cfout.obj
 0001:00050550       ??8__crt_strtox@@YA_NABUbig_integer@0@0@Z 00451550 f i libucrt:cfout.obj
 0001:000505a0       ??9__crt_strtox@@YA_NABUbig_integer@0@0@Z 004515a0 f i libucrt:cfout.obj
 0001:000505f0       ?add_carry@__crt_strtox@@YAIAAIII@Z 004515f0 f i libucrt:cfout.obj
 0001:00050620       ?add_multiply_carry@__crt_strtox@@YAIAAIIII@Z 00451620 f i libucrt:cfout.obj
 0001:00050650       ?bit_scan_reverse@__crt_strtox@@YAII@Z 00451650 f i libucrt:cfout.obj
 0001:00050680       ?count_sequential_high_zeroes@__crt_strtox@@YAII@Z 00451680 f i libucrt:cfout.obj
 0001:000506b0       ?divide@__crt_strtox@@YA_KAAUbig_integer@1@ABU21@@Z 004516b0 f i libucrt:cfout.obj
 0001:00050c60       ?is_zero@__crt_strtox@@YA_NABUbig_integer@1@@Z 00451c60 f i libucrt:cfout.obj
 0001:00050c80       ?make_big_integer@__crt_strtox@@YA?AUbig_integer@1@_K@Z 00451c80 f i libucrt:cfout.obj
 0001:00050cb0       ?make_big_integer_power_of_two@__crt_strtox@@YA?AUbig_integer@1@I@Z 00451cb0 f i libucrt:cfout.obj
 0001:00050d10       ?multiply@__crt_strtox@@YA_NAAUbig_integer@1@ABU21@@Z 00451d10 f i libucrt:cfout.obj
 0001:00051130       ?multiply@__crt_strtox@@YA_NAAUbig_integer@1@I@Z 00452130 f i libucrt:cfout.obj
 0001:00051230       ?multiply_64_32@__crt_strtox@@YA_K_KI@Z 00452230 f i libucrt:cfout.obj
 0001:00051250       ?multiply_by_power_of_ten@__crt_strtox@@YA_NAAUbig_integer@1@I@Z 00452250 f i libucrt:cfout.obj
 0001:000518e0       ?multiply_core@__crt_strtox@@YAIQAIII@Z 004528e0 f i libucrt:cfout.obj
 0001:00051930       ?shift_left@__crt_strtox@@YA_NAAUbig_integer@1@I@Z 00452930 f i libucrt:cfout.obj
 0001:00051aaa       ___acrt_fltout             00452aaa f   libucrt:cfout.obj
 0001:000535d2       ___fpe_flt_rounds          004545d2 f   libucrt:fegetround.obj
 0001:00053613       _fegetround                00454613 f   libucrt:fegetround.obj
 0001:00053623       ?__c32rtomb_utf8@__crt_mbstring@@YAIPAD_UPAU_Mbstatet@@AAV__crt_cached_ptd_host@@@Z 00454623 f   libucrt:c32rtomb.obj
 0001:000536ff       _c32rtomb                  004546ff f   libucrt:c32rtomb.obj
 0001:0005377a       ?__mbrtowc_utf8@__crt_mbstring@@YAIPA_WPBDIPAU_Mbstatet@@AAV__crt_cached_ptd_host@@@Z 0045477a f   libucrt:mbrtowc.obj
 0001:000537cd       ?__mbsrtowcs_utf8@__crt_mbstring@@YAIPA_WPAPBDIPAU_Mbstatet@@AAV__crt_cached_ptd_host@@@Z 004547cd f   libucrt:mbrtowc.obj
 0001:00053e5a       _btowc                     00454e5a f   libucrt:mbrtowc.obj
 0001:00053ee7       _mbrlen                    00454ee7 f   libucrt:mbrtowc.obj
 0001:00053f41       _mbrtowc                   00454f41 f   libucrt:mbrtowc.obj
 0001:00053fc1       _mbsrtowcs                 00454fc1 f   libucrt:mbrtowc.obj
 0001:00054009       _mbsrtowcs_s               00455009 f   libucrt:mbrtowc.obj
 0001:000544d3       ?has_big_buffer@__crt_stdio_stream@@QBE_NXZ 004554d3 f i libucrt:_flsbuf.obj
 0001:00054588       ___acrt_stdio_flush_and_write_narrow_nolock 00455588 f   libucrt:_flsbuf.obj
 0001:00054595       ___acrt_stdio_flush_and_write_wide_nolock 00455595 f   libucrt:_flsbuf.obj
 0001:000545a2       __isatty                   004555a2 f   libucrt:isatty.obj
 0001:0005460d       ___acrt_OutputDebugStringA@4 0045560d f   libucrt:outputdebugstringa.obj
 0001:00054790       _qsort                     00455790 f   libucrt:qsort.obj
 0001:00054e9d       _strncpy_s                 00455e9d f   libucrt:strncpy_s.obj
 0001:00054eb0       _strpbrk                   00455eb0 f   libucrt:strpbrk.obj
 0001:00054f00       __mbsdec                   00455f00 f   libucrt:mbsdec.obj
 0001:00054f1c       __mbsdec_l                 00455f1c f   libucrt:mbsdec.obj
 0001:00054fcc       ??B?$__crt_scoped_stack_ptr@_W@@QBE_NXZ 00455fcc f i libucrt:lcmapstringa.obj
 0001:0005523c       ___acrt_LCMapStringA       0045623c f   libucrt:lcmapstringa.obj
 0001:000552a9       __wcsnicoll                004562a9 f   libucrt:wcsnicol.obj
 0001:00055331       __wcsnicoll_l              00456331 f   libucrt:wcsnicol.obj
 0001:00055421       __strnicoll                00456421 f   libucrt:strnicol.obj
 0001:00055454       __strnicoll_l              00456454 f   libucrt:strnicol.obj
 0001:0005554e       ___acrt_SetEnvironmentVariableA 0045654e f   libucrt:setenvironmentvariablea.obj
 0001:00055728       ___acrt_GetLocaleInfoA     00456728 f   libucrt:getlocaleinfoa.obj
 0001:00055f31       __i64toa                   00456f31 f   libucrt:xtoa.obj
 0001:00055f82       __i64toa_s                 00456f82 f   libucrt:xtoa.obj
 0001:00055fd0       __i64tow                   00456fd0 f   libucrt:xtoa.obj
 0001:00056021       __i64tow_s                 00457021 f   libucrt:xtoa.obj
 0001:0005606f       __itoa                     0045706f f   libucrt:xtoa.obj
 0001:000560b1       __itoa_s                   004570b1 f   libucrt:xtoa.obj
 0001:000560f0       __itow                     004570f0 f   libucrt:xtoa.obj
 0001:00056132       __itow_s                   00457132 f   libucrt:xtoa.obj
 0001:00056171       __ltoa                     00457171 f   libucrt:xtoa.obj
 0001:000561b3       __ltoa_s                   004571b3 f   libucrt:xtoa.obj
 0001:000561f2       __ltow                     004571f2 f   libucrt:xtoa.obj
 0001:00056234       __ltow_s                   00457234 f   libucrt:xtoa.obj
 0001:00056273       __ui64toa                  00457273 f   libucrt:xtoa.obj
 0001:0005629d       __ui64toa_s                0045729d f   libucrt:xtoa.obj
 0001:000562c5       __ui64tow                  004572c5 f   libucrt:xtoa.obj
 0001:000562ef       __ui64tow_s                004572ef f   libucrt:xtoa.obj
 0001:00056317       __ultoa                    00457317 f   libucrt:xtoa.obj
 0001:0005633d       __ultoa_s                  0045733d f   libucrt:xtoa.obj
 0001:00056361       __ultow                    00457361 f   libucrt:xtoa.obj
 0001:00056387       __ultow_s                  00457387 f   libucrt:xtoa.obj
 0001:000563ab       ___ascii_wcsicmp           004573ab f   libucrt:wcsicmp.obj
 0001:000563f7       __towlower_fast_internal   004573f7 f i libucrt:wcsicmp.obj
 0001:0005642c       __towlower_internal        0045742c f i libucrt:wcsicmp.obj
 0001:0005647a       __wcsicmp                  0045747a f   libucrt:wcsicmp.obj
 0001:000564d5       __wcsicmp_l                004574d5 f   libucrt:wcsicmp.obj
 0001:000565bb       ___ascii_wcsnicmp          004575bb f   libucrt:wcsnicmp.obj
 0001:0005661d       __wcsnicmp                 0045761d f   libucrt:wcsnicmp.obj
 0001:0005667c       __wcsnicmp_l               0045767c f   libucrt:wcsnicmp.obj
 0001:00056783       __msize                    00457783 f   libucrt:msize.obj
 0001:00056790       __msize_base               00457790 f   libucrt:msize.obj
 0001:000567cf       __realloc_base             004577cf f   libucrt:realloc_base.obj
 0001:00056852       ___clrfp_sse2              00457852 f   libucrt:fpctrl.obj
 0001:00056890       ___ctrlfp_sse2             00457890 f   libucrt:fpctrl.obj
 0001:000568d9       ___fclrf_sse2              004578d9 f   libucrt:fpctrl.obj
 0001:000568fd       ___get_fpsr_sse2           004578fd f   libucrt:fpctrl.obj
 0001:00056920       ___set_fpsr_sse2           00457920 f   libucrt:fpctrl.obj
 0001:000569c0       ___set_statfp_sse2         004579c0 f   libucrt:fpctrl.obj
 0001:000569e1       ___statfp_sse2             004579e1 f   libucrt:fpctrl.obj
 0001:000569fb       __clrfp                    004579fb f   libucrt:fpctrl.obj
 0001:00056a10       __ctrlfp                   00457a10 f   libucrt:fpctrl.obj
 0001:00056a44       __set_statfp               00457a44 f   libucrt:fpctrl.obj
 0001:00056ab3       __statfp                   00457ab3 f   libucrt:fpctrl.obj
 0001:00056ac7       ___acrt_GetStringTypeW     00457ac7 f   libucrt:getstringtypew.obj
 0001:00056cfb       __close                    00457cfb f   libucrt:close.obj
 0001:00056d37       __close_internal           00457d37 f   libucrt:close.obj
 0001:00056e02       __close_nolock             00457e02 f   libucrt:close.obj
 0001:00056e3e       __close_nolock_internal    00457e3e f   libucrt:close.obj
 0001:00056f06       ??$?RU__crt_stdio_stream_data@@@__crt_internal_free_policy@@QBEXQBU__crt_stdio_stream_data@@@Z 00457f06 f i libucrt:stream.obj
 0001:00056f1c       ??0?$__crt_unique_heap_ptr@U__crt_stdio_stream_data@@U__crt_internal_free_policy@@@@QAE@QAU__crt_stdio_stream_data@@@Z 00457f1c f i libucrt:stream.obj
 0001:00056f30       ??0__crt_stdio_stream@@QAE@XZ 00457f30 f i libucrt:stream.obj
 0001:00056f36       ??1?$__crt_unique_heap_ptr@U__crt_stdio_stream_data@@U__crt_internal_free_policy@@@@QAE@XZ 00457f36 f i libucrt:stream.obj
 0001:00056f4c       ?__acrt_stdio_allocate_stream@@YA?AV__crt_stdio_stream@@XZ 00457f4c f   libucrt:stream.obj
 0001:00056fcf       ?__acrt_stdio_free_stream@@YAXV__crt_stdio_stream@@@Z 00457fcf f   libucrt:stream.obj
 0001:00057018       ?deallocate@__crt_stdio_stream@@QAEXXZ 00458018 f i libucrt:stream.obj
 0001:00057024       ?detach@?$__crt_unique_heap_ptr@U__crt_stdio_stream_data@@U__crt_internal_free_policy@@@@QAEPAU__crt_stdio_stream_data@@XZ 00458024 f i libucrt:stream.obj
 0001:0005711c       ?lock@__crt_stdio_stream@@QBEXXZ 0045811c f i libucrt:stream.obj
 0001:00057127       ?release@?$__crt_unique_heap_ptr@U__crt_stdio_stream_data@@U__crt_internal_free_policy@@@@QAEXXZ 00458127 f i libucrt:stream.obj
 0001:0005713d       ?try_allocate@__crt_stdio_stream@@QAE_NXZ 0045813d f i libucrt:stream.obj
 0001:00057165       ?unlock@__crt_stdio_stream@@QBEXXZ 00458165 f i libucrt:stream.obj
 0001:0005763c       __lseek                    0045863c f   libucrt:lseek.obj
 0001:00057680       __lseek_internal           00458680 f   libucrt:lseek.obj
 0001:0005768d       __lseek_nolock             0045868d f   libucrt:lseek.obj
 0001:000576d1       __lseek_nolock_internal    004586d1 f   libucrt:lseek.obj
 0001:000576de       __lseeki64                 004586de f   libucrt:lseek.obj
 0001:0005772e       __lseeki64_internal        0045872e f   libucrt:lseek.obj
 0001:00057753       __lseeki64_nolock          00458753 f   libucrt:lseek.obj
 0001:000577a3       __lseeki64_nolock_internal 004587a3 f   libucrt:lseek.obj
 0001:000578df       __putwch                   004588df f   libucrt:putwch.obj
 0001:00057917       __putwch_nolock            00458917 f   libucrt:putwch.obj
 0001:00057955       __putwch_nolock_internal   00458955 f   libucrt:putwch.obj
 0001:00057969       _fegetenv                  00458969 f   libucrt:fegetenv.obj
 0001:0005798d       _fesetenv                  0045898d f   libucrt:fesetenv.obj
 0001:000579ea       _feholdexcept              004589ea f   libucrt:feholdexcept.obj
 0001:00057a50       __CIlog10                  00458a50 f   libucrt:log10_impl.obj
 0001:00057a8b       __CIlog10_default          00458a8b f   libucrt:log10_impl.obj
 0001:00057a9f       __log10_default            00458a9f     libucrt:log10_impl.obj
 0001:00057bb0       _ceil                      00458bb0 f   libucrt:ceil_pentium4.obj
 0001:00057bf0       __ceil_pentium4            00458bf0 f   libucrt:ceil_pentium4.obj
 0001:00057d14       ??$__acrt_fenv_shift_bits@W4__acrt_fenv_abstract_control@@@@YA?AW4__acrt_fenv_abstract_control@@W40@0I@Z 00458d14 f i libucrt:_fenvutils.obj
 0001:00057d2a       ??$__acrt_fenv_shift_bits@W4__acrt_fenv_abstract_status@@@@YA?AW4__acrt_fenv_abstract_status@@W40@0I@Z 00458d2a f i libucrt:_fenvutils.obj
 0001:00057d40       ??$__acrt_fenv_translate_bit@W4__acrt_fenv_abstract_control@@W4__acrt_fenv_machine_sse_control@@@@YA?AW4__acrt_fenv_abstract_control@@W4__acrt_fenv_machine_sse_control@@0W40@1@Z 00458d40 f i libucrt:_fenvutils.obj
 0001:00057d5e       ??$__acrt_fenv_translate_bit@W4__acrt_fenv_abstract_control@@W4__acrt_fenv_machine_x87_control@@@@YA?AW4__acrt_fenv_abstract_control@@W4__acrt_fenv_machine_x87_control@@0W40@1@Z 00458d5e f i libucrt:_fenvutils.obj
 0001:00057d7c       ??$__acrt_fenv_translate_bit@W4__acrt_fenv_abstract_status@@W4__acrt_fenv_machine_sse_status@@@@YA?AW4__acrt_fenv_abstract_status@@W4__acrt_fenv_machine_sse_status@@0W40@1@Z 00458d7c f i libucrt:_fenvutils.obj
 0001:00057d96       ??$__acrt_fenv_translate_bit@W4__acrt_fenv_abstract_status@@W4__acrt_fenv_machine_x87_status@@@@YA?AW4__acrt_fenv_abstract_status@@W4__acrt_fenv_machine_x87_status@@0W40@1@Z 00458d96 f i libucrt:_fenvutils.obj
 0001:00057db0       ??$__acrt_fenv_translate_bit@W4__acrt_fenv_machine_sse_control@@W4__acrt_fenv_abstract_control@@@@YA?AW4__acrt_fenv_machine_sse_control@@W4__acrt_fenv_abstract_control@@0W40@1@Z 00458db0 f i libucrt:_fenvutils.obj
 0001:00057dcc       ??$__acrt_fenv_translate_bit@W4__acrt_fenv_machine_sse_status@@W4__acrt_fenv_abstract_status@@@@YA?AW4__acrt_fenv_machine_sse_status@@W4__acrt_fenv_abstract_status@@0W40@1@Z 00458dcc f i libucrt:_fenvutils.obj
 0001:00057de6       ??$__acrt_fenv_translate_bit@W4__acrt_fenv_machine_x87_control@@W4__acrt_fenv_abstract_control@@@@YA?AW4__acrt_fenv_machine_x87_control@@W4__acrt_fenv_abstract_control@@0W40@1@Z 00458de6 f i libucrt:_fenvutils.obj
 0001:00057e02       ??$__acrt_fenv_translate_bit@W4__acrt_fenv_machine_x87_status@@W4__acrt_fenv_abstract_status@@@@YA?AW4__acrt_fenv_machine_x87_status@@W4__acrt_fenv_abstract_status@@0W40@1@Z 00458e02 f i libucrt:_fenvutils.obj
 0001:00057e1c       ??$__acrt_fenv_unshift_bits@W4__acrt_fenv_abstract_control@@@@YA?AW4__acrt_fenv_abstract_control@@W40@0I@Z 00458e1c f i libucrt:_fenvutils.obj
 0001:00057e32       ??$__acrt_fenv_unshift_bits@W4__acrt_fenv_abstract_status@@@@YA?AW4__acrt_fenv_abstract_status@@W40@0I@Z 00458e32 f i libucrt:_fenvutils.obj
 0001:0005832b       ??I@YA?AW4__acrt_fenv_abstract_control@@W40@0@Z 0045932b f i libucrt:_fenvutils.obj
 0001:0005833b       ??I@YA?AW4__acrt_fenv_abstract_status@@W40@0@Z 0045933b f i libucrt:_fenvutils.obj
 0001:0005834b       ??I@YA?AW4__acrt_fenv_machine_sse_control@@W40@0@Z 0045934b f i libucrt:_fenvutils.obj
 0001:0005835b       ??I@YA?AW4__acrt_fenv_machine_sse_status@@W40@0@Z 0045935b f i libucrt:_fenvutils.obj
 0001:0005836b       ??I@YA?AW4__acrt_fenv_machine_x87_control@@W40@0@Z 0045936b f i libucrt:_fenvutils.obj
 0001:0005837b       ??I@YA?AW4__acrt_fenv_machine_x87_status@@W40@0@Z 0045937b f i libucrt:_fenvutils.obj
 0001:0005838b       ??U@YA?AW4__acrt_fenv_abstract_control@@W40@0@Z 0045938b f i libucrt:_fenvutils.obj
 0001:0005839b       ??U@YA?AW4__acrt_fenv_abstract_status@@W40@0@Z 0045939b f i libucrt:_fenvutils.obj
 0001:000583ab       ??U@YA?AW4__acrt_fenv_machine_sse_control@@W40@0@Z 004593ab f i libucrt:_fenvutils.obj
 0001:000583bb       ??U@YA?AW4__acrt_fenv_machine_x87_control@@W40@0@Z 004593bb f i libucrt:_fenvutils.obj
 0001:000583cb       ??_5@YAAAW4__acrt_fenv_abstract_control@@AAW40@W40@@Z 004593cb f i libucrt:_fenvutils.obj
 0001:000583dd       ??_5@YAAAW4__acrt_fenv_abstract_status@@AAW40@W40@@Z 004593dd f i libucrt:_fenvutils.obj
 0001:000583ef       ??_5@YAAAW4__acrt_fenv_machine_sse_control@@AAW40@W40@@Z 004593ef f i libucrt:_fenvutils.obj
 0001:00058404       ??_5@YAAAW4__acrt_fenv_machine_sse_status@@AAW40@W40@@Z 00459404 f i libucrt:_fenvutils.obj
 0001:00058416       ??_5@YAAAW4__acrt_fenv_machine_x87_control@@AAW40@W40@@Z 00459416 f i libucrt:_fenvutils.obj
 0001:0005842b       ??_5@YAAAW4__acrt_fenv_machine_x87_status@@AAW40@W40@@Z 0045942b f i libucrt:_fenvutils.obj
 0001:0005843d       ?__acrt_fenv_shift_abstract_sse_control@@YA?AW4__acrt_fenv_abstract_control@@W41@@Z 0045943d f i libucrt:_fenvutils.obj
 0001:00058461       ?__acrt_fenv_shift_abstract_sse_status@@YA?AW4__acrt_fenv_abstract_status@@W41@@Z 00459461 f i libucrt:_fenvutils.obj
 0001:00058475       ?__acrt_fenv_shift_abstract_x87_control@@YA?AW4__acrt_fenv_abstract_control@@W41@@Z 00459475 f i libucrt:_fenvutils.obj
 0001:00058499       ?__acrt_fenv_shift_abstract_x87_status@@YA?AW4__acrt_fenv_abstract_status@@W41@@Z 00459499 f i libucrt:_fenvutils.obj
 0001:000584ad       ?__acrt_fenv_unshift_abstract_sse_control@@YA?AW4__acrt_fenv_abstract_control@@W41@@Z 004594ad f i libucrt:_fenvutils.obj
 0001:000584d3       ?__acrt_fenv_unshift_abstract_sse_status@@YA?AW4__acrt_fenv_abstract_status@@W41@@Z 004594d3 f i libucrt:_fenvutils.obj
 0001:000584e7       ?__acrt_fenv_unshift_abstract_x87_control@@YA?AW4__acrt_fenv_abstract_control@@W41@@Z 004594e7 f i libucrt:_fenvutils.obj
 0001:0005850d       ?__acrt_fenv_unshift_abstract_x87_status@@YA?AW4__acrt_fenv_abstract_status@@W41@@Z 0045950d f i libucrt:_fenvutils.obj
 0001:00058b5f       ___acrt_fenv_expand_round_control 00459b5f f   libucrt:_fenvutils.obj
 0001:00058ba2       ___acrt_fenv_get_common_round_control 00459ba2 f   libucrt:_fenvutils.obj
 0001:00058bcc       ___acrt_fenv_get_control   00459bcc f   libucrt:_fenvutils.obj
 0001:00058c6c       ___acrt_fenv_get_fp_status_word_from_exception_mask 00459c6c f   libucrt:_fenvutils.obj
 0001:00058c8c       ___acrt_fenv_get_status    00459c8c f   libucrt:_fenvutils.obj
 0001:00058d60       ___acrt_fenv_set_control   00459d60 f   libucrt:_fenvutils.obj
 0001:00058df9       ___acrt_fenv_set_status    00459df9 f   libucrt:_fenvutils.obj
 0001:00058f31       ?reset_and_return@__crt_mbstring@@YAIIPAU_Mbstatet@@@Z 00459f31 f   libucrt:common_utf8.obj
 0001:00058f4a       ?return_illegal_sequence@__crt_mbstring@@YAIPAU_Mbstatet@@AAV__crt_cached_ptd_host@@@Z 00459f4a f   libucrt:common_utf8.obj
 0001:00058f74       ?__mbrtoc32_utf8@__crt_mbstring@@YAIPA_UPBDIPAU_Mbstatet@@AAV__crt_cached_ptd_host@@@Z 00459f74 f   libucrt:mbrtoc32.obj
 0001:000591a1       _mbrtoc32                  0045a1a1 f   libucrt:mbrtoc32.obj
 0001:0005953e       __mbstowcs_l               0045a53e f   libucrt:mbstowcs.obj
 0001:00059584       __mbstowcs_s_l             0045a584 f   libucrt:mbstowcs.obj
 0001:000595d1       _mbstowcs                  0045a5d1 f   libucrt:mbstowcs.obj
 0001:00059615       _mbstowcs_s                0045a615 f   libucrt:mbstowcs.obj
 0001:00059661       ___strncnt                 0045a661 f   libucrt:strncnt.obj
 0001:00059684       ___acrt_CompareStringW     0045a684 f   libucrt:comparestringw.obj
 0001:00059702       __strnicmp                 0045a702 f   libucrt:strnicmp.obj
 0001:0005978a       __strnicmp_l               0045a78a f   libucrt:strnicmp.obj
 0001:00059bcd       ___acrt_CompareStringA     0045abcd f   libucrt:comparestringa.obj
 0001:00059c24       __towlower_l               0045ac24 f   libucrt:towlower.obj
 0001:00059d33       _towlower                  0045ad33 f   libucrt:towlower.obj
 0001:00059e24       ___dcrt_lowio_ensure_console_output_initialized 0045ae24 f   libucrt:initcon.obj
 0001:00059e4a       ___dcrt_terminate_console_output 0045ae4a f   libucrt:initcon.obj
 0001:00059e66       ___dcrt_write_console      0045ae66 f   libucrt:initcon.obj
 0001:00059ed0       ___acrt_initialize_sse2    0045aed0 f   libucrt:mathfcns.obj
 0001:00059ee4       __set_SSE2_enable          0045aee4 f   libucrt:mathfcns.obj
 0001:00059f10       __CIlog10_pentium4         0045af10 f   libucrt:log10_pentium4.obj
 0001:00059f28       __log10_pentium4           0045af28     libucrt:log10_pentium4.obj
 0001:0005a270       __fFEXP                    0045b270 f   libucrt:87tran.obj
 0001:0005a2c7       __rtinfpopse               0045b2c7     libucrt:87tran.obj
 0001:0005a2c9       __rtinfnpopse              0045b2c9     libucrt:87tran.obj
 0001:0005a2d9       __fFLN                     0045b2d9     libucrt:87tran.obj
 0001:0005a38e       __rtinfpop                 0045b38e     libucrt:87tran.obj
 0001:0005a390       __rtinfnpop                0045b390     libucrt:87tran.obj
 0001:0005a3a0       __rtforexpinf              0045b3a0 f   libucrt:87tran.obj
 0001:0005a3ad       __ffexpm1                  0045b3ad     libucrt:87tran.obj
 0001:0005a4e0       __trandisp1                0045b4e0 f   libucrt:87disp.obj
 0001:0005a555       __trandisp2                0045b555 f   libucrt:87disp.obj
 0001:0005a5ef       __rttospopde               0045b5ef     libucrt:87disp.obj
 0001:0005a5f4       __rttospop                 0045b5f4     libucrt:87disp.obj
 0001:0005a600       __rtnospop                 0045b600 f   libucrt:87disp.obj
 0001:0005a610       __rttosnpop                0045b610 f   libucrt:87disp.obj
 0001:0005a611       __rtnospopde               0045b611     libucrt:87disp.obj
 0001:0005a618       __rtzeropop                0045b618     libucrt:87disp.obj
 0001:0005a61a       __rtzeronpop               0045b61a     libucrt:87disp.obj
 0001:0005a620       __rtzerospop               0045b620 f   libucrt:87disp.obj
 0001:0005a62d       __rtonepop                 0045b62d     libucrt:87disp.obj
 0001:0005a630       __rtonenpop                0045b630 f   libucrt:87disp.obj
 0001:0005a640       __tosnan1                  0045b640 f   libucrt:87disp.obj
 0001:0005a670       __nosnan2                  0045b670 f   libucrt:87disp.obj
 0001:0005a680       __tosnan2                  0045b680 f   libucrt:87disp.obj
 0001:0005a6b0       __nan2                     0045b6b0 f   libucrt:87disp.obj
 0001:0005a6f0       __rtindfpop                0045b6f0 f   libucrt:87disp.obj
 0001:0005a6f2       __rtindfnpop               0045b6f2     libucrt:87disp.obj
 0001:0005a703       __rttosnpopde              0045b703     libucrt:87disp.obj
 0001:0005a710       __rtatan2inf               0045b710 f   libucrt:87disp.obj
 0001:0005a72d       __rtchsifneg               0045b72d     libucrt:87disp.obj
 0001:0005a7c9       ___setfflag                0045b7c9 f   libucrt:fp_flags.obj
 0001:0005a7f0       __twoToTOS                 0045b7f0 f   libucrt:common.obj
 0001:0005a805       __load_CW                  0045b805 f   libucrt:common.obj
 0001:0005a81c       __convertTOStoQNaN         0045b81c f   libucrt:common.obj
 0001:0005a835       __fload_withFB             0045b835 f   libucrt:common.obj
 0001:0005a878       __checkTOS_withFB          0045b878 f   libucrt:common.obj
 0001:0005a88e       __fast_exit                0045b88e f   libucrt:common.obj
 0001:0005a89b       __math_exit                0045b89b f   libucrt:common.obj
 0001:0005a8c5       __check_overflow_exit      0045b8c5 f   libucrt:common.obj
 0001:0005a8d9       __check_range_exit         0045b8d9 f   libucrt:common.obj
 0001:0005a9e0       __startTwoArgErrorHandling 0045b9e0 f   libucrt:genexcep.obj
 0001:0005a9f7       __startOneArgErrorHandling 0045b9f7 f   libucrt:genexcep.obj
 0001:0005aa47       ___libm_error_support      0045ba47 f   libucrt:libm_error.obj
 0001:0005acb8       ___libm_setusermatherr     0045bcb8 f   libucrt:libm_error.obj
 0001:0005ace8       __ceil_default             0045bce8 f   libucrt:ceil.obj
 0001:0005add0       ___ascii_strnicmp          0045bdd0 f   libucrt:_strnicm.obj
 0001:0005ae49       ___acrt_LCMapStringW       0045be49 f   libucrt:lcmapstringw.obj
 0001:0005ae96       __d_inttype                0045be96 f   libucrt:powhlp.obj
 0001:0005af18       __powhlp                   0045bf18 f   libucrt:powhlp.obj
 0001:0005b08d       __87except                 0045c08d f   libucrt:87except.obj
 0001:0005b1d9       __frnd                     0045c1d9 f   libucrt:frnd.obj
 0001:0005b1f2       ?should_round_up@__crt_strtox@@YA_N_N000@Z 0045c1f2 f i libucrt:fpexcept.obj
 0001:0005b252       __errcode                  0045c252 f   libucrt:fpexcept.obj
 0001:0005b293       __except1                  0045c293 f   libucrt:fpexcept.obj
 0001:0005b394       __except2                  0045c394 f   libucrt:fpexcept.obj
 0001:0005b4dd       __handle_exc               0045c4dd f   libucrt:fpexcept.obj
 0001:0005b7f4       __handle_qnan2             0045c7f4 f   libucrt:fpexcept.obj
 0001:0005b804       __raise_exc                0045c804 f   libucrt:fpexcept.obj
 0001:0005b82f       __raise_exc_ex             0045c82f f   libucrt:fpexcept.obj
 0001:0005bbe2       __raise_excf               0045cbe2 f   libucrt:fpexcept.obj
 0001:0005bc0d       __set_errno_from_matherr   0045cc0d f   libucrt:fpexcept.obj
 0001:0005bc47       __umatherr                 0045cc47 f   libucrt:fpexcept.obj
 0001:0005bd0f       __add_exp                  0045cd0f f   libucrt:util.obj
 0001:0005bd49       __decomp                   0045cd49 f   libucrt:util.obj
 0001:0005be4f       __get_exp                  0045ce4f f   libucrt:util.obj
 0001:0005be6d       __set_bexp                 0045ce6d f   libucrt:util.obj
 0001:0005be9d       __set_exp                  0045ce9d f   libucrt:util.obj
 0001:0005bed5       __sptype                   0045ced5 f   libucrt:util.obj
 0001:0005bf4a       __chgsign                  0045cf4a f   libucrt:ieeemisc.obj
 0001:0005bf7c       __chgsignf                 0045cf7c f   libucrt:ieeemisc.obj
 0001:0005bfa5       __copysign                 0045cfa5 f   libucrt:ieeemisc.obj
 0001:0005bfd0       __copysignf                0045cfd0 f   libucrt:ieeemisc.obj
 0001:0005bff3       __finite                   0045cff3 f   libucrt:ieeemisc.obj
 0001:0005c013       __fpclass                  0045d013 f   libucrt:ieeemisc.obj
 0001:0005c0e0       __isnan                    0045d0e0 f   libucrt:ieeemisc.obj
 0001:0005c123       __logb                     0045d123 f   libucrt:ieeemisc.obj
 0001:0005c225       __nextafter                0045d225 f   libucrt:ieeemisc.obj
 0001:0005c24b       __scalb                    0045d24b f   libucrt:ieeemisc.obj
 0001:0005c26b       _ldexp                     0045d26b f   libucrt:ldexp.obj
 0001:0005c4d9       _nextafter                 0045d4d9 f   libucrt:nextafter.obj
 0001:0005c4ff       _nexttoward                0045d4ff f   libucrt:nexttoward.obj
 0001:0005c764       __d_int                    0045d764 f   libucrt:_test.obj
 0001:0005c8ab       __dtest                    0045d8ab f   libucrt:_test.obj
 0001:0005c928       __fd_int                   0045d928 f   libucrt:_test.obj
 0001:0005ca28       __fdtest                   0045da28 f   libucrt:_test.obj
 0001:0005ca89       __fperrraise               0045da89 f   libucrt:_test.obj
 0001:0005cab2       __ld_int                   0045dab2 f   libucrt:_test.obj
 0001:0005cabf       __ldtest                   0045dabf f   libucrt:_test.obj
 0001:0005cacc       __dclass                   0045dacc f   libucrt:nan.obj
 0001:0005cae1       __dpcomp                   0045dae1 f   libucrt:nan.obj
 0001:0005cb4c       __dsign                    0045db4c f   libucrt:nan.obj
 0001:0005cb60       _nan                       0045db60 f   libucrt:nan.obj
 0001:0005cb67       __ldclass                  0045db67 f   libucrt:nanl.obj
 0001:0005cb7c       __ldpcomp                  0045db7c f   libucrt:nanl.obj
 0001:0005cbe7       __ldsign                   0045dbe7 f   libucrt:nanl.obj
 0001:0005cbfb       _nanl                      0045dbfb f   libucrt:nanl.obj
 0001:0005cc02       ??_4@YAAAW4__acrt_fenv_abstract_status@@AAW40@W40@@Z 0045dc02 f i libucrt:fegetexceptflag.obj
 0001:0005cc14       _fegetexceptflag           0045dc14 f   libucrt:fegetexceptflag.obj
 0001:0005cc51       ??S@YA?AW4__acrt_fenv_abstract_status@@W40@@Z 0045dc51 f i libucrt:fesetexceptflag.obj
 0001:0005cc60       _fesetexceptflag           0045dc60 f   libucrt:fesetexceptflag.obj
 0001:0005ccd8       _fetestexcept              0045dcd8 f   libucrt:fetestexcept.obj
 0001:0005cd00       _QueryPerformanceCounter@4 0045dd00 f   Kernel32:KERNEL32.dll
 0001:0005cd06       _GetCurrentProcessId@0     0045dd06 f   Kernel32:KERNEL32.dll
 0001:0005cd0c       _GetCurrentThreadId@0      0045dd0c f   Kernel32:KERNEL32.dll
 0001:0005cd12       _GetSystemTimeAsFileTime@4 0045dd12 f   Kernel32:KERNEL32.dll
 0001:0005cd18       _InitializeSListHead@4     0045dd18 f   Kernel32:KERNEL32.dll
 0001:0005cd1e       _IsDebuggerPresent@0       0045dd1e f   Kernel32:KERNEL32.dll
 0001:0005cd24       _UnhandledExceptionFilter@4 0045dd24 f   Kernel32:KERNEL32.dll
 0001:0005cd2a       _SetUnhandledExceptionFilter@4 0045dd2a f   Kernel32:KERNEL32.dll
 0001:0005cd30       _GetStartupInfoW@4         0045dd30 f   Kernel32:KERNEL32.dll
 0001:0005cd36       _IsProcessorFeaturePresent@4 0045dd36 f   Kernel32:KERNEL32.dll
 0001:0005cd3c       _GetModuleHandleW@4        0045dd3c f   Kernel32:KERNEL32.dll
 0001:0005cd42       _GetCurrentProcess@0       0045dd42 f   Kernel32:KERNEL32.dll
 0001:0005cd48       _TerminateProcess@8        0045dd48 f   Kernel32:KERNEL32.dll
 0001:0005cd4e       _InterlockedPushEntrySList@8 0045dd4e f   Kernel32:KERNEL32.dll
 0001:0005cd54       _InterlockedFlushSList@4   0045dd54 f   Kernel32:KERNEL32.dll
 0001:0005cd5a       _RtlUnwind@16              0045dd5a f   Kernel32:KERNEL32.dll
 0001:0005cd60       _SetLastError@4            0045dd60 f   Kernel32:KERNEL32.dll
 0001:0005cd66       _EnterCriticalSection@4    0045dd66 f   Kernel32:KERNEL32.dll
 0001:0005cd6c       _LeaveCriticalSection@4    0045dd6c f   Kernel32:KERNEL32.dll
 0001:0005cd72       _DeleteCriticalSection@4   0045dd72 f   Kernel32:KERNEL32.dll
 0001:0005cd78       _InitializeCriticalSectionAndSpinCount@8 0045dd78 f   Kernel32:KERNEL32.dll
 0001:0005cd7e       _TlsAlloc@0                0045dd7e f   Kernel32:KERNEL32.dll
 0001:0005cd84       _TlsGetValue@4             0045dd84 f   Kernel32:KERNEL32.dll
 0001:0005cd8a       _TlsSetValue@8             0045dd8a f   Kernel32:KERNEL32.dll
 0001:0005cd90       _TlsFree@4                 0045dd90 f   Kernel32:KERNEL32.dll
 0001:0005cd96       _FreeLibrary@4             0045dd96 f   Kernel32:KERNEL32.dll
 0001:0005cd9c       _GetProcAddress@8          0045dd9c f   Kernel32:KERNEL32.dll
 0001:0005cda2       _LoadLibraryExW@12         0045dda2 f   Kernel32:KERNEL32.dll
 0001:0005cda8       _EncodePointer@4           0045dda8 f   Kernel32:KERNEL32.dll
 0001:0005cdae       _RaiseException@16         0045ddae f   Kernel32:KERNEL32.dll
 0001:0005cdb4       _GetStdHandle@4            0045ddb4 f   Kernel32:KERNEL32.dll
 0001:0005cdba       _WriteFile@20              0045ddba f   Kernel32:KERNEL32.dll
 0001:0005cdc0       _GetModuleFileNameW@12     0045ddc0 f   Kernel32:KERNEL32.dll
 0001:0005cdc6       _ExitProcess@4             0045ddc6 f   Kernel32:KERNEL32.dll
 0001:0005cdcc       _GetModuleHandleExW@12     0045ddcc f   Kernel32:KERNEL32.dll
 0001:0005cdd2       _GetCommandLineA@0         0045ddd2 f   Kernel32:KERNEL32.dll
 0001:0005cdd8       _GetCommandLineW@0         0045ddd8 f   Kernel32:KERNEL32.dll
 0001:0005cdde       _HeapAlloc@12              0045ddde f   Kernel32:KERNEL32.dll
 0001:0005cde4       _HeapFree@12               0045dde4 f   Kernel32:KERNEL32.dll
 0001:0005cdea       _GetDateFormatW@24         0045ddea f   Kernel32:KERNEL32.dll
 0001:0005cdf0       _GetTimeFormatW@24         0045ddf0 f   Kernel32:KERNEL32.dll
 0001:0005cdf6       _CompareStringW@24         0045ddf6 f   Kernel32:KERNEL32.dll
 0001:0005cdfc       _LCMapStringW@24           0045ddfc f   Kernel32:KERNEL32.dll
 0001:0005ce02       _GetLocaleInfoW@16         0045de02 f   Kernel32:KERNEL32.dll
 0001:0005ce08       _IsValidLocale@8           0045de08 f   Kernel32:KERNEL32.dll
 0001:0005ce0e       _GetUserDefaultLCID@0      0045de0e f   Kernel32:KERNEL32.dll
 0001:0005ce14       _EnumSystemLocalesW@8      0045de14 f   Kernel32:KERNEL32.dll
 0001:0005ce1a       _GetFileType@4             0045de1a f   Kernel32:KERNEL32.dll
 0001:0005ce20       _GetCurrentThread@0        0045de20 f   Kernel32:KERNEL32.dll
 0001:0005ce26       _OutputDebugStringW@4      0045de26 f   Kernel32:KERNEL32.dll
 0001:0005ce2c       _FindClose@4               0045de2c f   Kernel32:KERNEL32.dll
 0001:0005ce32       _FindFirstFileExW@24       0045de32 f   Kernel32:KERNEL32.dll
 0001:0005ce38       _FindNextFileW@8           0045de38 f   Kernel32:KERNEL32.dll
 0001:0005ce3e       _IsValidCodePage@4         0045de3e f   Kernel32:KERNEL32.dll
 0001:0005ce44       _GetACP@0                  0045de44 f   Kernel32:KERNEL32.dll
 0001:0005ce4a       _GetOEMCP@0                0045de4a f   Kernel32:KERNEL32.dll
 0001:0005ce50       _GetCPInfo@8               0045de50 f   Kernel32:KERNEL32.dll
 0001:0005ce56       _MultiByteToWideChar@24    0045de56 f   Kernel32:KERNEL32.dll
 0001:0005ce5c       _WideCharToMultiByte@32    0045de5c f   Kernel32:KERNEL32.dll
 0001:0005ce62       _GetEnvironmentStringsW@0  0045de62 f   Kernel32:KERNEL32.dll
 0001:0005ce68       _FreeEnvironmentStringsW@4 0045de68 f   Kernel32:KERNEL32.dll
 0001:0005ce6e       _SetEnvironmentVariableW@8 0045de6e f   Kernel32:KERNEL32.dll
 0001:0005ce74       _SetStdHandle@8            0045de74 f   Kernel32:KERNEL32.dll
 0001:0005ce7a       _GetStringTypeW@16         0045de7a f   Kernel32:KERNEL32.dll
 0001:0005ce80       _GetProcessHeap@0          0045de80 f   Kernel32:KERNEL32.dll
 0001:0005ce86       _SetConsoleCtrlHandler@8   0045de86 f   Kernel32:KERNEL32.dll
 0001:0005ce8c       _FlushFileBuffers@4        0045de8c f   Kernel32:KERNEL32.dll
 0001:0005ce92       _GetConsoleOutputCP@0      0045de92 f   Kernel32:KERNEL32.dll
 0001:0005ce98       _GetConsoleMode@8          0045de98 f   Kernel32:KERNEL32.dll
 0001:0005ce9e       _ReadFile@20               0045de9e f   Kernel32:KERNEL32.dll
 0001:0005cea4       _ReadConsoleW@20           0045dea4 f   Kernel32:KERNEL32.dll
 0001:0005ceaa       _GetFileSizeEx@8           0045deaa f   Kernel32:KERNEL32.dll
 0001:0005ceb0       _SetFilePointerEx@20       0045deb0 f   Kernel32:KERNEL32.dll
 0001:0005ceb6       _HeapSize@12               0045deb6 f   Kernel32:KERNEL32.dll
 0001:0005cebc       _HeapReAlloc@16            0045debc f   Kernel32:KERNEL32.dll
 0001:0005cec2       _CloseHandle@4             0045dec2 f   Kernel32:KERNEL32.dll
 0001:0005cec8       _CreateFileW@28            0045dec8 f   Kernel32:KERNEL32.dll
 0001:0005cece       _WriteConsoleW@20          0045dece f   Kernel32:KERNEL32.dll
 0001:0005ced4       _DecodePointer@4           0045ded4 f   Kernel32:KERNEL32.dll
 0001:0005cee0       __FindPESection            0045dee0 f   LIBCMT:pesect.obj
 0001:0005cf40       __IsNonwritableInCurrentImage 0045df40 f   LIBCMT:pesect.obj
 0001:0005d030       __ValidateImageBase        0045e030 f   LIBCMT:pesect.obj
 0001:0005d06d       ??1type_info@@UAE@XZ       0045e06d f   LIBCMT:std_type_info_static.obj
 0001:0005d074       ??_Etype_info@@UAEPAXI@Z   0045e074 f i LIBCMT:std_type_info_static.obj
 0001:0005d074       ??_Gtype_info@@UAEPAXI@Z   0045e074 f i LIBCMT:std_type_info_static.obj
 0001:0005d09f       __EH_epilog3               0045e09f f   LIBCMT:ehprolg3.obj
 0001:0005d0b8       __EH_epilog3_GS            0045e0b8 f   LIBCMT:ehprolg3.obj
 0001:0005d0ca       __EH_epilog3_catch_GS      0045e0ca f   LIBCMT:ehprolg3.obj
 0001:0005d0dc       __EH_prolog3               0045e0dc f   LIBCMT:ehprolg3.obj
 0001:0005d11b       __EH_prolog3_GS            0045e11b f   LIBCMT:ehprolg3.obj
 0001:0005d15e       __EH_prolog3_catch         0045e15e f   LIBCMT:ehprolg3.obj
 0001:0005d1a1       __EH_prolog3_catch_GS      0045e1a1 f   LIBCMT:ehprolg3.obj
 0001:0005d1f0       __aulldvrm                 0045e1f0 f   LIBCMT:ulldvrm.obj
 0001:0005d2aa       ??3@YAXPAXI@Z              0045e2aa f   LIBCMT:delete_scalar_size.obj
 0001:0005d2bb       __except_handler4_noexcept 0045e2bb f   LIBCMT:chandler4_noexcept.obj
 0001:0005d320       __allmul                   0045e320 f   LIBCMT:llmul.obj
 0001:0005d370       __aulldiv                  0045e370 f   LIBCMT:ulldiv.obj
 0001:0005d400       __alldvrm                  0045e400 f   LIBCMT:lldvrm.obj
 0001:0005d520       __allshl                   0045e520 f   LIBCMT:llshl.obj
 0001:0005d550       __aullshr                  0045e550 f   LIBCMT:ullshr.obj
 0001:0005d580       __alloca_probe_16          0045e580 f   LIBCMT:alloca16.obj
 0001:0005d596       __alloca_probe_8           0045e596     LIBCMT:alloca16.obj
 0001:0005d5c0       __alloca_probe             0045e5c0 f   LIBCMT:chkstk.obj
 0001:0005d5c0       __chkstk                   0045e5c0 f   LIBCMT:chkstk.obj
 0001:0005d600       __ftol2_sse_excpt          0045e600 f   LIBCMT:ftol2.obj
 0001:0005d610       __ftol2_sse                0045e610 f   LIBCMT:ftol2.obj
 0001:0005d620       __ftoi2                    0045e620 f   LIBCMT:ftol2.obj
 0001:0005d6c0       __ftoui2                   0045e6c0 f   LIBCMT:ftol2.obj
 0001:0005d790       __ftol2                    0045e790 f   LIBCMT:ftol2.obj
 0001:0005d870       __ftoul2                   0045e870 f   LIBCMT:ftol2.obj
 0001:0005d960       __ftoul2_legacy            0045e960 f   LIBCMT:ftol2.obj
 0001:0005d97b       ??3@YAXPAX@Z               0045e97b f   LIBCMT:delete_scalar.obj
 0001:0005dae3       _memcmp                    0045eae3 f   libvcruntime:memcmp.obj
 0001:00061260       _strrchr                   00462260 f   libvcruntime:strrchr.obj
 0001:000613f0       _strchr                    004623f0 f   libvcruntime:strchr.obj
 0001:0006145e       ___from_strstr_to_strchr   0046245e     libvcruntime:strchr.obj
 0001:00061565       _wcschr                    00462565 f   libvcruntime:wcschr.obj
 0001:00061641       __filter_x86_sse2_floating_point_exception 00462641 f   LIBCMT:x86_exception_filter.obj
 0001:00061641       __filter_x86_sse2_floating_point_exception_default 00462641 f   LIBCMT:x86_exception_filter.obj
 0002:00000000       ___xc_a                    00467000     LIBCMT:initializers.obj
 0002:00000208       ___xc_z                    00467208     LIBCMT:initializers.obj
 0002:0000030c       ___xi_a                    0046730c     LIBCMT:initializers.obj
 0002:00000618       ___acrt_stdio_initializer  00467618     libucrt:stdio_initializer.obj
 0002:0000061c       ___acrt_multibyte_initializer 0046761c     libucrt:multibyte_initializer.obj
 0002:00000620       ___acrt_fmode_initializer  00467620     libucrt:fmode_initializer.obj
 0002:00000624       ___acrt_tran_sse2_initializer 00467624     libucrt:sse2_initializer.obj
 0002:0000072c       ___xi_z                    0046772c     LIBCMT:initializers.obj
 0002:00000830       ___xp_a                    00467830     LIBCMT:initializers.obj
 0002:00000934       ___acrt_locale_terminator  00467934     libucrt:locale_initializer.obj
 0002:00000938       ___dcrt_console_output_terminator 00467938     libucrt:console_output_initializer.obj
 0002:00000a40       ___acrt_stdio_terminator   00467a40     libucrt:stdio_initializer.obj
 0002:00000b44       ___xp_z                    00467b44     LIBCMT:initializers.obj
 0002:00000c48       ___xt_a                    00467c48     LIBCMT:initializers.obj
 0002:00000d4c       ___xt_z                    00467d4c     LIBCMT:initializers.obj
 0002:00000eb0       __pDestructExceptionObject 00467eb0     libvcruntime:ehhelpers.obj
 0002:000012f4       ??_C@_08EHJDFFNH@__based?$CI@ 004682f4     libvcruntime:undname.obj
 0002:00001300       ??_C@_07KOLFKCDI@__cdecl@  00468300     libvcruntime:undname.obj
 0002:0000130c       ??_C@_08GHMPAG@__pascal@   0046830c     libvcruntime:undname.obj
 0002:00001318       ??_C@_09IFJBGAPI@__stdcall@ 00468318     libvcruntime:undname.obj
 0002:00001324       ??_C@_0L@NPHFGOKO@__thiscall@ 00468324     libvcruntime:undname.obj
 0002:00001334       ??_C@_0L@JMKHOMEK@__fastcall@ 00468334     libvcruntime:undname.obj
 0002:00001344       ??_C@_0N@BCKKPABJ@__vectorcall@ 00468344     libvcruntime:undname.obj
 0002:00001354       ??_C@_09HIJEGCPM@__clrcall@ 00468354     libvcruntime:undname.obj
 0002:00001360       ??_C@_06GHPCKEAG@__eabi@   00468360     libvcruntime:undname.obj
 0002:00001368       ??_C@_09IOPIDJLG@__swift_1@ 00468368     libvcruntime:undname.obj
 0002:00001374       ??_C@_09KFNFGKHF@__swift_2@ 00468374     libvcruntime:undname.obj
 0002:00001380       ??_C@_09LMMOFLDE@__swift_3@ 00468380     libvcruntime:undname.obj
 0002:0000138c       ??_C@_07JOMMBBKO@__ptr64@  0046838c     libvcruntime:undname.obj
 0002:00001398       ??_C@_0L@PILCLIHE@__restrict@ 00468398     libvcruntime:undname.obj
 0002:000013a8       ??_C@_0M@GFIIJFMG@__unaligned@ 004683a8     libvcruntime:undname.obj
 0002:000013b8       ??_C@_09DHDLOLLB@restrict?$CI@ 004683b8     libvcruntime:undname.obj
 0002:000013c4       ??_C@_00CNPNBAHC@@         004683c4     libvcruntime:undname.obj
 0002:000013c8       ??_C@_04NIHEBCM@?5new@     004683c8     libvcruntime:undname.obj
 0002:000013d0       ??_C@_07FPCDHGMM@?5delete@ 004683d0     libvcruntime:undname.obj
 0002:000013dc       ??_C@_01NEMOKFLO@?$DN@     004683dc     libvcruntime:undname.obj
 0002:000013e0       ??_C@_02GPIOPFAK@?$DO?$DO@ 004683e0     libvcruntime:undname.obj
 0002:000013e4       ??_C@_02FODMEDOG@?$DM?$DM@ 004683e4     libvcruntime:undname.obj
 0002:000013e8       ??_C@_01DCLJPIOD@?$CB@     004683e8     libvcruntime:undname.obj
 0002:000013ec       ??_C@_02EGOFBIJA@?$DN?$DN@ 004683ec     libvcruntime:undname.obj
 0002:000013f0       ??_C@_02FDNJECIE@?$CB?$DN@ 004683f0     libvcruntime:undname.obj
 0002:000013f4       ??_C@_02GPECMEKF@?$FL?$FN@ 004683f4     libvcruntime:undname.obj
 0002:000013f8       ??_C@_08LHJFAFGD@operator@ 004683f8     libvcruntime:undname.obj
 0002:00001404       ??_C@_02HBOOOICD@?9?$DO@   00468404     libvcruntime:undname.obj
 0002:00001408       ??_C@_01NBENCBCI@?$CK@     00468408     libvcruntime:undname.obj
 0002:0000140c       ??_C@_02ECNGHCIF@?$CL?$CL@ 0046840c     libvcruntime:undname.obj
 0002:00001410       ??_C@_02BAABKJLB@?9?9@     00468410     libvcruntime:undname.obj
 0002:00001414       ??_C@_01JOAMLHOP@?9@       00468414     libvcruntime:undname.obj
 0002:00001418       ??_C@_01MIFGBAGJ@?$CL@     00468418     libvcruntime:undname.obj
 0002:0000141c       ??_C@_01HNPIGOCE@?$CG@     0046841c     libvcruntime:undname.obj
 0002:00001420       ??_C@_03MNHNFDLC@?9?$DO?$CK@ 00468420     libvcruntime:undname.obj
 0002:00001424       ??_C@_01KMDKNFGN@?1@       00468424     libvcruntime:undname.obj
 0002:00001428       ??_C@_01FGNFDNOH@?$CF@     00468428     libvcruntime:undname.obj
 0002:0000142c       ??_C@_01MNNFJEPP@?$DM@     0046842c     libvcruntime:undname.obj
 0002:00001430       ??_C@_02EHCHHCKH@?$DM?$DN@ 00468430     libvcruntime:undname.obj
 0002:00001434       ??_C@_01PPODPGHN@?$DO@     00468434     libvcruntime:undname.obj
 0002:00001438       ??_C@_02EEKDKGMJ@?$DO?$DN@ 00468438     libvcruntime:undname.obj
 0002:0000143c       ??_C@_01IHBHIGKO@?0@       0046843c     libvcruntime:undname.obj
 0002:00001440       ??_C@_02HCKGKOFO@?$CI?$CJ@ 00468440     libvcruntime:undname.obj
 0002:00001444       ??_C@_01PJKLJHI@?$HO@      00468444     libvcruntime:undname.obj
 0002:00001448       ??_C@_01JKBOJNNK@?$FO@     00468448     libvcruntime:undname.obj
 0002:0000144c       ??_C@_01DNKMNLPK@?$HM@     0046844c     libvcruntime:undname.obj
 0002:00001450       ??_C@_02PPKAJPJL@?$CG?$CG@ 00468450     libvcruntime:undname.obj
 0002:00001454       ??_C@_02NONPIBCD@?$HM?$HM@ 00468454     libvcruntime:undname.obj
 0002:00001458       ??_C@_02FPIMKNGF@?$CK?$DN@ 00468458     libvcruntime:undname.obj
 0002:0000145c       ??_C@_02FOEOMHFC@?$CL?$DN@ 0046845c     libvcruntime:undname.obj
 0002:00001460       ??_C@_02FKMDLLOA@?9?$DN@   00468460     libvcruntime:undname.obj
 0002:00001464       ??_C@_02FJEHGPIO@?1?$DN@   00468464     libvcruntime:undname.obj
 0002:00001468       ??_C@_02FENAOKFI@?$CF?$DN@ 00468468     libvcruntime:undname.obj
 0002:0000146c       ??_C@_03IKFCCPFF@?$DO?$DO?$DN@ 0046846c     libvcruntime:undname.obj
 0002:00001470       ??_C@_03CDNPDDLA@?$DM?$DM?$DN@ 00468470     libvcruntime:undname.obj
 0002:00001474       ??_C@_02FGJGFEAB@?$CG?$DN@ 00468474     libvcruntime:undname.obj
 0002:00001478       ??_C@_02DHLNPPGH@?$HM?$DN@ 00468478     libvcruntime:undname.obj
 0002:0000147c       ??_C@_02MHEGNOJ@?$FO?$DN@  0046847c     libvcruntime:undname.obj
 0002:00001480       ??_C@_09IFPLHPGF@?$GAvftable?8@ 00468480     libvcruntime:undname.obj
 0002:0000148c       ??_C@_09BLBHBJP@?$GAvbtable?8@ 0046848c     libvcruntime:undname.obj
 0002:00001498       ??_C@_07FEEIOKP@?$GAvcall?8@ 00468498     libvcruntime:undname.obj
 0002:000014a4       ??_C@_08LLFFHHDJ@?$GAtypeof?8@ 004684a4     libvcruntime:undname.obj
 0002:000014b0       ??_C@_0BF@KDPPACIK@?$GAlocal?5static?5guard?8@ 004684b0     libvcruntime:undname.obj
 0002:000014cc       ??_C@_08OBABFOLI@?$GAstring?8@ 004684cc     libvcruntime:undname.obj
 0002:000014d8       ??_C@_0BD@JDLKDPAB@?$GAvbase?5destructor?8@ 004684d8     libvcruntime:undname.obj
 0002:000014f0       ??_C@_0BN@DEGPLNFK@?$GAvector?5deleting?5destructor?8@ 004684f0     libvcruntime:undname.obj
 0002:00001514       ??_C@_0BO@OBMKPJIG@?$GAdefault?5constructor?5closure?8@ 00468514     libvcruntime:undname.obj
 0002:00001538       ??_C@_0BN@IMDCHIKM@?$GAscalar?5deleting?5destructor?8@ 00468538     libvcruntime:undname.obj
 0002:0000155c       ??_C@_0BO@PFGOCPJJ@?$GAvector?5constructor?5iterator?8@ 0046855c     libvcruntime:undname.obj
 0002:00001580       ??_C@_0BN@LFPFMEDL@?$GAvector?5destructor?5iterator?8@ 00468580     libvcruntime:undname.obj
 0002:000015a4       ??_C@_0CE@IKBNEHA@?$GAvector?5vbase?5constructor?5itera@ 004685a4     libvcruntime:undname.obj
 0002:000015d0       ??_C@_0BL@NILFHHPC@?$GAvirtual?5displacement?5map?8@ 004685d0     libvcruntime:undname.obj
 0002:000015f0       ??_C@_0CB@JONCMFFK@?$GAeh?5vector?5constructor?5iterator@ 004685f0     libvcruntime:undname.obj
 0002:00001618       ??_C@_0CA@GCEOPDGL@?$GAeh?5vector?5destructor?5iterator?8@ 00468618     libvcruntime:undname.obj
 0002:00001640       ??_C@_0CH@OOJPLCPH@?$GAeh?5vector?5vbase?5constructor?5it@ 00468640     libvcruntime:undname.obj
 0002:00001670       ??_C@_0BL@LLKPOHJI@?$GAcopy?5constructor?5closure?8@ 00468670     libvcruntime:undname.obj
 0002:00001690       ??_C@_0BA@KBCDOMBN@?$GAudt?5returning?8@ 00468690     libvcruntime:undname.obj
 0002:000016a4       ??_C@_03KLGMFNMG@?$GAEH@   004686a4     libvcruntime:undname.obj
 0002:000016a8       ??_C@_05KHLCHHI@?$GARTTI@  004686a8     libvcruntime:undname.obj
 0002:000016b0       ??_C@_0BA@KKLDJDLB@?$GAlocal?5vftable?8@ 004686b0     libvcruntime:undname.obj
 0002:000016c4       ??_C@_0CE@IIHCMGGL@?$GAlocal?5vftable?5constructor?5clos@ 004686c4     libvcruntime:undname.obj
 0002:000016f0       ??_C@_06FHBGPFGH@?5new?$FL?$FN@ 004686f0     libvcruntime:undname.obj
 0002:000016f8       ??_C@_09LBNFPBCA@?5delete?$FL?$FN@ 004686f8     libvcruntime:undname.obj
 0002:00001704       ??_C@_0P@HJKNJFNN@?$GAomni?5callsig?8@ 00468704     libvcruntime:undname.obj
 0002:00001718       ??_C@_0BL@CNOONJFP@?$GAplacement?5delete?5closure?8@ 00468718     libvcruntime:undname.obj
 0002:00001738       ??_C@_0BN@CKNJLHMB@?$GAplacement?5delete?$FL?$FN?5closure?8@ 00468738     libvcruntime:undname.obj
 0002:0000175c       ??_C@_0CG@CFDHKGGD@?$GAmanaged?5vector?5constructor?5ite@ 0046875c     libvcruntime:undname.obj
 0002:0000178c       ??_C@_0CF@IMGKMJNO@?$GAmanaged?5vector?5destructor?5iter@ 0046878c     libvcruntime:undname.obj
 0002:000017b8       ??_C@_0CG@HLDDJMAG@?$GAeh?5vector?5copy?5constructor?5ite@ 004687b8     libvcruntime:undname.obj
 0002:000017e8       ??_C@_0CM@FCBBDIGB@?$GAeh?5vector?5vbase?5copy?5construct@ 004687e8     libvcruntime:undname.obj
 0002:0000181c       ??_C@_0BL@CLIPGLGB@?$GAdynamic?5initializer?5for?5?8@ 0046881c     libvcruntime:undname.obj
 0002:0000183c       ??_C@_0CB@PDBIFEP@?$GAdynamic?5atexit?5destructor?5for?5@ 0046883c     libvcruntime:undname.obj
 0002:00001864       ??_C@_0CD@CGAJBKEJ@?$GAvector?5copy?5constructor?5iterat@ 00468864     libvcruntime:undname.obj
 0002:00001890       ??_C@_0CJ@GJELGAMM@?$GAvector?5vbase?5copy?5constructor?5@ 00468890     libvcruntime:undname.obj
 0002:000018c4       ??_C@_0CL@FGIJHLCE@?$GAmanaged?5vector?5copy?5constructo@ 004688c4     libvcruntime:undname.obj
 0002:000018f8       ??_C@_0BM@PMGGMLDN@?$GAlocal?5static?5thread?5guard?8@ 004688f8     libvcruntime:undname.obj
 0002:0000191c       ??_C@_0N@BDNMDMOL@operator?5?$CC?$CC?5@ 0046891c     libvcruntime:undname.obj
 0002:0000192c       ??_C@_0BC@GGEBGALA@operator?5co_await@ 0046892c     libvcruntime:undname.obj
 0002:00001944       ??_C@_0M@GAAIMMOH@operator?$DM?$DN?$DO@ 00468944     libvcruntime:undname.obj
 0002:00001954       ??_C@_0BC@DAFEJGAK@?5Type?5Descriptor?8@ 00468954     libvcruntime:undname.obj
 0002:0000196c       ??_C@_0BM@LDKODKLH@?5Base?5Class?5Descriptor?5at?5?$CI@ 0046896c     libvcruntime:undname.obj
 0002:00001990       ??_C@_0BD@LGICGFMM@?5Base?5Class?5Array?8@ 00468990     libvcruntime:undname.obj
 0002:000019a8       ??_C@_0BN@MECKDCOJ@?5Class?5Hierarchy?5Descriptor?8@ 004689a8     libvcruntime:undname.obj
 0002:000019cc       ??_C@_0BK@CFCOFLF@?5Complete?5Object?5Locator?8@ 004689cc     libvcruntime:undname.obj
 0002:000019ec       ??_C@_0BG@JNJLAMPM@?$GAanonymous?5namespace?8@ 004689ec     libvcruntime:undname.obj
 0002:00001a08       ??_C@_04HEJADOOB@CV?3?5@   00468a08     libvcruntime:undname.obj
 0002:00001a10       ??_C@_02MOLJINC@?3?3@      00468a10     libvcruntime:undname.obj
 0002:00001a14       ??_C@_0BE@JAEOCHPE@template?9parameter?9@ 00468a14     libvcruntime:undname.obj
 0002:00001a2c       ??_C@_0BF@LNLGBBNL@?$GAtemplate?9parameter?9@ 00468a2c     libvcruntime:undname.obj
 0002:00001a48       ??_C@_0O@KHGCOMHP@generic?9type?9@ 00468a48     libvcruntime:undname.obj
 0002:00001a58       ??_C@_0P@ODDENDLM@?$GAgeneric?9type?9@ 00468a58     libvcruntime:undname.obj
 0002:00001a6c       ??_C@_02OHHJMEON@?8?8@     00468a6c     libvcruntime:undname.obj
 0002:00001a70       ??_C@_0BN@IBLMMFAP@?$GAnon?9type?9template?9parameter@ 00468a70     libvcruntime:undname.obj
 0002:00001a94       ??_C@_03DLDNIBIK@?$CFlf@   00468a94     libvcruntime:undname.obj
 0002:00001a98       ??_C@_04OFALKAJ@?$DP?$DP_C@ 00468a98     libvcruntime:undname.obj
 0002:00001aa0       ??_C@_03KHICJKCI@?4?4?4@   00468aa0     libvcruntime:undname.obj
 0002:00001aa4       ??_C@_04HIBGFPH@NULL@      00468aa4     libvcruntime:undname.obj
 0002:00001aac       ??_C@_02DPKJAMEF@?$CFd@    00468aac     libvcruntime:undname.obj
 0002:00001ab0       ??_C@_0BK@IHCCFNEL@?$GAtemplate?9type?9parameter?9@ 00468ab0     libvcruntime:undname.obj
 0002:00001ad0       ??_C@_0BK@OFCNNNKO@?$GAgeneric?9class?9parameter?9@ 00468ad0     libvcruntime:undname.obj
 0002:00001af0       ??_C@_0BL@NGJBLFIL@?$GAgeneric?9method?9parameter?9@ 00468af0     libvcruntime:undname.obj
 0002:00001b10       ??_C@_07OHNGEDJK@nullptr@  00468b10     libvcruntime:undname.obj
 0002:00001b1c       ??_C@_06COJIGPIB@lambda@   00468b1c     libvcruntime:undname.obj
 0002:00001b24       ??_C@_04GKJNKENE@void@     00468b24     libvcruntime:undname.obj
 0002:00001b2c       ??_C@_0BE@EODMJLIF@?$GAtemplate?9parameter@ 00468b2c     libvcruntime:undname.obj
 0002:00001b44       ??_C@_03OPGICMGF@?$HN?8?5@ 00468b44     libvcruntime:undname.obj
 0002:00001b48       ??_C@_02IGFCGPIL@?$HN?8@   00468b48     libvcruntime:undname.obj
 0002:00001b4c       ??_C@_0N@CBHHHENL@?$GAvtordispex?$HL@ 00468b4c     libvcruntime:undname.obj
 0002:00001b5c       ??_C@_0L@GHPFDFH@?$GAvtordisp?$HL@ 00468b5c     libvcruntime:undname.obj
 0002:00001b6c       ??_C@_0L@HNGCOGAE@?$GAadjustor?$HL@ 00468b6c     libvcruntime:undname.obj
 0002:00001b7c       ??_C@_0CB@KJDOOODE@?$GAlocal?5static?5destructor?5helper@ 00468b7c     libvcruntime:undname.obj
 0002:00001ba4       ??_C@_0DB@ILEFOCIJ@?$GAtemplate?5static?5data?5member?5co@ 00468ba4     libvcruntime:undname.obj
 0002:00001be0       ??_C@_0DA@HGFJFBBE@?$GAtemplate?5static?5data?5member?5de@ 00468be0     libvcruntime:undname.obj
 0002:00001c1c       ??_C@_07PGOEDBHP@static?5@ 00468c1c     libvcruntime:undname.obj
 0002:00001c28       ??_C@_08NIEOINHE@virtual?5@ 00468c28     libvcruntime:undname.obj
 0002:00001c34       ??_C@_09LAPHOOG@private?3?5@ 00468c34     libvcruntime:undname.obj
 0002:00001c40       ??_C@_0M@GAIFPFIP@protected?3?5@ 00468c40     libvcruntime:undname.obj
 0002:00001c50       ??_C@_08GPDDCMKI@public?3?5@ 00468c50     libvcruntime:undname.obj
 0002:00001c5c       ??_C@_08KJLFOPNE@?$FLthunk?$FN?3@ 00468c5c     libvcruntime:undname.obj
 0002:00001c68       ??_C@_0M@DHNBOJMP@extern?5?$CCC?$CC?5@ 00468c68     libvcruntime:undname.obj
 0002:00001c78       ??_C@_02KCKGHPCA@?$CJ?5@   00468c78     libvcruntime:undname.obj
 0002:00001c7c       ??_C@_05CIHEBHNO@char?5@   00468c7c     libvcruntime:undname.obj
 0002:00001c84       ??_C@_06EHJMALKF@short?5@  00468c84     libvcruntime:undname.obj
 0002:00001c8c       ??_C@_04LAHKHJMA@int?5@    00468c8c     libvcruntime:undname.obj
 0002:00001c94       ??_C@_05CJIMAING@long?5@   00468c94     libvcruntime:undname.obj
 0002:00001c9c       ??_C@_09EBBEKKIH@unsigned?5@ 00468c9c     libvcruntime:undname.obj
 0002:00001ca8       ??_C@_05BEFAKPML@void?5@   00468ca8     libvcruntime:undname.obj
 0002:00001cb0       ??_C@_09GAIEOBLP@volatile?5@ 00468cb0     libvcruntime:undname.obj
 0002:00001cbc       ??_C@_08PABEKFH@volatile@  00468cbc     libvcruntime:undname.obj
 0002:00001cc8       ??_C@_0BA@LKIJLKPP@std?3?3nullptr_t?5@ 00468cc8     libvcruntime:undname.obj
 0002:00001cdc       ??_C@_0P@GCOCNKDM@std?3?3nullptr_t@ 00468cdc     libvcruntime:undname.obj
 0002:00001cf0       ??_C@_0L@EGPHHEKN@?$DMellipsis?$DO@ 00468cf0     libvcruntime:undname.obj
 0002:00001d00       ??_C@_04EENFHACM@?0?4?4?4@ 00468d00     libvcruntime:undname.obj
 0002:00001d08       ??_C@_0M@ELJOJFFH@?0?$DMellipsis?$DO@ 00468d08     libvcruntime:undname.obj
 0002:00001d18       ??_C@_09DNHFEOJI@?5noexcept@ 00468d18     libvcruntime:undname.obj
 0002:00001d24       ??_C@_03PBJBJNON@cpu@      00468d24     libvcruntime:undname.obj
 0002:00001d28       ??_C@_03DCBBJBAA@amp@      00468d28     libvcruntime:undname.obj
 0002:00001d2c       ??_C@_02KEGNLNML@?0?5@     00468d2c     libvcruntime:undname.obj
 0002:00001d30       ??_C@_04ENMBGAPA@char@     00468d30     libvcruntime:undname.obj
 0002:00001d38       ??_C@_05BFKKPKCG@short@    00468d38     libvcruntime:undname.obj
 0002:00001d40       ??_C@_03JBIPMCLC@int@      00468d40     libvcruntime:undname.obj
 0002:00001d44       ??_C@_04GOKPGOLB@long@     00468d44     libvcruntime:undname.obj
 0002:00001d4c       ??_C@_05KNFBNCOH@float@    00468d4c     libvcruntime:undname.obj
 0002:00001d54       ??_C@_06BNJCAIGJ@double@   00468d54     libvcruntime:undname.obj
 0002:00001d5c       ??_C@_04DDKJGDCM@bool@     00468d5c     libvcruntime:undname.obj
 0002:00001d64       ??_C@_06EBGKOKIG@__int8@   00468d64     libvcruntime:undname.obj
 0002:00001d6c       ??_C@_07ICFHOGAF@__int16@  00468d6c     libvcruntime:undname.obj
 0002:00001d78       ??_C@_07OFLPPHGP@__int32@  00468d78     libvcruntime:undname.obj
 0002:00001d84       ??_C@_07LFCOJCAC@__int64@  00468d84     libvcruntime:undname.obj
 0002:00001d90       ??_C@_08GAHOLHEO@__int128@ 00468d90     libvcruntime:undname.obj
 0002:00001d9c       ??_C@_09EEKGDCPH@?$DMunknown?$DO@ 00468d9c     libvcruntime:undname.obj
 0002:00001da8       ??_C@_07CFHGOPCN@char8_t@  00468da8     libvcruntime:undname.obj
 0002:00001db4       ??_C@_08HBIPOFJB@char16_t@ 00468db4     libvcruntime:undname.obj
 0002:00001dc0       ??_C@_08IECNCBKG@char32_t@ 00468dc0     libvcruntime:undname.obj
 0002:00001dcc       ??_C@_07CLGGIAMF@wchar_t@  00468dcc     libvcruntime:undname.obj
 0002:00001dd8       ??_C@_04HAPDLBFF@auto@     00468dd8     libvcruntime:undname.obj
 0002:00001de0       ??_C@_0P@LHCGKIGK@decltype?$CIauto?$CJ@ 00468de0     libvcruntime:undname.obj
 0002:00001df4       ??_C@_05PCNBGHCF@this?5@   00468df4     libvcruntime:undname.obj
 0002:00001dfc       ??_C@_06GCICPBLB@__w64?5@  00468dfc     libvcruntime:undname.obj
 0002:00001e04       ??_C@_07NFANNNEC@UNKNOWN@  00468e04     libvcruntime:undname.obj
 0002:00001e10       ??_C@_07EDHNAJHC@signed?5@ 00468e10     libvcruntime:undname.obj
 0002:00001e1c       ??_C@_05BNCCCJPP@const@    00468e1c     libvcruntime:undname.obj
 0002:00001e24       ??_C@_09EFNPDFFP@?5volatile@ 00468e24     libvcruntime:undname.obj
 0002:00001e30       ??_C@_0P@GCIFDJCJ@?$GAunknown?5ecsu?8@ 00468e30     libvcruntime:undname.obj
 0002:00001e44       ??_C@_06MOJHIBMG@union?5@  00468e44     libvcruntime:undname.obj
 0002:00001e4c       ??_C@_07DIBCDNGL@struct?5@ 00468e4c     libvcruntime:undname.obj
 0002:00001e58       ??_C@_06LJBABKPM@class?5@  00468e58     libvcruntime:undname.obj
 0002:00001e60       ??_C@_08KOFANOFK@coclass?5@ 00468e60     libvcruntime:undname.obj
 0002:00001e6c       ??_C@_0N@DLIEFKNA@cointerface?5@ 00468e6c     libvcruntime:undname.obj
 0002:00001e7c       ??_C@_05LJGMCFOG@enum?5@   00468e7c     libvcruntime:undname.obj
 0002:00001e84       ??_C@_06LIJLOJAG@const?5@  00468e84     libvcruntime:undname.obj
 0002:00001e8c       ??_C@_02KJPKDIBN@?$CG?5@   00468e8c     libvcruntime:undname.obj
 0002:00001e90       ??_C@_03PCKGMOPB@?$CG?$CG?5@ 00468e90     libvcruntime:undname.obj
 0002:00001e94       ??_C@_0M@EALIELKG@cli?3?3array?$DM@ 00468e94     libvcruntime:undname.obj
 0002:00001ea4       ??_C@_0O@GKABPPIF@cli?3?3pin_ptr?$DM@ 00468ea4     libvcruntime:undname.obj
 0002:00001eb4       ??_C@_02GOGNNPBN@?$CJ?$FL@ 00468eb4     libvcruntime:undname.obj
 0002:00001eb8       ??_C@_06EEGAIFAK@?$HLflat?$HN@ 00468eb8     libvcruntime:undname.obj
 0002:00001ec0       ??_C@_05JIBOFOHK@?$HLfor?5@ 00468ec0     libvcruntime:undname.obj
 0002:00001ec8       ??_C@_02MDINNEEG@s?5@      00468ec8     libvcruntime:undname.obj
 0002:00001ed0       ??_7DNameNode@@6B@         00468ed0     libvcruntime:undname.obj
 0002:00001ee8       ??_7charNode@@6B@          00468ee8     libvcruntime:undname.obj
 0002:00001f00       ??_7pcharNode@@6B@         00468f00     libvcruntime:undname.obj
 0002:00001f18       ??_7pDNameNode@@6B@        00468f18     libvcruntime:undname.obj
 0002:00001f30       ??_7DNameStatusNode@@6B@   00468f30     libvcruntime:undname.obj
 0002:00001f48       ??_7pairNode@@6B@          00468f48     libvcruntime:undname.obj
 0002:00002094       ??_C@_04OKOHEJBO@?5?$DP?$DP?5@ 00469094     libvcruntime:undname.obj
 0002:0000209c       ?nodes@?1??make@DNameStatusNode@@SAPBV2@W4DNameStatus@@@Z@4QBV2@B 0046909c     libvcruntime:undname.obj
 0002:000020e8       ??_C@_1DM@KHCHBNEB@?$AAa?$AAp?$AAi?$AA?9?$AAm?$AAs?$AA?9?$AAw?$AAi?$AAn?$AA?9?$AAc?$AAo?$AAr?$AAe@ 004690e8     libvcruntime:winapi_downlevel.obj
 0002:00002130       ??_C@_1DK@LPPGFMPP@?$AAa?$AAp?$AAi?$AA?9?$AAm?$AAs?$AA?9?$AAw?$AAi?$AAn?$AA?9?$AAc?$AAo?$AAr?$AAe@ 00469130     libvcruntime:winapi_downlevel.obj
 0002:00002178       ??_C@_1BC@GDMECMAK@?$AAk?$AAe?$AAr?$AAn?$AAe?$AAl?$AA3?$AA2@ 00469178     libvcruntime:winapi_downlevel.obj
 0002:00002190       ??_C@_1BA@PFFKHIOG@?$AAa?$AAp?$AAi?$AA?9?$AAm?$AAs?$AA?9@ 00469190     libvcruntime:winapi_downlevel.obj
 0002:000021b0       ??_C@_08KNHFBNJ@FlsAlloc@  004691b0     libvcruntime:winapi_downlevel.obj
 0002:000021c8       ??_C@_07PEJMOBNF@FlsFree@  004691c8     libvcruntime:winapi_downlevel.obj
 0002:000021e0       ??_C@_0M@GDNOONDI@FlsGetValue@ 004691e0     libvcruntime:winapi_downlevel.obj
 0002:000021fc       ??_C@_0M@JCPCPOEF@FlsSetValue@ 004691fc     libvcruntime:winapi_downlevel.obj
 0002:00002218       ??_C@_0BM@HCFOFFN@InitializeCriticalSectionEx@ 00469218     libvcruntime:winapi_downlevel.obj
 0002:00002240       ??_7exception@std@@6B@     00469240     libvcruntime:frame.obj
 0002:0000224c       ??_C@_0BC@EOODALEL@Unknown?5exception@ 0046924c     libvcruntime:frame.obj
 0002:00002268       ??_7bad_exception@std@@6B@ 00469268     libvcruntime:frame.obj
 0002:00002274       ??_C@_0O@DPKOEFFH@bad?5exception@ 00469274     libvcruntime:frame.obj
 0002:00002284       __Fenv1                    00469284     libucrt:output.obj
 0002:00002290       ?standard_lookup_table_spectre@__crt_stdio_output@@3V?$spectre_mitigated_lookup_table@Ustate_transition_pair@__crt_stdio_output@@$0IA@@1@B 00469290     libucrt:output.obj
 0002:000023c8       ?format_validation_lookup_table_spectre@__crt_stdio_output@@3V?$spectre_mitigated_lookup_table@Ustate_transition_pair@__crt_stdio_output@@$0IA@@1@B 004693c8     libucrt:output.obj
 0002:000024fc       ??_C@_1O@CEDCILHN@?$AA?$CI?$AAn?$AAu?$AAl?$AAl?$AA?$CJ@ 004694fc     libucrt:output.obj
 0002:0000250c       ??_C@_06OJHGLDPL@?$CInull?$CJ@ 0046950c     libucrt:output.obj
 0002:00002518       ___acrt_exception_action_table 00469518     libucrt:exception_filter.obj
 0002:000025c4       ___acrt_signal_action_table_count 004695c4     libucrt:exception_filter.obj
 0002:000025c8       ___acrt_signal_action_table_size 004695c8     libucrt:exception_filter.obj
 0002:000025cc       ___acrt_signal_action_first_fpe_index 004695cc     libucrt:exception_filter.obj
 0002:000025d0       ___acrt_signal_action_fpe_count 004695d0     libucrt:exception_filter.obj
 0002:000025d4       ??_C@_1DE@JNGNBFGO@?$AAR?$AAu?$AAn?$AAt?$AAi?$AAm?$AAe?$AA?5?$AAE?$AAr?$AAr?$AAo?$AAr?$AA?$CB?$AA?6@ 004695d4     libucrt:report_runtime_error.obj
 0002:00002614       ??_C@_1CO@EAEJAADC@?$AA?$DM?$AAp?$AAr?$AAo?$AAg?$AAr?$AAa?$AAm?$AA?5?$AAn?$AAa?$AAm?$AAe?$AA?5?$AAu@ 00469614     libucrt:report_runtime_error.obj
 0002:0000264c       ??_C@_17LGKOMLJ@?$AA?4?$AA?4?$AA?4@ 0046964c     libucrt:report_runtime_error.obj
 0002:00002658       ??_C@_15IABLJNFO@?$AA?6?$AA?6@ 00469658     libucrt:report_runtime_error.obj
 0002:00002660       ??_C@_1EK@MBDPDCGA@?$AAM?$AAi?$AAc?$AAr?$AAo?$AAs?$AAo?$AAf?$AAt?$AA?5?$AAV?$AAi?$AAs?$AAu?$AAa@ 00469660     libucrt:report_runtime_error.obj
 0002:000026b8       _RtlNtPathSeperatorString  004696b8     libucrt:exit.obj
 0002:000026c4       ??_C@_13FPGAJAPJ@?$AA?2@   004696c4     libucrt:exit.obj
 0002:000026c8       _RtlDosPathSeperatorsString 004696c8     libucrt:exit.obj
 0002:000026d4       ??_C@_15MNCACJLI@?$AA?2?$AA?1@ 004696d4     libucrt:exit.obj
 0002:000026dc       _RtlAlternateDosPathSeperatorString 004696dc     libucrt:exit.obj
 0002:000026e8       ??_C@_13CGOKJPIL@?$AA?1@   004696e8     libucrt:exit.obj
 0002:000026ec       ??_C@_1BI@BGOHAHKC@?$AAm?$AAs?$AAc?$AAo?$AAr?$AAe?$AAe?$AA?4?$AAd?$AAl?$AAl@ 004696ec     libucrt:exit.obj
 0002:00002708       ??_C@_0P@MIGLKIOC@CorExitProcess@ 00469708     libucrt:exit.obj
 0002:000027b8       ___lc_category             004697b8     libucrt:wsetlocale.obj
 0002:00002810       ??_C@_1O@GIFLHMA@?$AAL?$AAC?$AA_?$AAA?$AAL?$AAL@ 00469810     libucrt:wsetlocale.obj
 0002:00002820       ??_C@_1BG@PPOMIBNJ@?$AAL?$AAC?$AA_?$AAC?$AAO?$AAL?$AAL?$AAA?$AAT?$AAE@ 00469820     libucrt:wsetlocale.obj
 0002:0000283c       ??_C@_1BC@FFJGAPJM@?$AAL?$AAC?$AA_?$AAC?$AAT?$AAY?$AAP?$AAE@ 0046983c     libucrt:wsetlocale.obj
 0002:00002854       ??_C@_1BI@PCKFNJFB@?$AAL?$AAC?$AA_?$AAM?$AAO?$AAN?$AAE?$AAT?$AAA?$AAR?$AAY@ 00469854     libucrt:wsetlocale.obj
 0002:00002870       ??_C@_1BG@ENIEDKID@?$AAL?$AAC?$AA_?$AAN?$AAU?$AAM?$AAE?$AAR?$AAI?$AAC@ 00469870     libucrt:wsetlocale.obj
 0002:0000288c       ??_C@_1BA@HAAOMIIG@?$AAL?$AAC?$AA_?$AAT?$AAI?$AAM?$AAE@ 0046988c     libucrt:wsetlocale.obj
 0002:000028a0       ??_C@_15NBPDDFIP@?$AA?$DN?$AA?$DL@ 004698a0     libucrt:wsetlocale.obj
 0002:000028a8       ??_C@_13PJJBFPED@?$AA?$DL@ 004698a8     libucrt:wsetlocale.obj
 0002:000028ac       ??_C@_13NMPKAAJP@?$AA?$DN@ 004698ac     libucrt:wsetlocale.obj
 0002:000028b0       ??_C@_13IMODFHAA@?$AA?9@   004698b0     libucrt:wsetlocale.obj
 0002:000028b4       ??_C@_17EFJLDFDO@?$AA?9?$AA_?$AA?4@ 004698b4     libucrt:wsetlocale.obj
 0002:000028c0       ??_C@_13FHBKNHDA@?$AAC@    004698c0     libucrt:wsetlocale.obj
 0002:000028c4       ??_C@_17MBJJLFDM@?$AA_?$AA?4?$AA?0@ 004698c4     libucrt:wsetlocale.obj
 0002:000028d0       ??_C@_13ENNFDPBH@?$AA_@    004698d0     libucrt:wsetlocale.obj
 0002:000028d4       ??_C@_13JOFGPIOO@?$AA?4@   004698d4     libucrt:wsetlocale.obj
 0002:00002b88       ??_C@_1EA@JGEFHKEI@?$AAa?$AAp?$AAi?$AA?9?$AAm?$AAs?$AA?9?$AAw?$AAi?$AAn?$AA?9?$AAc?$AAo?$AAr?$AAe@ 00469b88     libucrt:winapi_thunks.obj
 0002:00002bd4       ??_C@_1DI@IJCEHOCB@?$AAa?$AAp?$AAi?$AA?9?$AAm?$AAs?$AA?9?$AAw?$AAi?$AAn?$AA?9?$AAc?$AAo?$AAr?$AAe@ 00469bd4     libucrt:winapi_thunks.obj
 0002:00002c18       ??_C@_1EI@MPIAOHOC@?$AAa?$AAp?$AAi?$AA?9?$AAm?$AAs?$AA?9?$AAw?$AAi?$AAn?$AA?9?$AAc?$AAo?$AAr?$AAe@ 00469c18     libucrt:winapi_thunks.obj
 0002:00002c70       ??_C@_1FK@FPHCKFIE@?$AAa?$AAp?$AAi?$AA?9?$AAm?$AAs?$AA?9?$AAw?$AAi?$AAn?$AA?9?$AAc?$AAo?$AAr?$AAe@ 00469c70     libucrt:winapi_thunks.obj
 0002:00002ce0       ??_C@_1EM@DILCGIIO@?$AAa?$AAp?$AAi?$AA?9?$AAm?$AAs?$AA?9?$AAw?$AAi?$AAn?$AA?9?$AAc?$AAo?$AAr?$AAe@ 00469ce0     libucrt:winapi_thunks.obj
 0002:00002d3c       ??_C@_1DM@LNCGDDPN@?$AAa?$AAp?$AAi?$AA?9?$AAm?$AAs?$AA?9?$AAw?$AAi?$AAn?$AA?9?$AAc?$AAo?$AAr?$AAe@ 00469d3c     libucrt:winapi_thunks.obj
 0002:00002d84       ??_C@_1DO@FPAPJEMD@?$AAa?$AAp?$AAi?$AA?9?$AAm?$AAs?$AA?9?$AAw?$AAi?$AAn?$AA?9?$AAc?$AAo?$AAr?$AAe@ 00469d84     libucrt:winapi_thunks.obj
 0002:00002dd0       ??_C@_1DK@NDHNAHIO@?$AAa?$AAp?$AAi?$AA?9?$AAm?$AAs?$AA?9?$AAw?$AAi?$AAn?$AA?9?$AAc?$AAo?$AAr?$AAe@ 00469dd0     libucrt:winapi_thunks.obj
 0002:00002e18       ??_C@_1DM@KGHDGBCM@?$AAa?$AAp?$AAi?$AA?9?$AAm?$AAs?$AA?9?$AAw?$AAi?$AAn?$AA?9?$AAc?$AAo?$AAr?$AAe@ 00469e18     libucrt:winapi_thunks.obj
 0002:00002e60       ??_C@_1EO@IJIOEFOH@?$AAa?$AAp?$AAi?$AA?9?$AAm?$AAs?$AA?9?$AAw?$AAi?$AAn?$AA?9?$AAr?$AAt?$AAc?$AAo@ 00469e60     libucrt:winapi_thunks.obj
 0002:00002ec0       ??_C@_1FG@HHGEKANL@?$AAa?$AAp?$AAi?$AA?9?$AAm?$AAs?$AA?9?$AAw?$AAi?$AAn?$AA?9?$AAs?$AAe?$AAc?$AAu@ 00469ec0     libucrt:winapi_thunks.obj
 0002:00002f28       ??_C@_1EG@DBIOJECG@?$AAe?$AAx?$AAt?$AA?9?$AAm?$AAs?$AA?9?$AAw?$AAi?$AAn?$AA?9?$AAn?$AAt?$AAu?$AAs@ 00469f28     libucrt:winapi_thunks.obj
 0002:00002f80       ??_C@_1EO@FIHMJCLF@?$AAe?$AAx?$AAt?$AA?9?$AAm?$AAs?$AA?9?$AAw?$AAi?$AAn?$AA?9?$AAn?$AAt?$AAu?$AAs@ 00469f80     libucrt:winapi_thunks.obj
 0002:00002fe0       ??_C@_1BC@DNHGCMLG@?$AAa?$AAd?$AAv?$AAa?$AAp?$AAi?$AA3?$AA2@ 00469fe0     libucrt:winapi_thunks.obj
 0002:00002ff8       ??_C@_1M@OAIMIKLP@?$AAn?$AAt?$AAd?$AAl?$AAl@ 00469ff8     libucrt:winapi_thunks.obj
 0002:00003008       ??_C@_1EG@DPGNFKGC@?$AAa?$AAp?$AAi?$AA?9?$AAm?$AAs?$AA?9?$AAw?$AAi?$AAn?$AA?9?$AAa?$AAp?$AAp?$AAm@ 0046a008     libucrt:winapi_thunks.obj
 0002:0000305c       ??_C@_1O@BCCLBEOE@?$AAu?$AAs?$AAe?$AAr?$AA3?$AA2@ 0046a05c     libucrt:winapi_thunks.obj
 0002:0000306c       ??_C@_1DM@BPJLHKCE@?$AAa?$AAp?$AAi?$AA?9?$AAm?$AAs?$AA?9?$AAw?$AAi?$AAn?$AA?9?$AAc?$AAo?$AAr?$AAe@ 0046a06c     libucrt:winapi_thunks.obj
 0002:000030b4       ??_C@_1BA@IAIFMGEF@?$AAe?$AAx?$AAt?$AA?9?$AAm?$AAs?$AA?9@ 0046a0b4     libucrt:winapi_thunks.obj
 0002:000030cc       ??_C@_0BA@FHFNEAED@AreFileApisANSI@ 0046a0cc     libucrt:winapi_thunks.obj
 0002:000030ec       ??_C@_0BA@IHGNDAEB@CompareStringEx@ 0046a0ec     libucrt:winapi_thunks.obj
 0002:0000310c       ??_C@_0BE@LJANKFHF@EnumSystemLocalesEx@ 0046a10c     libucrt:winapi_thunks.obj
 0002:00003130       ??_C@_0BA@HNOPNCHB@GetActiveWindow@ 0046a130     libucrt:winapi_thunks.obj
 0002:00003150       ??_C@_0BA@EPCJIIPD@GetDateFormatEx@ 0046a150     libucrt:winapi_thunks.obj
 0002:00003170       ??_C@_0BJ@DIBIJBHA@GetEnabledXStateFeatures@ 0046a170     libucrt:winapi_thunks.obj
 0002:0000319c       ??_C@_0BD@HHGDFDBJ@GetLastActivePopup@ 0046a19c     libucrt:winapi_thunks.obj
 0002:000031c0       ??_C@_0BA@ONOKGCMP@GetLocaleInfoEx@ 0046a1c0     libucrt:winapi_thunks.obj
 0002:000031e0       ??_C@_0BI@DFKBFLJE@GetProcessWindowStation@ 0046a1e0     libucrt:winapi_thunks.obj
 0002:00003200       ??_C@_0BP@FPNJPEJC@GetSystemTimePreciseAsFileTime@ 0046a200     libucrt:winapi_thunks.obj
 0002:00003234       ??_C@_0BA@CIJJKCJJ@GetTimeFormatEx@ 0046a234     libucrt:winapi_thunks.obj
 0002:00003254       ??_C@_0BJ@PBCCBIPI@GetUserDefaultLocaleName@ 0046a254     libucrt:winapi_thunks.obj
 0002:00003280       ??_C@_0BK@DEKFELLI@GetUserObjectInformationW@ 0046a280     libucrt:winapi_thunks.obj
 0002:000032ac       ??_C@_0BG@IKLDMBLM@GetXStateFeaturesMask@ 0046a2ac     libucrt:winapi_thunks.obj
 0002:000032e0       ??_C@_0BC@CELBKLLA@IsValidLocaleName@ 0046a2e0     libucrt:winapi_thunks.obj
 0002:00003304       ??_C@_0O@KKBNKAPF@LCMapStringEx@ 0046a304     libucrt:winapi_thunks.obj
 0002:00003320       ??_C@_0BB@CDHDDLLP@LCIDToLocaleName@ 0046a320     libucrt:winapi_thunks.obj
 0002:00003340       ??_C@_0BB@HBDEELFH@LocaleNameToLCID@ 0046a340     libucrt:winapi_thunks.obj
 0002:00003360       ??_C@_0BE@KINNKFDA@LocateXStateFeature@ 0046a360     libucrt:winapi_thunks.obj
 0002:00003384       ??_C@_0M@CHKKJDAI@MessageBoxA@ 0046a384     libucrt:winapi_thunks.obj
 0002:000033a0       ??_C@_0M@DLDCCGNP@MessageBoxW@ 0046a3a0     libucrt:winapi_thunks.obj
 0002:000033b4       ??_C@_0N@PPOMPGGK@RoInitialize@ 0046a3b4     libucrt:winapi_thunks.obj
 0002:000033c8       ??_C@_0P@LLFHBIJD@RoUninitialize@ 0046a3c8     libucrt:winapi_thunks.obj
 0002:000033e0       ??_C@_0CF@OJOFEIGO@AppPolicyGetProcessTerminationM@ 0046a3e0     libucrt:winapi_thunks.obj
 0002:00003410       ??_C@_0CF@NNDFDCOC@AppPolicyGetThreadInitializatio@ 0046a410     libucrt:winapi_thunks.obj
 0002:00003440       ??_C@_0CE@OICFMIKE@AppPolicyGetShowDeveloperDiagno@ 0046a440     libucrt:winapi_thunks.obj
 0002:00003470       ??_C@_0BL@ODDJNEDA@AppPolicyGetWindowingModel@ 0046a470     libucrt:winapi_thunks.obj
 0002:0000349c       ??_C@_0BI@BKLFFAPO@SetThreadStackGuarantee@ 0046a49c     libucrt:winapi_thunks.obj
 0002:000034c4       ??_C@_0BC@JEAENNKH@SystemFunction036@ 0046a4c4     libucrt:winapi_thunks.obj
 0002:0000355c       ??_C@_03OEIAHPBN@INF@      0046a55c     libucrt:cvt.obj
 0002:00003560       ??_C@_03OJHLLCGB@inf@      0046a560     libucrt:cvt.obj
 0002:00003564       ??_C@_03LKNCIKJB@NAN@      0046a564     libucrt:cvt.obj
 0002:00003568       ??_C@_03LHCJEHON@nan@      0046a568     libucrt:cvt.obj
 0002:0000356c       ??_C@_09OFJJIMPC@NAN?$CISNAN?$CJ@ 0046a56c     libucrt:cvt.obj
 0002:00003578       ??_C@_09IPFBKMDL@nan?$CIsnan?$CJ@ 0046a578     libucrt:cvt.obj
 0002:00003584       ??_C@_08IKHNHAJ@NAN?$CIIND?$CJ@ 0046a584     libucrt:cvt.obj
 0002:00003590       ??_C@_08OFCDMILK@nan?$CIind?$CJ@ 0046a590     libucrt:cvt.obj
 0002:0000359c       ??_C@_05KLBDPFGC@e?$CL000@ 0046a59c     libucrt:cvt.obj
 0002:000035a8       ___lc_time_c               0046a5a8     libucrt:nlsdata.obj
 0002:00003754       ??_C@_03KOEHGMDN@Sun@      0046a754     libucrt:nlsdata.obj
 0002:00003758       ??_C@_03PDAGKDH@Mon@       0046a758     libucrt:nlsdata.obj
 0002:0000375c       ??_C@_03NAGEINEP@Tue@      0046a75c     libucrt:nlsdata.obj
 0002:00003760       ??_C@_03MHOMLAJA@Wed@      0046a760     libucrt:nlsdata.obj
 0002:00003764       ??_C@_03IOFIKPDN@Thu@      0046a764     libucrt:nlsdata.obj
 0002:00003768       ??_C@_03IDIOELNC@Fri@      0046a768     libucrt:nlsdata.obj
 0002:0000376c       ??_C@_03FEFJNEK@Sat@       0046a76c     libucrt:nlsdata.obj
 0002:00003770       ??_C@_06OOPIFAJ@Sunday@    0046a770     libucrt:nlsdata.obj
 0002:00003778       ??_C@_06JLEDEDGH@Monday@   0046a778     libucrt:nlsdata.obj
 0002:00003780       ??_C@_07BAAGCFCM@Tuesday@  0046a780     libucrt:nlsdata.obj
 0002:0000378c       ??_C@_09DLIGFAKA@Wednesday@ 0046a78c     libucrt:nlsdata.obj
 0002:00003798       ??_C@_08HACCIKIA@Thursday@ 0046a798     libucrt:nlsdata.obj
 0002:000037a4       ??_C@_06JECMNKMI@Friday@   0046a7a4     libucrt:nlsdata.obj
 0002:000037ac       ??_C@_08INBOOONO@Saturday@ 0046a7ac     libucrt:nlsdata.obj
 0002:000037b8       ??_C@_03JIHJHPIE@Jan@      0046a7b8     libucrt:nlsdata.obj
 0002:000037bc       ??_C@_03HJBDCHOM@Feb@      0046a7bc     libucrt:nlsdata.obj
 0002:000037c0       ??_C@_03ODNJBKGA@Mar@      0046a7c0     libucrt:nlsdata.obj
 0002:000037c4       ??_C@_03LEOLGMJP@Apr@      0046a7c4     libucrt:nlsdata.obj
 0002:000037c8       ??_C@_03CNMDKL@May@        0046a7c8     libucrt:nlsdata.obj
 0002:000037cc       ??_C@_03IDFGHECI@Jun@      0046a7cc     libucrt:nlsdata.obj
 0002:000037d0       ??_C@_03LBGABGKK@Jul@      0046a7d0     libucrt:nlsdata.obj
 0002:000037d4       ??_C@_03IFJFEIGA@Aug@      0046a7d4     libucrt:nlsdata.obj
 0002:000037d8       ??_C@_03GGCAPAJC@Sep@      0046a7d8     libucrt:nlsdata.obj
 0002:000037dc       ??_C@_03BMAOKBAD@Oct@      0046a7dc     libucrt:nlsdata.obj
 0002:000037e0       ??_C@_03JPJOFNIA@Nov@      0046a7e0     libucrt:nlsdata.obj
 0002:000037e4       ??_C@_03MKABNOCG@Dec@      0046a7e4     libucrt:nlsdata.obj
 0002:000037e8       ??_C@_07CGJPFGJA@January@  0046a7e8     libucrt:nlsdata.obj
 0002:000037f4       ??_C@_08GNJGEPFN@February@ 0046a7f4     libucrt:nlsdata.obj
 0002:00003800       ??_C@_05HPCKOFNC@March@    0046a800     libucrt:nlsdata.obj
 0002:00003808       ??_C@_05DMJDNLEJ@April@    0046a808     libucrt:nlsdata.obj
 0002:00003810       ??_C@_04CNLMGBGM@June@     0046a810     libucrt:nlsdata.obj
 0002:00003818       ??_C@_04MIEPOIFP@July@     0046a818     libucrt:nlsdata.obj
 0002:00003820       ??_C@_06LBBHFDDG@August@   0046a820     libucrt:nlsdata.obj
 0002:00003828       ??_C@_09BHHEALKD@September@ 0046a828     libucrt:nlsdata.obj
 0002:00003834       ??_C@_07JJNFCEND@October@  0046a834     libucrt:nlsdata.obj
 0002:00003840       ??_C@_08HCHEGEOA@November@ 0046a840     libucrt:nlsdata.obj
 0002:0000384c       ??_C@_08EDHMEBNP@December@ 0046a84c     libucrt:nlsdata.obj
 0002:00003858       ??_C@_02DEDBPAFC@AM@       0046a858     libucrt:nlsdata.obj
 0002:0000385c       ??_C@_02CJNFDJBF@PM@       0046a85c     libucrt:nlsdata.obj
 0002:00003860       ??_C@_08BPBNCDIB@MM?1dd?1yy@ 0046a860     libucrt:nlsdata.obj
 0002:0000386c       ??_C@_0BE@CKGJFCPC@dddd?0?5MMMM?5dd?0?5yyyy@ 0046a86c     libucrt:nlsdata.obj
 0002:00003884       ??_C@_08JCCMCCIL@HH?3mm?3ss@ 0046a884     libucrt:nlsdata.obj
 0002:00003890       ??_C@_17MBGCMIPB@?$AAS?$AAu?$AAn@ 0046a890     libucrt:nlsdata.obj
 0002:0000389c       ??_C@_17KBOMKBF@?$AAM?$AAo?$AAn@ 0046a89c     libucrt:nlsdata.obj
 0002:000038a8       ??_C@_17BMKGEGOJ@?$AAT?$AAu?$AAe@ 0046a8a8     libucrt:nlsdata.obj
 0002:000038b4       ??_C@_17CJEDCEPE@?$AAW?$AAe?$AAd@ 0046a8b4     libucrt:nlsdata.obj
 0002:000038c0       ??_C@_17PDPHAADD@?$AAT?$AAh?$AAu@ 0046a8c0     libucrt:nlsdata.obj
 0002:000038cc       ??_C@_17HFOLPPLP@?$AAF?$AAr?$AAi@ 0046a8cc     libucrt:nlsdata.obj
 0002:000038d8       ??_C@_17GGIBDPIH@?$AAS?$AAa?$AAt@ 0046a8d8     libucrt:nlsdata.obj
 0002:000038e4       ??_C@_1O@IHNHDHPB@?$AAS?$AAu?$AAn?$AAd?$AAa?$AAy@ 0046a8e4     libucrt:nlsdata.obj
 0002:000038f4       ??_C@_1O@MMNBFLIA@?$AAM?$AAo?$AAn?$AAd?$AAa?$AAy@ 0046a8f4     libucrt:nlsdata.obj
 0002:00003904       ??_C@_1BA@ENFBFFEK@?$AAT?$AAu?$AAe?$AAs?$AAd?$AAa?$AAy@ 0046a904     libucrt:nlsdata.obj
 0002:00003918       ??_C@_1BE@EBOGMDOH@?$AAW?$AAe?$AAd?$AAn?$AAe?$AAs?$AAd?$AAa?$AAy@ 0046a918     libucrt:nlsdata.obj
 0002:00003930       ??_C@_1BC@HHMNLIHE@?$AAT?$AAh?$AAu?$AAr?$AAs?$AAd?$AAa?$AAy@ 0046a930     libucrt:nlsdata.obj
 0002:00003948       ??_C@_1O@PDICJHAG@?$AAF?$AAr?$AAi?$AAd?$AAa?$AAy@ 0046a948     libucrt:nlsdata.obj
 0002:00003958       ??_C@_1BC@ENMNNPAJ@?$AAS?$AAa?$AAt?$AAu?$AAr?$AAd?$AAa?$AAy@ 0046a958     libucrt:nlsdata.obj
 0002:00003970       ??_C@_17DKNBKCHM@?$AAJ?$AAa?$AAn@ 0046a970     libucrt:nlsdata.obj
 0002:0000397c       ??_C@_17LMDJEKJN@?$AAF?$AAe?$AAb@ 0046a97c     libucrt:nlsdata.obj
 0002:00003988       ??_C@_17CKNLEDEC@?$AAM?$AAa?$AAr@ 0046a988     libucrt:nlsdata.obj
 0002:00003994       ??_C@_17LFPOIHDD@?$AAA?$AAp?$AAr@ 0046a994     libucrt:nlsdata.obj
 0002:000039a0       ??_C@_17PNNKMEED@?$AAM?$AAa?$AAy@ 0046a9a0     libucrt:nlsdata.obj
 0002:000039ac       ??_C@_17KCJGOCPB@?$AAJ?$AAu?$AAn@ 0046a9ac     libucrt:nlsdata.obj
 0002:000039b8       ??_C@_17IJPCKHK@?$AAJ?$AAu?$AAl@ 0046a9b8     libucrt:nlsdata.obj
 0002:000039c4       ??_C@_17ICPELBCN@?$AAA?$AAu?$AAg@ 0046a9c4     libucrt:nlsdata.obj
 0002:000039d0       ??_C@_17HCHCOKMG@?$AAS?$AAe?$AAp@ 0046a9d0     libucrt:nlsdata.obj
 0002:000039dc       ??_C@_17FNLKOI@?$AAO?$AAc?$AAt@ 0046a9dc     libucrt:nlsdata.obj
 0002:000039e8       ??_C@_17BBDMLCIG@?$AAN?$AAo?$AAv@ 0046a9e8     libucrt:nlsdata.obj
 0002:000039f4       ??_C@_17EGKACKIF@?$AAD?$AAe?$AAc@ 0046a9f4     libucrt:nlsdata.obj
 0002:00003a00       ??_C@_1BA@EFMEIEBA@?$AAJ?$AAa?$AAn?$AAu?$AAa?$AAr?$AAy@ 0046aa00     libucrt:nlsdata.obj
 0002:00003a14       ??_C@_1BC@JGDDFFAM@?$AAF?$AAe?$AAb?$AAr?$AAu?$AAa?$AAr?$AAy@ 0046aa14     libucrt:nlsdata.obj
 0002:00003a2c       ??_C@_1M@IKEENEDF@?$AAM?$AAa?$AAr?$AAc?$AAh@ 0046aa2c     libucrt:nlsdata.obj
 0002:00003a3c       ??_C@_1M@GJNLMHFD@?$AAA?$AAp?$AAr?$AAi?$AAl@ 0046aa3c     libucrt:nlsdata.obj
 0002:00003a4c       ??_C@_19EPFLPGAP@?$AAJ?$AAu?$AAn?$AAe@ 0046aa4c     libucrt:nlsdata.obj
 0002:00003a58       ??_C@_19BIFMLPCD@?$AAJ?$AAu?$AAl?$AAy@ 0046aa58     libucrt:nlsdata.obj
 0002:00003a64       ??_C@_1O@PAHLKOAC@?$AAA?$AAu?$AAg?$AAu?$AAs?$AAt@ 0046aa64     libucrt:nlsdata.obj
 0002:00003a74       ??_C@_1BE@DKAAMBJL@?$AAS?$AAe?$AAp?$AAt?$AAe?$AAm?$AAb?$AAe?$AAr@ 0046aa74     libucrt:nlsdata.obj
 0002:00003a8c       ??_C@_1BA@EPANDLNG@?$AAO?$AAc?$AAt?$AAo?$AAb?$AAe?$AAr@ 0046aa8c     libucrt:nlsdata.obj
 0002:00003aa0       ??_C@_1BC@BGLIFPF@?$AAN?$AAo?$AAv?$AAe?$AAm?$AAb?$AAe?$AAr@ 0046aaa0     libucrt:nlsdata.obj
 0002:00003ab8       ??_C@_1BC@FEMKIFH@?$AAD?$AAe?$AAc?$AAe?$AAm?$AAb?$AAe?$AAr@ 0046aab8     libucrt:nlsdata.obj
 0002:00003ad0       ??_C@_15ODEHAHHF@?$AAA?$AAM@ 0046aad0     libucrt:nlsdata.obj
 0002:00003ad8       ??_C@_15CLMNNGEL@?$AAP?$AAM@ 0046aad8     libucrt:nlsdata.obj
 0002:00003ae0       ??_C@_1BC@IEBCMHCM@?$AAM?$AAM?$AA?1?$AAd?$AAd?$AA?1?$AAy?$AAy@ 0046aae0     libucrt:nlsdata.obj
 0002:00003af8       ??_C@_1CI@KNAKOEBC@?$AAd?$AAd?$AAd?$AAd?$AA?0?$AA?5?$AAM?$AAM?$AAM?$AAM?$AA?5?$AAd?$AAd?$AA?0?$AA?5@ 0046aaf8     libucrt:nlsdata.obj
 0002:00003b28       ??_C@_1BC@GDGBMEMK@?$AAH?$AAH?$AA?3?$AAm?$AAm?$AA?3?$AAs?$AAs@ 0046ab28     libucrt:nlsdata.obj
 0002:00003b40       ??_C@_1M@BMHNFIME@?$AAe?$AAn?$AA?9?$AAU?$AAS@ 0046ab40     libucrt:nlsdata.obj
 0002:00003b64       ??_C@_1M@HPNHIDJI@?$AAj?$AAa?$AA?9?$AAJ?$AAP@ 0046ab64     libucrt:mbctype.obj
 0002:00003b74       ??_C@_1M@BIBDDEMK@?$AAz?$AAh?$AA?9?$AAC?$AAN@ 0046ab74     libucrt:mbctype.obj
 0002:00003b84       ??_C@_1M@JLOOOEGK@?$AAk?$AAo?$AA?9?$AAK?$AAR@ 0046ab84     libucrt:mbctype.obj
 0002:00003b94       ??_C@_1M@CLNBBOPM@?$AAz?$AAh?$AA?9?$AAT?$AAW@ 0046ab94     libucrt:mbctype.obj
 0002:00003ba8       ___newctype                0046aba8     libucrt:ctype.obj
 0002:00003f48       ___newclmap                0046af48     libucrt:ctype.obj
 0002:00004118       ___newcumap                0046b118     libucrt:ctype.obj
 0002:000042e8       __wctype                   0046b2e8     libucrt:ctype.obj
 0002:00004558       ___acrt_rg_language        0046b558     libucrt:get_qualified_locale.obj
 0002:00004900       ___acrt_rg_language_count  0046b900     libucrt:get_qualified_locale.obj
 0002:00004908       ___acrt_rg_country         0046b908     libucrt:get_qualified_locale.obj
 0002:00004a54       ___acrt_rg_country_count   0046ba54     libucrt:get_qualified_locale.obj
 0002:00004a58       ??_C@_1BC@LLOKLNP@?$AAa?$AAm?$AAe?$AAr?$AAi?$AAc?$AAa?$AAn@ 0046ba58     libucrt:get_qualified_locale.obj
 0002:00004a70       ??_C@_1CC@HEIGCDGG@?$AAa?$AAm?$AAe?$AAr?$AAi?$AAc?$AAa?$AAn?$AA?5?$AAe?$AAn?$AAg?$AAl?$AAi?$AAs@ 0046ba70     libucrt:get_qualified_locale.obj
 0002:00004a98       ??_C@_1CC@IHCNOMIN@?$AAa?$AAm?$AAe?$AAr?$AAi?$AAc?$AAa?$AAn?$AA?9?$AAe?$AAn?$AAg?$AAl?$AAi?$AAs@ 0046ba98     libucrt:get_qualified_locale.obj
 0002:00004ac0       ??_C@_1BG@GKAGPCGG@?$AAa?$AAu?$AAs?$AAt?$AAr?$AAa?$AAl?$AAi?$AAa?$AAn@ 0046bac0     libucrt:get_qualified_locale.obj
 0002:00004adc       ??_C@_1BA@GMENCENF@?$AAb?$AAe?$AAl?$AAg?$AAi?$AAa?$AAn@ 0046badc     libucrt:get_qualified_locale.obj
 0002:00004af0       ??_C@_1BC@PJMIIAAN@?$AAc?$AAa?$AAn?$AAa?$AAd?$AAi?$AAa?$AAn@ 0046baf0     libucrt:get_qualified_locale.obj
 0002:00004b08       ??_C@_17NOIMNFBF@?$AAc?$AAh?$AAh@ 0046bb08     libucrt:get_qualified_locale.obj
 0002:00004b14       ??_C@_17GGDALCHA@?$AAc?$AAh?$AAi@ 0046bb14     libucrt:get_qualified_locale.obj
 0002:00004b20       ??_C@_1BA@NPNJKIBL@?$AAc?$AAh?$AAi?$AAn?$AAe?$AAs?$AAe@ 0046bb20     libucrt:get_qualified_locale.obj
 0002:00004b34       ??_C@_1CC@DINBAMMJ@?$AAc?$AAh?$AAi?$AAn?$AAe?$AAs?$AAe?$AA?9?$AAh?$AAo?$AAn?$AAg?$AAk?$AAo?$AAn@ 0046bb34     libucrt:get_qualified_locale.obj
 0002:00004b5c       ??_C@_1CG@IOBJPACO@?$AAc?$AAh?$AAi?$AAn?$AAe?$AAs?$AAe?$AA?9?$AAs?$AAi?$AAm?$AAp?$AAl?$AAi?$AAf@ 0046bb5c     libucrt:get_qualified_locale.obj
 0002:00004b8c       ??_C@_1CE@GAJNDCKG@?$AAc?$AAh?$AAi?$AAn?$AAe?$AAs?$AAe?$AA?9?$AAs?$AAi?$AAn?$AAg?$AAa?$AAp?$AAo@ 0046bb8c     libucrt:get_qualified_locale.obj
 0002:00004bb8       ??_C@_1CI@PAJPIOOD@?$AAc?$AAh?$AAi?$AAn?$AAe?$AAs?$AAe?$AA?9?$AAt?$AAr?$AAa?$AAd?$AAi?$AAt?$AAi@ 0046bbb8     libucrt:get_qualified_locale.obj
 0002:00004be8       ??_C@_1BM@NILJBMMD@?$AAd?$AAu?$AAt?$AAc?$AAh?$AA?9?$AAb?$AAe?$AAl?$AAg?$AAi?$AAa?$AAn@ 0046bbe8     libucrt:get_qualified_locale.obj
 0002:00004c0c       ??_C@_1CC@OOJPJNEJ@?$AAe?$AAn?$AAg?$AAl?$AAi?$AAs?$AAh?$AA?9?$AAa?$AAm?$AAe?$AAr?$AAi?$AAc?$AAa@ 0046bc0c     libucrt:get_qualified_locale.obj
 0002:00004c34       ??_C@_1BI@IOLFEEM@?$AAe?$AAn?$AAg?$AAl?$AAi?$AAs?$AAh?$AA?9?$AAa?$AAu?$AAs@ 0046bc34     libucrt:get_qualified_locale.obj
 0002:00004c50       ??_C@_1BO@HFFNLENJ@?$AAe?$AAn?$AAg?$AAl?$AAi?$AAs?$AAh?$AA?9?$AAb?$AAe?$AAl?$AAi?$AAz?$AAe@ 0046bc50     libucrt:get_qualified_locale.obj
 0002:00004c74       ??_C@_1BI@HAPKJMPO@?$AAe?$AAn?$AAg?$AAl?$AAi?$AAs?$AAh?$AA?9?$AAc?$AAa?$AAn@ 0046bc74     libucrt:get_qualified_locale.obj
 0002:00004c90       ??_C@_1CE@HLNDMIOJ@?$AAe?$AAn?$AAg?$AAl?$AAi?$AAs?$AAh?$AA?9?$AAc?$AAa?$AAr?$AAi?$AAb?$AAb?$AAe@ 0046bc90     libucrt:get_qualified_locale.obj
 0002:00004cbc       ??_C@_1BI@LDHJHHAC@?$AAe?$AAn?$AAg?$AAl?$AAi?$AAs?$AAh?$AA?9?$AAi?$AAr?$AAe@ 0046bcbc     libucrt:get_qualified_locale.obj
 0002:00004cd8       ??_C@_1CA@NJMMCFOC@?$AAe?$AAn?$AAg?$AAl?$AAi?$AAs?$AAh?$AA?9?$AAj?$AAa?$AAm?$AAa?$AAi?$AAc?$AAa@ 0046bcd8     libucrt:get_qualified_locale.obj
 0002:00004d00       ??_C@_1BG@BHJEBBGG@?$AAe?$AAn?$AAg?$AAl?$AAi?$AAs?$AAh?$AA?9?$AAn?$AAz@ 0046bd00     libucrt:get_qualified_locale.obj
 0002:00004d1c       ??_C@_1CK@FGOEJJCO@?$AAe?$AAn?$AAg?$AAl?$AAi?$AAs?$AAh?$AA?9?$AAs?$AAo?$AAu?$AAt?$AAh?$AA?5?$AAa@ 0046bd1c     libucrt:get_qualified_locale.obj
 0002:00004d50       ??_C@_1DE@PDBJPCJ@?$AAe?$AAn?$AAg?$AAl?$AAi?$AAs?$AAh?$AA?9?$AAt?$AAr?$AAi?$AAn?$AAi?$AAd?$AAa@ 0046bd50     libucrt:get_qualified_locale.obj
 0002:00004d90       ??_C@_1BG@JGCANDME@?$AAe?$AAn?$AAg?$AAl?$AAi?$AAs?$AAh?$AA?9?$AAu?$AAk@ 0046bd90     libucrt:get_qualified_locale.obj
 0002:00004dac       ??_C@_1BG@DINKMLE@?$AAe?$AAn?$AAg?$AAl?$AAi?$AAs?$AAh?$AA?9?$AAu?$AAs@ 0046bdac     libucrt:get_qualified_locale.obj
 0002:00004dc8       ??_C@_1BI@NMFDBHJE@?$AAe?$AAn?$AAg?$AAl?$AAi?$AAs?$AAh?$AA?9?$AAu?$AAs?$AAa@ 0046bdc8     libucrt:get_qualified_locale.obj
 0002:00004de4       ??_C@_1BO@OIHKJKII@?$AAf?$AAr?$AAe?$AAn?$AAc?$AAh?$AA?9?$AAb?$AAe?$AAl?$AAg?$AAi?$AAa?$AAn@ 0046bde4     libucrt:get_qualified_locale.obj
 0002:00004e08       ??_C@_1CA@NKAELJKI@?$AAf?$AAr?$AAe?$AAn?$AAc?$AAh?$AA?9?$AAc?$AAa?$AAn?$AAa?$AAd?$AAi?$AAa?$AAn@ 0046be08     libucrt:get_qualified_locale.obj
 0002:00004e30       ??_C@_1CE@MGKCNLGN@?$AAf?$AAr?$AAe?$AAn?$AAc?$AAh?$AA?9?$AAl?$AAu?$AAx?$AAe?$AAm?$AAb?$AAo?$AAu@ 0046be30     libucrt:get_qualified_locale.obj
 0002:00004e5c       ??_C@_1BK@CEGEAILM@?$AAf?$AAr?$AAe?$AAn?$AAc?$AAh?$AA?9?$AAs?$AAw?$AAi?$AAs?$AAs@ 0046be5c     libucrt:get_qualified_locale.obj
 0002:00004e7c       ??_C@_1CA@PAFKEOCC@?$AAg?$AAe?$AAr?$AAm?$AAa?$AAn?$AA?9?$AAa?$AAu?$AAs?$AAt?$AAr?$AAi?$AAa?$AAn@ 0046be7c     libucrt:get_qualified_locale.obj
 0002:00004ea4       ??_C@_1CI@HCFHGOFD@?$AAg?$AAe?$AAr?$AAm?$AAa?$AAn?$AA?9?$AAl?$AAi?$AAc?$AAh?$AAt?$AAe?$AAn?$AAs@ 0046bea4     libucrt:get_qualified_locale.obj
 0002:00004ed4       ??_C@_1CE@FEDDNPDG@?$AAg?$AAe?$AAr?$AAm?$AAa?$AAn?$AA?9?$AAl?$AAu?$AAx?$AAe?$AAm?$AAb?$AAo?$AAu@ 0046bed4     libucrt:get_qualified_locale.obj
 0002:00004f00       ??_C@_1BK@LIMINNMN@?$AAg?$AAe?$AAr?$AAm?$AAa?$AAn?$AA?9?$AAs?$AAw?$AAi?$AAs?$AAs@ 0046bf00     libucrt:get_qualified_locale.obj
 0002:00004f20       ??_C@_1BM@LGMDBEPD@?$AAi?$AAr?$AAi?$AAs?$AAh?$AA?9?$AAe?$AAn?$AAg?$AAl?$AAi?$AAs?$AAh@ 0046bf20     libucrt:get_qualified_locale.obj
 0002:00004f44       ??_C@_1BM@NNCFBAEE@?$AAi?$AAt?$AAa?$AAl?$AAi?$AAa?$AAn?$AA?9?$AAs?$AAw?$AAi?$AAs?$AAs@ 0046bf44     libucrt:get_qualified_locale.obj
 0002:00004f68       ??_C@_1BE@FEDJNPIB@?$AAn?$AAo?$AAr?$AAw?$AAe?$AAg?$AAi?$AAa?$AAn@ 0046bf68     libucrt:get_qualified_locale.obj
 0002:00004f80       ??_C@_1CC@CILKDEIE@?$AAn?$AAo?$AAr?$AAw?$AAe?$AAg?$AAi?$AAa?$AAn?$AA?9?$AAb?$AAo?$AAk?$AAm?$AAa@ 0046bf80     libucrt:get_qualified_locale.obj
 0002:00004fa8       ??_C@_1CE@DHMMHEPL@?$AAn?$AAo?$AAr?$AAw?$AAe?$AAg?$AAi?$AAa?$AAn?$AA?9?$AAn?$AAy?$AAn?$AAo?$AAr@ 0046bfa8     libucrt:get_qualified_locale.obj
 0002:00004fd4       ??_C@_1CK@OPNMHECD@?$AAp?$AAo?$AAr?$AAt?$AAu?$AAg?$AAu?$AAe?$AAs?$AAe?$AA?9?$AAb?$AAr?$AAa?$AAz@ 0046bfd4     libucrt:get_qualified_locale.obj
 0002:00005008       ??_C@_1CE@KEEHCDB@?$AAs?$AAp?$AAa?$AAn?$AAi?$AAs?$AAh?$AA?9?$AAa?$AAr?$AAg?$AAe?$AAn?$AAt?$AAi@ 0046c008     libucrt:get_qualified_locale.obj
 0002:00005034       ??_C@_1CA@GIAOLHJD@?$AAs?$AAp?$AAa?$AAn?$AAi?$AAs?$AAh?$AA?9?$AAb?$AAo?$AAl?$AAi?$AAv?$AAi?$AAa@ 0046c034     libucrt:get_qualified_locale.obj
 0002:0000505c       ??_C@_1BM@OJNDFNPD@?$AAs?$AAp?$AAa?$AAn?$AAi?$AAs?$AAh?$AA?9?$AAc?$AAh?$AAi?$AAl?$AAe@ 0046c05c     libucrt:get_qualified_locale.obj
 0002:00005080       ??_C@_1CC@OCOLPALL@?$AAs?$AAp?$AAa?$AAn?$AAi?$AAs?$AAh?$AA?9?$AAc?$AAo?$AAl?$AAo?$AAm?$AAb?$AAi@ 0046c080     libucrt:get_qualified_locale.obj
 0002:000050a8       ??_C@_1CG@BPOFMKBB@?$AAs?$AAp?$AAa?$AAn?$AAi?$AAs?$AAh?$AA?9?$AAc?$AAo?$AAs?$AAt?$AAa?$AA?5?$AAr@ 0046c0a8     libucrt:get_qualified_locale.obj
 0002:000050d8       ??_C@_1DG@IGOBAPBB@?$AAs?$AAp?$AAa?$AAn?$AAi?$AAs?$AAh?$AA?9?$AAd?$AAo?$AAm?$AAi?$AAn?$AAi?$AAc@ 0046c0d8     libucrt:get_qualified_locale.obj
 0002:00005118       ??_C@_1CA@JHAPGEGI@?$AAs?$AAp?$AAa?$AAn?$AAi?$AAs?$AAh?$AA?9?$AAe?$AAc?$AAu?$AAa?$AAd?$AAo?$AAr@ 0046c118     libucrt:get_qualified_locale.obj
 0002:00005140       ??_C@_1CI@LAPALJPP@?$AAs?$AAp?$AAa?$AAn?$AAi?$AAs?$AAh?$AA?9?$AAe?$AAl?$AA?5?$AAs?$AAa?$AAl?$AAv@ 0046c140     libucrt:get_qualified_locale.obj
 0002:00005170       ??_C@_1CE@PDGBOFOM@?$AAs?$AAp?$AAa?$AAn?$AAi?$AAs?$AAh?$AA?9?$AAg?$AAu?$AAa?$AAt?$AAe?$AAm?$AAa@ 0046c170     libucrt:get_qualified_locale.obj
 0002:0000519c       ??_C@_1CC@NBEBAODI@?$AAs?$AAp?$AAa?$AAn?$AAi?$AAs?$AAh?$AA?9?$AAh?$AAo?$AAn?$AAd?$AAu?$AAr?$AAa@ 0046c19c     libucrt:get_qualified_locale.obj
 0002:000051c4       ??_C@_1CA@LLKGHBMF@?$AAs?$AAp?$AAa?$AAn?$AAi?$AAs?$AAh?$AA?9?$AAm?$AAe?$AAx?$AAi?$AAc?$AAa?$AAn@ 0046c1c4     libucrt:get_qualified_locale.obj
 0002:000051ec       ??_C@_1BO@LKNDOIGD@?$AAs?$AAp?$AAa?$AAn?$AAi?$AAs?$AAh?$AA?9?$AAm?$AAo?$AAd?$AAe?$AAr?$AAn@ 0046c1ec     libucrt:get_qualified_locale.obj
 0002:00005210       ??_C@_1CE@NMDMOEEB@?$AAs?$AAp?$AAa?$AAn?$AAi?$AAs?$AAh?$AA?9?$AAn?$AAi?$AAc?$AAa?$AAr?$AAa?$AAg@ 0046c210     libucrt:get_qualified_locale.obj
 0002:0000523c       ??_C@_1BO@LLCBEJGB@?$AAs?$AAp?$AAa?$AAn?$AAi?$AAs?$AAh?$AA?9?$AAp?$AAa?$AAn?$AAa?$AAm?$AAa@ 0046c23c     libucrt:get_qualified_locale.obj
 0002:00005260       ??_C@_1CC@FKPGGIHO@?$AAs?$AAp?$AAa?$AAn?$AAi?$AAs?$AAh?$AA?9?$AAp?$AAa?$AAr?$AAa?$AAg?$AAu?$AAa@ 0046c260     libucrt:get_qualified_locale.obj
 0002:00005288       ??_C@_1BK@CDEIHOOP@?$AAs?$AAp?$AAa?$AAn?$AAi?$AAs?$AAh?$AA?9?$AAp?$AAe?$AAr?$AAu@ 0046c288     libucrt:get_qualified_locale.obj
 0002:000052a8       ??_C@_1CI@GAHAKKGP@?$AAs?$AAp?$AAa?$AAn?$AAi?$AAs?$AAh?$AA?9?$AAp?$AAu?$AAe?$AAr?$AAt?$AAo?$AA?5@ 0046c2a8     libucrt:get_qualified_locale.obj
 0002:000052d8       ??_C@_1CA@NKJBCAGP@?$AAs?$AAp?$AAa?$AAn?$AAi?$AAs?$AAh?$AA?9?$AAu?$AAr?$AAu?$AAg?$AAu?$AAa?$AAy@ 0046c2d8     libucrt:get_qualified_locale.obj
 0002:00005300       ??_C@_1CE@ODILCONM@?$AAs?$AAp?$AAa?$AAn?$AAi?$AAs?$AAh?$AA?9?$AAv?$AAe?$AAn?$AAe?$AAz?$AAu?$AAe@ 0046c300     libucrt:get_qualified_locale.obj
 0002:0000532c       ??_C@_1CA@OBNMCGFO@?$AAs?$AAw?$AAe?$AAd?$AAi?$AAs?$AAh?$AA?9?$AAf?$AAi?$AAn?$AAl?$AAa?$AAn?$AAd@ 0046c32c     libucrt:get_qualified_locale.obj
 0002:00005354       ??_C@_1M@PIPDDPPI@?$AAs?$AAw?$AAi?$AAs?$AAs@ 0046c354     libucrt:get_qualified_locale.obj
 0002:00005364       ??_C@_15PJPFLCCM@?$AAu?$AAk@ 0046c364     libucrt:get_qualified_locale.obj
 0002:0000536c       ??_C@_15GMFIMNFM@?$AAu?$AAs@ 0046c36c     libucrt:get_qualified_locale.obj
 0002:00005374       ??_C@_17HAEBFAGL@?$AAu?$AAs?$AAa@ 0046c374     libucrt:get_qualified_locale.obj
 0002:00005380       ??_C@_1BA@DPFJEPHB@?$AAa?$AAm?$AAe?$AAr?$AAi?$AAc?$AAa@ 0046c380     libucrt:get_qualified_locale.obj
 0002:00005394       ??_C@_1BA@ELOGGFK@?$AAb?$AAr?$AAi?$AAt?$AAa?$AAi?$AAn@ 0046c394     libucrt:get_qualified_locale.obj
 0002:000053a8       ??_C@_1M@GHBGIGDA@?$AAc?$AAh?$AAi?$AAn?$AAa@ 0046c3a8     libucrt:get_qualified_locale.obj
 0002:000053b8       ??_C@_1M@NCHEJOPO@?$AAc?$AAz?$AAe?$AAc?$AAh@ 0046c3b8     libucrt:get_qualified_locale.obj
 0002:000053c8       ??_C@_1BA@BKPAPBLA@?$AAe?$AAn?$AAg?$AAl?$AAa?$AAn?$AAd@ 0046c3c8     libucrt:get_qualified_locale.obj
 0002:000053dc       ??_C@_1BM@HKBCKIPC@?$AAg?$AAr?$AAe?$AAa?$AAt?$AA?5?$AAb?$AAr?$AAi?$AAt?$AAa?$AAi?$AAn@ 0046c3dc     libucrt:get_qualified_locale.obj
 0002:00005400       ??_C@_1BA@PPCHPGJB@?$AAh?$AAo?$AAl?$AAl?$AAa?$AAn?$AAd@ 0046c400     libucrt:get_qualified_locale.obj
 0002:00005414       ??_C@_1BE@JBMPEGDG@?$AAh?$AAo?$AAn?$AAg?$AA?9?$AAk?$AAo?$AAn?$AAg@ 0046c414     libucrt:get_qualified_locale.obj
 0002:0000542c       ??_C@_1BI@KOELBBPJ@?$AAn?$AAe?$AAw?$AA?9?$AAz?$AAe?$AAa?$AAl?$AAa?$AAn?$AAd@ 0046c42c     libucrt:get_qualified_locale.obj
 0002:00005448       ??_C@_15HIEBHAIO@?$AAn?$AAz@ 0046c448     libucrt:get_qualified_locale.obj
 0002:00005450       ??_C@_1BC@CHBCPFPI@?$AAp?$AAr?$AA?5?$AAc?$AAh?$AAi?$AAn?$AAa@ 0046c450     libucrt:get_qualified_locale.obj
 0002:00005468       ??_C@_1BC@JAOIIFKD@?$AAp?$AAr?$AA?9?$AAc?$AAh?$AAi?$AAn?$AAa@ 0046c468     libucrt:get_qualified_locale.obj
 0002:00005480       ??_C@_1BI@BEHPPHKC@?$AAp?$AAu?$AAe?$AAr?$AAt?$AAo?$AA?9?$AAr?$AAi?$AAc?$AAo@ 0046c480     libucrt:get_qualified_locale.obj
 0002:0000549c       ??_C@_1O@PAEOFKDI@?$AAs?$AAl?$AAo?$AAv?$AAa?$AAk@ 0046c49c     libucrt:get_qualified_locale.obj
 0002:000054ac       ??_C@_1BK@FIHMCKAM@?$AAs?$AAo?$AAu?$AAt?$AAh?$AA?5?$AAa?$AAf?$AAr?$AAi?$AAc?$AAa@ 0046c4ac     libucrt:get_qualified_locale.obj
 0002:000054cc       ??_C@_1BI@NAEOODKB@?$AAs?$AAo?$AAu?$AAt?$AAh?$AA?5?$AAk?$AAo?$AAr?$AAe?$AAa@ 0046c4cc     libucrt:get_qualified_locale.obj
 0002:000054e8       ??_C@_1BK@FBDGGIFF@?$AAs?$AAo?$AAu?$AAt?$AAh?$AA?9?$AAa?$AAf?$AAr?$AAi?$AAc?$AAa@ 0046c4e8     libucrt:get_qualified_locale.obj
 0002:00005508       ??_C@_1BI@GHLEJDPK@?$AAs?$AAo?$AAu?$AAt?$AAh?$AA?9?$AAk?$AAo?$AAr?$AAe?$AAa@ 0046c508     libucrt:get_qualified_locale.obj
 0002:00005524       ??_C@_1CE@PLHLOMJF@?$AAt?$AAr?$AAi?$AAn?$AAi?$AAd?$AAa?$AAd?$AA?5?$AA?$CG?$AA?5?$AAt?$AAo?$AAb?$AAa@ 0046c524     libucrt:get_qualified_locale.obj
 0002:00005550       ??_C@_1BO@MODIMHHI@?$AAu?$AAn?$AAi?$AAt?$AAe?$AAd?$AA?9?$AAk?$AAi?$AAn?$AAg?$AAd?$AAo?$AAm@ 0046c550     libucrt:get_qualified_locale.obj
 0002:00005574       ??_C@_1BM@FFHJONBJ@?$AAu?$AAn?$AAi?$AAt?$AAe?$AAd?$AA?9?$AAs?$AAt?$AAa?$AAt?$AAe?$AAs@ 0046c574     libucrt:get_qualified_locale.obj
 0002:00005598       ??_C@_19MPDNHKDG@?$AAu?$AAt?$AAf?$AA8@ 0046c598     libucrt:get_qualified_locale.obj
 0002:000055a4       ??_C@_17DNCLJFIF@?$AAA?$AAC?$AAP@ 0046c5a4     libucrt:get_qualified_locale.obj
 0002:000055b0       ??_C@_1M@FPEIIFAM@?$AAu?$AAt?$AAf?$AA?9?$AA8@ 0046c5b0     libucrt:get_qualified_locale.obj
 0002:000055c0       ??_C@_17CIKBIHLH@?$AAO?$AAC?$AAP@ 0046c5c0     libucrt:get_qualified_locale.obj
 0002:000055cc       ___rglangidNotDefault      0046c5cc     libucrt:getqloc_downlevel.obj
 0002:00005e74       ??_C@_15EMKDOKLE@?$AAa?$AAr@ 0046ce74     libucrt:lcidtoname_downlevel.obj
 0002:00005e7c       ??_C@_15KNPADPLH@?$AAb?$AAg@ 0046ce7c     libucrt:lcidtoname_downlevel.obj
 0002:00005e84       ??_C@_15EDMHLDMO@?$AAc?$AAa@ 0046ce84     libucrt:lcidtoname_downlevel.obj
 0002:00005e8c       ??_C@_1O@BPEAJADD@?$AAz?$AAh?$AA?9?$AAC?$AAH?$AAS@ 0046ce8c     libucrt:lcidtoname_downlevel.obj
 0002:00005e9c       ??_C@_15LJNHCMNK@?$AAc?$AAs@ 0046ce9c     libucrt:lcidtoname_downlevel.obj
 0002:00005ea4       ??_C@_15FOMCIDHG@?$AAd?$AAa@ 0046cea4     libucrt:lcidtoname_downlevel.obj
 0002:00005eac       ??_C@_15NBKABECB@?$AAd?$AAe@ 0046ceac     libucrt:lcidtoname_downlevel.obj
 0002:00005eb4       ??_C@_15GHPEIIAO@?$AAe?$AAl@ 0046ceb4     libucrt:lcidtoname_downlevel.obj
 0002:00005ebc       ??_C@_15MNPNEAIF@?$AAe?$AAn@ 0046cebc     libucrt:lcidtoname_downlevel.obj
 0002:00005ec4       ??_C@_15GPIOMPMH@?$AAe?$AAs@ 0046cec4     libucrt:lcidtoname_downlevel.obj
 0002:00005ecc       ??_C@_15NGLOAKJC@?$AAf?$AAi@ 0046cecc     libucrt:lcidtoname_downlevel.obj
 0002:00005ed4       ??_C@_15FBKGNKAM@?$AAf?$AAr@ 0046ced4     libucrt:lcidtoname_downlevel.obj
 0002:00005edc       ??_C@_15KGGCNEFK@?$AAh?$AAe@ 0046cedc     libucrt:lcidtoname_downlevel.obj
 0002:00005ee4       ??_C@_15PGHLIDMF@?$AAh?$AAu@ 0046cee4     libucrt:lcidtoname_downlevel.obj
 0002:00005eec       ??_C@_15BIEMAPLM@?$AAi?$AAs@ 0046ceec     libucrt:lcidtoname_downlevel.obj
 0002:00005ef4       ??_C@_15IFJLDHAF@?$AAi?$AAt@ 0046cef4     libucrt:lcidtoname_downlevel.obj
 0002:00005efc       ??_C@_15GEMIOCAG@?$AAj?$AAa@ 0046cefc     libucrt:lcidtoname_downlevel.obj
 0002:00005f04       ??_C@_15EPELEGJA@?$AAk?$AAo@ 0046cf04     libucrt:lcidtoname_downlevel.obj
 0002:00005f0c       ??_C@_15NDDHIMN@?$AAn?$AAl@ 0046cf0c     libucrt:lcidtoname_downlevel.obj
 0002:00005f14       ??_C@_15BPIGNHCD@?$AAn?$AAo@ 0046cf14     libucrt:lcidtoname_downlevel.obj
 0002:00005f1c       ??_C@_15DEOPBLCG@?$AAp?$AAl@ 0046cf1c     libucrt:lcidtoname_downlevel.obj
 0002:00005f24       ??_C@_15KBECGEFG@?$AAp?$AAt@ 0046cf24     libucrt:lcidtoname_downlevel.obj
 0002:00005f2c       ??_C@_15GLJCBFMD@?$AAr?$AAo@ 0046cf2c     libucrt:lcidtoname_downlevel.obj
 0002:00005f34       ??_C@_15FEDGKCDI@?$AAr?$AAu@ 0046cf34     libucrt:lcidtoname_downlevel.obj
 0002:00005f3c       ??_C@_15GLKMLLHM@?$AAh?$AAr@ 0046cf3c     libucrt:lcidtoname_downlevel.obj
 0002:00005f44       ??_C@_15CPKMFBDB@?$AAs?$AAk@ 0046cf44     libucrt:lcidtoname_downlevel.obj
 0002:00005f4c       ??_C@_15BAAIOGMK@?$AAs?$AAq@ 0046cf4c     libucrt:lcidtoname_downlevel.obj
 0002:00005f54       ??_C@_15INNPNOHD@?$AAs?$AAv@ 0046cf54     libucrt:lcidtoname_downlevel.obj
 0002:00005f5c       ??_C@_15CABMMOGH@?$AAt?$AAh@ 0046cf5c     libucrt:lcidtoname_downlevel.obj
 0002:00005f64       ??_C@_15BPLIHJJM@?$AAt?$AAr@ 0046cf64     libucrt:lcidtoname_downlevel.obj
 0002:00005f6c       ??_C@_15NEOEKKDJ@?$AAu?$AAr@ 0046cf6c     libucrt:lcidtoname_downlevel.obj
 0002:00005f74       ??_C@_15NFICGAJK@?$AAi?$AAd@ 0046cf74     libucrt:lcidtoname_downlevel.obj
 0002:00005f7c       ??_C@_15HPJPHDM@?$AAb?$AAe@ 0046cf7c     libucrt:lcidtoname_downlevel.obj
 0002:00005f84       ??_C@_15LCHLGJII@?$AAs?$AAl@ 0046cf84     libucrt:lcidtoname_downlevel.obj
 0002:00005f8c       ??_C@_15PCFJPHHO@?$AAe?$AAt@ 0046cf8c     libucrt:lcidtoname_downlevel.obj
 0002:00005f94       ??_C@_15HPFPGODN@?$AAl?$AAv@ 0046cf94     libucrt:lcidtoname_downlevel.obj
 0002:00005f9c       ??_C@_15NFFGKGLG@?$AAl?$AAt@ 0046cf9c     libucrt:lcidtoname_downlevel.obj
 0002:00005fa4       ??_C@_15BDAKCCHN@?$AAf?$AAa@ 0046cfa4     libucrt:lcidtoname_downlevel.obj
 0002:00005fac       ??_C@_15NFGIAIAJ@?$AAv?$AAi@ 0046cfac     libucrt:lcidtoname_downlevel.obj
 0002:00005fb4       ??_C@_15LMKNDMHN@?$AAh?$AAy@ 0046cfb4     libucrt:lcidtoname_downlevel.obj
 0002:00005fbc       ??_C@_15IJBHMCFL@?$AAa?$AAz@ 0046cfbc     libucrt:lcidtoname_downlevel.obj
 0002:00005fc4       ??_C@_15EKOFJABL@?$AAe?$AAu@ 0046cfc4     libucrt:lcidtoname_downlevel.obj
 0002:00005fcc       ??_C@_15BGHADCNK@?$AAm?$AAk@ 0046cfcc     libucrt:lcidtoname_downlevel.obj
 0002:00005fd4       ??_C@_15JDNICKHM@?$AAa?$AAf@ 0046cfd4     libucrt:lcidtoname_downlevel.obj
 0002:00005fdc       ??_C@_15KPJEDBKD@?$AAk?$AAa@ 0046cfdc     libucrt:lcidtoname_downlevel.obj
 0002:00005fe4       ??_C@_15PDNFFFEO@?$AAf?$AAo@ 0046cfe4     libucrt:lcidtoname_downlevel.obj
 0002:00005fec       ??_C@_15OMLEGLOC@?$AAh?$AAi@ 0046cfec     libucrt:lcidtoname_downlevel.obj
 0002:00005ff4       ??_C@_15IDNNENKK@?$AAm?$AAs@ 0046cff4     libucrt:lcidtoname_downlevel.obj
 0002:00005ffc       ??_C@_15MACJNBMH@?$AAk?$AAk@ 0046cffc     libucrt:lcidtoname_downlevel.obj
 0002:00006004       ??_C@_15DKDJEOND@?$AAk?$AAy@ 0046d004     libucrt:lcidtoname_downlevel.obj
 0002:0000600c       ??_C@_15DFGDLJBG@?$AAs?$AAw@ 0046d00c     libucrt:lcidtoname_downlevel.obj
 0002:00006014       ??_C@_15BBFAICNG@?$AAu?$AAz@ 0046d014     libucrt:lcidtoname_downlevel.obj
 0002:0000601c       ??_C@_15DKNDCGEA@?$AAt?$AAt@ 0046d01c     libucrt:lcidtoname_downlevel.obj
 0002:00006024       ??_C@_15MGIFMDPL@?$AAp?$AAa@ 0046d024     libucrt:lcidtoname_downlevel.obj
 0002:0000602c       ??_C@_15HCNDBBA@?$AAg?$AAu@ 0046d02c     libucrt:lcidtoname_downlevel.obj
 0002:00006034       ??_C@_15FNBEIBON@?$AAt?$AAa@ 0046d034     libucrt:lcidtoname_downlevel.obj
 0002:0000603c       ??_C@_15NCHGBGLK@?$AAt?$AAe@ 0046d03c     libucrt:lcidtoname_downlevel.obj
 0002:00006044       ??_C@_15PHPHCBPF@?$AAk?$AAn@ 0046d044     libucrt:lcidtoname_downlevel.obj
 0002:0000604c       ??_C@_15DLGBCKMP@?$AAm?$AAr@ 0046d04c     libucrt:lcidtoname_downlevel.obj
 0002:00006054       ??_C@_15EABBLBFF@?$AAs?$AAa@ 0046d054     libucrt:lcidtoname_downlevel.obj
 0002:0000605c       ??_C@_15CBKOMCOI@?$AAm?$AAn@ 0046d05c     libucrt:lcidtoname_downlevel.obj
 0002:00006064       ??_C@_15CKDMCJAF@?$AAg?$AAl@ 0046d064     libucrt:lcidtoname_downlevel.obj
 0002:0000606c       ??_C@_17CNJFBPG@?$AAk?$AAo?$AAk@ 0046d06c     libucrt:lcidtoname_downlevel.obj
 0002:00006078       ??_C@_17FFBJICPL@?$AAs?$AAy?$AAr@ 0046d078     libucrt:lcidtoname_downlevel.obj
 0002:00006084       ??_C@_17KPNDCPAF@?$AAd?$AAi?$AAv@ 0046d084     libucrt:lcidtoname_downlevel.obj
 0002:00006090       ??_C@_11LOCGONAA@@         0046d090     libucrt:lcidtoname_downlevel.obj
 0002:00006094       ??_C@_1M@OKAHONE@?$AAa?$AAr?$AA?9?$AAS?$AAA@ 0046d094     libucrt:lcidtoname_downlevel.obj
 0002:000060a4       ??_C@_1M@FFFIGIGK@?$AAb?$AAg?$AA?9?$AAB?$AAG@ 0046d0a4     libucrt:lcidtoname_downlevel.obj
 0002:000060b4       ??_C@_1M@BJNKEDC@?$AAc?$AAa?$AA?9?$AAE?$AAS@ 0046d0b4     libucrt:lcidtoname_downlevel.obj
 0002:000060c4       ??_C@_1M@IJJHFJHA@?$AAc?$AAs?$AA?9?$AAC?$AAZ@ 0046d0c4     libucrt:lcidtoname_downlevel.obj
 0002:000060d4       ??_C@_1M@CLPEOBGI@?$AAd?$AAa?$AA?9?$AAD?$AAK@ 0046d0d4     libucrt:lcidtoname_downlevel.obj
 0002:000060e4       ??_C@_1M@MCMADGCB@?$AAd?$AAe?$AA?9?$AAD?$AAE@ 0046d0e4     libucrt:lcidtoname_downlevel.obj
 0002:000060f4       ??_C@_1M@OOCKEMAM@?$AAe?$AAl?$AA?9?$AAG?$AAR@ 0046d0f4     libucrt:lcidtoname_downlevel.obj
 0002:00006104       ??_C@_1M@DDNJFGID@?$AAf?$AAi?$AA?9?$AAF?$AAI@ 0046d104     libucrt:lcidtoname_downlevel.obj
 0002:00006114       ??_C@_1M@GLIPPMAC@?$AAf?$AAr?$AA?9?$AAF?$AAR@ 0046d114     libucrt:lcidtoname_downlevel.obj
 0002:00006124       ??_C@_1M@GFMCHPE@?$AAh?$AAe?$AA?9?$AAI?$AAL@ 0046d124     libucrt:lcidtoname_downlevel.obj
 0002:00006134       ??_C@_1M@MHLPGNKM@?$AAh?$AAu?$AA?9?$AAH?$AAU@ 0046d134     libucrt:lcidtoname_downlevel.obj
 0002:00006144       ??_C@_1M@LPDDNNPN@?$AAi?$AAs?$AA?9?$AAI?$AAS@ 0046d144     libucrt:lcidtoname_downlevel.obj
 0002:00006154       ??_C@_1M@MADIPODN@?$AAi?$AAt?$AA?9?$AAI?$AAT@ 0046d154     libucrt:lcidtoname_downlevel.obj
 0002:00006164       ??_C@_1M@IHBJJGG@?$AAn?$AAl?$AA?9?$AAN?$AAL@ 0046d164     libucrt:lcidtoname_downlevel.obj
 0002:00006174       ??_C@_1M@EANAGDL@?$AAn?$AAb?$AA?9?$AAN?$AAO@ 0046d174     libucrt:lcidtoname_downlevel.obj
 0002:00006184       ??_C@_1M@NEIEMEGP@?$AAp?$AAl?$AA?9?$AAP?$AAL@ 0046d184     libucrt:lcidtoname_downlevel.obj
 0002:00006194       ??_C@_1M@BOCFIGEP@?$AAp?$AAt?$AA?9?$AAB?$AAR@ 0046d194     libucrt:lcidtoname_downlevel.obj
 0002:000061a4       ??_C@_1M@IMPFOPBG@?$AAr?$AAo?$AA?9?$AAR?$AAO@ 0046d1a4     libucrt:lcidtoname_downlevel.obj
 0002:000061b4       ??_C@_1M@IDNNEJMM@?$AAr?$AAu?$AA?9?$AAR?$AAU@ 0046d1b4     libucrt:lcidtoname_downlevel.obj
 0002:000061c4       ??_C@_1M@LILEEOGM@?$AAh?$AAr?$AA?9?$AAH?$AAR@ 0046d1c4     libucrt:lcidtoname_downlevel.obj
 0002:000061d4       ??_C@_1M@FKIFEHPB@?$AAs?$AAk?$AA?9?$AAS?$AAK@ 0046d1d4     libucrt:lcidtoname_downlevel.obj
 0002:000061e4       ??_C@_1M@LJMAMNPJ@?$AAs?$AAq?$AA?9?$AAA?$AAL@ 0046d1e4     libucrt:lcidtoname_downlevel.obj
 0002:000061f4       ??_C@_1M@GIAKDKJK@?$AAs?$AAv?$AA?9?$AAS?$AAE@ 0046d1f4     libucrt:lcidtoname_downlevel.obj
 0002:00006204       ??_C@_1M@MKJKIKCL@?$AAt?$AAh?$AA?9?$AAT?$AAH@ 0046d204     libucrt:lcidtoname_downlevel.obj
 0002:00006214       ??_C@_1M@MFLCCMPB@?$AAt?$AAr?$AA?9?$AAT?$AAR@ 0046d214     libucrt:lcidtoname_downlevel.obj
 0002:00006224       ??_C@_1M@OIJHDKJN@?$AAu?$AAr?$AA?9?$AAP?$AAK@ 0046d224     libucrt:lcidtoname_downlevel.obj
 0002:00006234       ??_C@_1M@LHIPCIEK@?$AAi?$AAd?$AA?9?$AAI?$AAD@ 0046d234     libucrt:lcidtoname_downlevel.obj
 0002:00006244       ??_C@_1M@MFMOBGI@?$AAu?$AAk?$AA?9?$AAU?$AAA@ 0046d244     libucrt:lcidtoname_downlevel.obj
 0002:00006254       ??_C@_1M@OBGLJIPL@?$AAb?$AAe?$AA?9?$AAB?$AAY@ 0046d254     libucrt:lcidtoname_downlevel.obj
 0002:00006264       ??_C@_1M@BCFAJEAD@?$AAs?$AAl?$AA?9?$AAS?$AAI@ 0046d264     libucrt:lcidtoname_downlevel.obj
 0002:00006274       ??_C@_1M@FKFFEDDN@?$AAe?$AAt?$AA?9?$AAE?$AAE@ 0046d274     libucrt:lcidtoname_downlevel.obj
 0002:00006284       ??_C@_1M@KGKKAACI@?$AAl?$AAv?$AA?9?$AAL?$AAV@ 0046d284     libucrt:lcidtoname_downlevel.obj
 0002:00006294       ??_C@_1M@IFGBIJO@?$AAl?$AAt?$AA?9?$AAL?$AAT@ 0046d294     libucrt:lcidtoname_downlevel.obj
 0002:000062a4       ??_C@_1M@FGEAHEDM@?$AAf?$AAa?$AA?9?$AAI?$AAR@ 0046d2a4     libucrt:lcidtoname_downlevel.obj
 0002:000062b4       ??_C@_1M@KBMAIBFN@?$AAv?$AAi?$AA?9?$AAV?$AAN@ 0046d2b4     libucrt:lcidtoname_downlevel.obj
 0002:000062c4       ??_C@_1M@GPCBKDJK@?$AAh?$AAy?$AA?9?$AAA?$AAM@ 0046d2c4     libucrt:lcidtoname_downlevel.obj
 0002:000062d4       ??_C@_1BG@BECMDDJB@?$AAa?$AAz?$AA?9?$AAA?$AAZ?$AA?9?$AAL?$AAa?$AAt?$AAn@ 0046d2d4     libucrt:lcidtoname_downlevel.obj
 0002:000062f0       ??_C@_1M@MAOFCAEA@?$AAe?$AAu?$AA?9?$AAE?$AAS@ 0046d2f0     libucrt:lcidtoname_downlevel.obj
 0002:00006300       ??_C@_1M@IGHABKPI@?$AAm?$AAk?$AA?9?$AAM?$AAK@ 0046d300     libucrt:lcidtoname_downlevel.obj
 0002:00006310       ??_C@_1M@IAIGNEJG@?$AAt?$AAn?$AA?9?$AAZ?$AAA@ 0046d310     libucrt:lcidtoname_downlevel.obj
 0002:00006320       ??_C@_1M@IIJCOJFA@?$AAx?$AAh?$AA?9?$AAZ?$AAA@ 0046d320     libucrt:lcidtoname_downlevel.obj
 0002:00006330       ??_C@_1M@LGPJHNJH@?$AAz?$AAu?$AA?9?$AAZ?$AAA@ 0046d330     libucrt:lcidtoname_downlevel.obj
 0002:00006340       ??_C@_1M@HOKAOIO@?$AAa?$AAf?$AA?9?$AAZ?$AAA@ 0046d340     libucrt:lcidtoname_downlevel.obj
 0002:00006350       ??_C@_1M@DPCLHLIE@?$AAk?$AAa?$AA?9?$AAG?$AAE@ 0046d350     libucrt:lcidtoname_downlevel.obj
 0002:00006360       ??_C@_1M@BLKMHJBI@?$AAf?$AAo?$AA?9?$AAF?$AAO@ 0046d360     libucrt:lcidtoname_downlevel.obj
 0002:00006370       ??_C@_1M@LGGJAPPB@?$AAh?$AAi?$AA?9?$AAI?$AAN@ 0046d370     libucrt:lcidtoname_downlevel.obj
 0002:00006380       ??_C@_1M@FIKPIHFE@?$AAm?$AAt?$AA?9?$AAM?$AAT@ 0046d380     libucrt:lcidtoname_downlevel.obj
 0002:00006390       ??_C@_1M@HEGGPBFA@?$AAs?$AAe?$AA?9?$AAN?$AAO@ 0046d390     libucrt:lcidtoname_downlevel.obj
 0002:000063a0       ??_C@_1M@EIBJEEPA@?$AAm?$AAs?$AA?9?$AAM?$AAY@ 0046d3a0     libucrt:lcidtoname_downlevel.obj
 0002:000063b0       ??_C@_1M@FHLBGMPP@?$AAk?$AAk?$AA?9?$AAK?$AAZ@ 0046d3b0     libucrt:lcidtoname_downlevel.obj
 0002:000063c0       ??_C@_1M@NGJJLCGI@?$AAk?$AAy?$AA?9?$AAK?$AAG@ 0046d3c0     libucrt:lcidtoname_downlevel.obj
 0002:000063d0       ??_C@_1M@GIENNBFC@?$AAs?$AAw?$AA?9?$AAK?$AAE@ 0046d3d0     libucrt:lcidtoname_downlevel.obj
 0002:000063e0       ??_C@_1BG@NDGMJIMJ@?$AAu?$AAz?$AA?9?$AAU?$AAZ?$AA?9?$AAL?$AAa?$AAt?$AAn@ 0046d3e0     libucrt:lcidtoname_downlevel.obj
 0002:000063fc       ??_C@_1M@IDCCIHBC@?$AAt?$AAt?$AA?9?$AAR?$AAU@ 0046d3fc     libucrt:lcidtoname_downlevel.obj
 0002:0000640c       ??_C@_1M@LOICPMOJ@?$AAb?$AAn?$AA?9?$AAI?$AAN@ 0046d40c     libucrt:lcidtoname_downlevel.obj
 0002:0000641c       ??_C@_1M@KPKKNEAH@?$AAp?$AAa?$AA?9?$AAI?$AAN@ 0046d41c     libucrt:lcidtoname_downlevel.obj
 0002:0000642c       ??_C@_1M@PJGPPBOG@?$AAg?$AAu?$AA?9?$AAI?$AAN@ 0046d42c     libucrt:lcidtoname_downlevel.obj
 0002:0000643c       ??_C@_1M@KMKMOPHI@?$AAt?$AAa?$AA?9?$AAI?$AAN@ 0046d43c     libucrt:lcidtoname_downlevel.obj
 0002:0000644c       ??_C@_1M@KFEHEPAC@?$AAt?$AAe?$AA?9?$AAI?$AAN@ 0046d44c     libucrt:lcidtoname_downlevel.obj
 0002:0000645c       ??_C@_1M@CDCLMGHI@?$AAk?$AAn?$AA?9?$AAI?$AAN@ 0046d45c     libucrt:lcidtoname_downlevel.obj
 0002:0000646c       ??_C@_1M@MIODLDKF@?$AAm?$AAl?$AA?9?$AAI?$AAN@ 0046d46c     libucrt:lcidtoname_downlevel.obj
 0002:0000647c       ??_C@_1M@PBIEACPO@?$AAm?$AAr?$AA?9?$AAI?$AAN@ 0046d47c     libucrt:lcidtoname_downlevel.obj
 0002:0000648c       ??_C@_1M@NIDEAGPH@?$AAs?$AAa?$AA?9?$AAI?$AAN@ 0046d48c     libucrt:lcidtoname_downlevel.obj
 0002:0000649c       ??_C@_1M@FHIHCBIO@?$AAm?$AAn?$AA?9?$AAM?$AAN@ 0046d49c     libucrt:lcidtoname_downlevel.obj
 0002:000064ac       ??_C@_1M@JAIJPENP@?$AAc?$AAy?$AA?9?$AAG?$AAB@ 0046d4ac     libucrt:lcidtoname_downlevel.obj
 0002:000064bc       ??_C@_1M@PHGFBEPN@?$AAg?$AAl?$AA?9?$AAE?$AAS@ 0046d4bc     libucrt:lcidtoname_downlevel.obj
 0002:000064cc       ??_C@_1O@KPIPDNCP@?$AAk?$AAo?$AAk?$AA?9?$AAI?$AAN@ 0046d4cc     libucrt:lcidtoname_downlevel.obj
 0002:000064dc       ??_C@_1O@KNHJLDJA@?$AAs?$AAy?$AAr?$AA?9?$AAS?$AAY@ 0046d4dc     libucrt:lcidtoname_downlevel.obj
 0002:000064ec       ??_C@_1O@MKEKBLAH@?$AAd?$AAi?$AAv?$AA?9?$AAM?$AAV@ 0046d4ec     libucrt:lcidtoname_downlevel.obj
 0002:000064fc       ??_C@_1O@OHDCKDDF@?$AAq?$AAu?$AAz?$AA?9?$AAB?$AAO@ 0046d4fc     libucrt:lcidtoname_downlevel.obj
 0002:0000650c       ??_C@_1M@LEPJNLFD@?$AAn?$AAs?$AA?9?$AAZ?$AAA@ 0046d50c     libucrt:lcidtoname_downlevel.obj
 0002:0000651c       ??_C@_1M@OMLEIIJB@?$AAm?$AAi?$AA?9?$AAN?$AAZ@ 0046d51c     libucrt:lcidtoname_downlevel.obj
 0002:0000652c       ??_C@_1M@PMPEAILG@?$AAa?$AAr?$AA?9?$AAI?$AAQ@ 0046d52c     libucrt:lcidtoname_downlevel.obj
 0002:0000653c       ??_C@_1M@CNKPNOEE@?$AAd?$AAe?$AA?9?$AAC?$AAH@ 0046d53c     libucrt:lcidtoname_downlevel.obj
 0002:0000654c       ??_C@_1M@LKMGMLKO@?$AAe?$AAn?$AA?9?$AAG?$AAB@ 0046d54c     libucrt:lcidtoname_downlevel.obj
 0002:0000655c       ??_C@_1M@PGKJFFGL@?$AAe?$AAs?$AA?9?$AAM?$AAX@ 0046d55c     libucrt:lcidtoname_downlevel.obj
 0002:0000656c       ??_C@_1M@DNNANBDC@?$AAf?$AAr?$AA?9?$AAB?$AAE@ 0046d56c     libucrt:lcidtoname_downlevel.obj
 0002:0000657c       ??_C@_1M@HLGMDFHM@?$AAi?$AAt?$AA?9?$AAC?$AAH@ 0046d57c     libucrt:lcidtoname_downlevel.obj
 0002:0000658c       ??_C@_1M@CLLBGJH@?$AAn?$AAl?$AA?9?$AAB?$AAE@ 0046d58c     libucrt:lcidtoname_downlevel.obj
 0002:0000659c       ??_C@_1M@BODBOGLF@?$AAn?$AAn?$AA?9?$AAN?$AAO@ 0046d59c     libucrt:lcidtoname_downlevel.obj
 0002:000065ac       ??_C@_1M@HFFAHKAD@?$AAp?$AAt?$AA?9?$AAP?$AAT@ 0046d5ac     libucrt:lcidtoname_downlevel.obj
 0002:000065bc       ??_C@_1BG@LNOAKHIE@?$AAs?$AAr?$AA?9?$AAS?$AAP?$AA?9?$AAL?$AAa?$AAt?$AAn@ 0046d5bc     libucrt:lcidtoname_downlevel.obj
 0002:000065d8       ??_C@_1M@HBMHBGAK@?$AAs?$AAv?$AA?9?$AAF?$AAI@ 0046d5d8     libucrt:lcidtoname_downlevel.obj
 0002:000065e8       ??_C@_1BG@DGCJGJBE@?$AAa?$AAz?$AA?9?$AAA?$AAZ?$AA?9?$AAC?$AAy?$AAr?$AAl@ 0046d5e8     libucrt:lcidtoname_downlevel.obj
 0002:00006604       ??_C@_1M@KEJDAAHB@?$AAs?$AAe?$AA?9?$AAS?$AAE@ 0046d604     libucrt:lcidtoname_downlevel.obj
 0002:00006614       ??_C@_1M@HEIBJJAD@?$AAm?$AAs?$AA?9?$AAB?$AAN@ 0046d614     libucrt:lcidtoname_downlevel.obj
 0002:00006624       ??_C@_1BG@PBGJMCEM@?$AAu?$AAz?$AA?9?$AAU?$AAZ?$AA?9?$AAC?$AAy?$AAr?$AAl@ 0046d624     libucrt:lcidtoname_downlevel.obj
 0002:00006640       ??_C@_1O@LAOBCMDF@?$AAq?$AAu?$AAz?$AA?9?$AAE?$AAC@ 0046d640     libucrt:lcidtoname_downlevel.obj
 0002:00006650       ??_C@_1M@POEEMAIO@?$AAa?$AAr?$AA?9?$AAE?$AAG@ 0046d650     libucrt:lcidtoname_downlevel.obj
 0002:00006660       ??_C@_1M@EFAKDEDL@?$AAz?$AAh?$AA?9?$AAH?$AAK@ 0046d660     libucrt:lcidtoname_downlevel.obj
 0002:00006670       ??_C@_1M@HKKIJHGI@?$AAd?$AAe?$AA?9?$AAA?$AAT@ 0046d670     libucrt:lcidtoname_downlevel.obj
 0002:00006680       ??_C@_1M@KBFBEHJF@?$AAe?$AAn?$AA?9?$AAA?$AAU@ 0046d680     libucrt:lcidtoname_downlevel.obj
 0002:00006690       ??_C@_1M@MNPLFAAH@?$AAe?$AAs?$AA?9?$AAE?$AAS@ 0046d690     libucrt:lcidtoname_downlevel.obj
 0002:000066a0       ??_C@_1M@HJOOJFMA@?$AAf?$AAr?$AA?9?$AAC?$AAA@ 0046d6a0     libucrt:lcidtoname_downlevel.obj
 0002:000066b0       ??_C@_1BG@JPOFPNAB@?$AAs?$AAr?$AA?9?$AAS?$AAP?$AA?9?$AAC?$AAy?$AAr?$AAl@ 0046d6b0     libucrt:lcidtoname_downlevel.obj
 0002:000066cc       ??_C@_1M@LNFOCMOB@?$AAs?$AAe?$AA?9?$AAF?$AAI@ 0046d6cc     libucrt:lcidtoname_downlevel.obj
 0002:000066dc       ??_C@_1O@MGJBOAMB@?$AAq?$AAu?$AAz?$AA?9?$AAP?$AAE@ 0046d6dc     libucrt:lcidtoname_downlevel.obj
 0002:000066ec       ??_C@_1M@GJINLBOK@?$AAa?$AAr?$AA?9?$AAL?$AAY@ 0046d6ec     libucrt:lcidtoname_downlevel.obj
 0002:000066fc       ??_C@_1M@GGMNHJNL@?$AAz?$AAh?$AA?9?$AAS?$AAG@ 0046d6fc     libucrt:lcidtoname_downlevel.obj
 0002:0000670c       ??_C@_1M@HOIKODND@?$AAd?$AAe?$AA?9?$AAL?$AAU@ 0046d70c     libucrt:lcidtoname_downlevel.obj
 0002:0000671c       ??_C@_1M@DDOCCGFG@?$AAe?$AAn?$AA?9?$AAC?$AAA@ 0046d71c     libucrt:lcidtoname_downlevel.obj
 0002:0000672c       ??_C@_1M@BNOEMJLF@?$AAe?$AAs?$AA?9?$AAG?$AAT@ 0046d72c     libucrt:lcidtoname_downlevel.obj
 0002:0000673c       ??_C@_1M@EOGNKEK@?$AAf?$AAr?$AA?9?$AAC?$AAH@ 0046d73c     libucrt:lcidtoname_downlevel.obj
 0002:0000674c       ??_C@_1M@FLIDJFHL@?$AAh?$AAr?$AA?9?$AAB?$AAA@ 0046d74c     libucrt:lcidtoname_downlevel.obj
 0002:0000675c       ??_C@_1O@FMCELNAJ@?$AAs?$AAm?$AAj?$AA?9?$AAN?$AAO@ 0046d75c     libucrt:lcidtoname_downlevel.obj
 0002:0000676c       ??_C@_1M@JHGLJMGJ@?$AAa?$AAr?$AA?9?$AAD?$AAZ@ 0046d76c     libucrt:lcidtoname_downlevel.obj
 0002:0000677c       ??_C@_1M@JKKFDCNP@?$AAz?$AAh?$AA?9?$AAM?$AAO@ 0046d77c     libucrt:lcidtoname_downlevel.obj
 0002:0000678c       ??_C@_1M@GEEFALPE@?$AAd?$AAe?$AA?9?$AAL?$AAI@ 0046d78c     libucrt:lcidtoname_downlevel.obj
 0002:0000679c       ??_C@_1M@IGEOFBG@?$AAe?$AAn?$AA?9?$AAN?$AAZ@ 0046d79c     libucrt:lcidtoname_downlevel.obj
 0002:000067ac       ??_C@_1M@KDBONEHP@?$AAe?$AAs?$AA?9?$AAC?$AAR@ 0046d7ac     libucrt:lcidtoname_downlevel.obj
 0002:000067bc       ??_C@_1M@FHMDOHNN@?$AAf?$AAr?$AA?9?$AAL?$AAU@ 0046d7bc     libucrt:lcidtoname_downlevel.obj
 0002:000067cc       ??_C@_1BG@NFKKMAFG@?$AAb?$AAs?$AA?9?$AAB?$AAA?$AA?9?$AAL?$AAa?$AAt?$AAn@ 0046d7cc     libucrt:lcidtoname_downlevel.obj
 0002:000067e8       ??_C@_1O@IMNBEMCI@?$AAs?$AAm?$AAj?$AA?9?$AAS?$AAE@ 0046d7e8     libucrt:lcidtoname_downlevel.obj
 0002:000067f8       ??_C@_1M@DHHMBNDP@?$AAa?$AAr?$AA?9?$AAM?$AAA@ 0046d7f8     libucrt:lcidtoname_downlevel.obj
 0002:00006808       ??_C@_1M@BNBLJCGH@?$AAe?$AAn?$AA?9?$AAI?$AAE@ 0046d808     libucrt:lcidtoname_downlevel.obj
 0002:00006818       ??_C@_1M@GEPAFMDL@?$AAe?$AAs?$AA?9?$AAP?$AAA@ 0046d818     libucrt:lcidtoname_downlevel.obj
 0002:00006828       ??_C@_1M@OJONDMDL@?$AAf?$AAr?$AA?9?$AAM?$AAC@ 0046d828     libucrt:lcidtoname_downlevel.obj
 0002:00006838       ??_C@_1BG@OBCNFJB@?$AAs?$AAr?$AA?9?$AAB?$AAA?$AA?9?$AAL?$AAa?$AAt?$AAn@ 0046d838     libucrt:lcidtoname_downlevel.obj
 0002:00006854       ??_C@_1O@KEMEEGPO@?$AAs?$AAm?$AAa?$AA?9?$AAN?$AAO@ 0046d854     libucrt:lcidtoname_downlevel.obj
 0002:00006864       ??_C@_1M@ELMGFODK@?$AAa?$AAr?$AA?9?$AAT?$AAN@ 0046d864     libucrt:lcidtoname_downlevel.obj
 0002:00006874       ??_C@_1M@BHDLHFAF@?$AAe?$AAn?$AA?9?$AAZ?$AAA@ 0046d874     libucrt:lcidtoname_downlevel.obj
 0002:00006884       ??_C@_1M@BMGIGLIF@?$AAe?$AAs?$AA?9?$AAD?$AAO@ 0046d884     libucrt:lcidtoname_downlevel.obj
 0002:00006894       ??_C@_1BG@CMBHIPBE@?$AAs?$AAr?$AA?9?$AAB?$AAA?$AA?9?$AAC?$AAy?$AAr?$AAl@ 0046d894     libucrt:lcidtoname_downlevel.obj
 0002:000068b0       ??_C@_1O@HEDBLHNP@?$AAs?$AAm?$AAa?$AA?9?$AAS?$AAE@ 0046d8b0     libucrt:lcidtoname_downlevel.obj
 0002:000068c0       ??_C@_1M@DAGCADIM@?$AAa?$AAr?$AA?9?$AAO?$AAM@ 0046d8c0     libucrt:lcidtoname_downlevel.obj
 0002:000068d0       ??_C@_1M@FODLMICG@?$AAe?$AAn?$AA?9?$AAJ?$AAM@ 0046d8d0     libucrt:lcidtoname_downlevel.obj
 0002:000068e0       ??_C@_1M@DNMLCIHB@?$AAe?$AAs?$AA?9?$AAV?$AAE@ 0046d8e0     libucrt:lcidtoname_downlevel.obj
 0002:000068f0       ??_C@_1O@EOKHMKJK@?$AAs?$AAm?$AAs?$AA?9?$AAF?$AAI@ 0046d8f0     libucrt:lcidtoname_downlevel.obj
 0002:00006900       ??_C@_1M@CAFJMKOF@?$AAa?$AAr?$AA?9?$AAY?$AAE@ 0046d900     libucrt:lcidtoname_downlevel.obj
 0002:00006910       ??_C@_1M@CBFHIJLI@?$AAe?$AAn?$AA?9?$AAC?$AAB@ 0046d910     libucrt:lcidtoname_downlevel.obj
 0002:00006920       ??_C@_1M@BGNFLDN@?$AAe?$AAs?$AA?9?$AAC?$AAO@ 0046d920     libucrt:lcidtoname_downlevel.obj
 0002:00006930       ??_C@_1O@JMPHMAMC@?$AAs?$AAm?$AAn?$AA?9?$AAF?$AAI@ 0046d930     libucrt:lcidtoname_downlevel.obj
 0002:00006940       ??_C@_1M@JLANABKE@?$AAa?$AAr?$AA?9?$AAS?$AAY@ 0046d940     libucrt:lcidtoname_downlevel.obj
 0002:00006950       ??_C@_1M@HPKGCFGN@?$AAe?$AAn?$AA?9?$AAB?$AAZ@ 0046d950     libucrt:lcidtoname_downlevel.obj
 0002:00006960       ??_C@_1M@OLJCMLGM@?$AAe?$AAs?$AA?9?$AAP?$AAE@ 0046d960     libucrt:lcidtoname_downlevel.obj
 0002:00006970       ??_C@_1M@MKKGFKLE@?$AAa?$AAr?$AA?9?$AAJ?$AAO@ 0046d970     libucrt:lcidtoname_downlevel.obj
 0002:00006980       ??_C@_1M@EKPGLDNI@?$AAe?$AAn?$AA?9?$AAT?$AAT@ 0046d980     libucrt:lcidtoname_downlevel.obj
 0002:00006990       ??_C@_1M@OONGHFHE@?$AAe?$AAs?$AA?9?$AAA?$AAR@ 0046d990     libucrt:lcidtoname_downlevel.obj
 0002:000069a0       ??_C@_1M@OOJFGBHE@?$AAa?$AAr?$AA?9?$AAL?$AAB@ 0046d9a0     libucrt:lcidtoname_downlevel.obj
 0002:000069b0       ??_C@_1M@GCEJHNEG@?$AAe?$AAn?$AA?9?$AAZ?$AAW@ 0046d9b0     libucrt:lcidtoname_downlevel.obj
 0002:000069c0       ??_C@_1M@JNOCAHJI@?$AAe?$AAs?$AA?9?$AAE?$AAC@ 0046d9c0     libucrt:lcidtoname_downlevel.obj
 0002:000069d0       ??_C@_1M@JEFHPGGB@?$AAa?$AAr?$AA?9?$AAK?$AAW@ 0046d9d0     libucrt:lcidtoname_downlevel.obj
 0002:000069e0       ??_C@_1M@MLKIBJOJ@?$AAe?$AAn?$AA?9?$AAP?$AAH@ 0046d9e0     libucrt:lcidtoname_downlevel.obj
 0002:000069f0       ??_C@_1M@BDNIPEND@?$AAe?$AAs?$AA?9?$AAC?$AAL@ 0046d9f0     libucrt:lcidtoname_downlevel.obj
 0002:00006a00       ??_C@_1M@MPNMEKBD@?$AAa?$AAr?$AA?9?$AAA?$AAE@ 0046da00     libucrt:lcidtoname_downlevel.obj
 0002:00006a10       ??_C@_1M@KBJALCPI@?$AAe?$AAs?$AA?9?$AAU?$AAY@ 0046da10     libucrt:lcidtoname_downlevel.obj
 0002:00006a20       ??_C@_1M@LLCCOAGA@?$AAa?$AAr?$AA?9?$AAB?$AAH@ 0046da20     libucrt:lcidtoname_downlevel.obj
 0002:00006a30       ??_C@_1M@PBFNCDEL@?$AAe?$AAs?$AA?9?$AAP?$AAY@ 0046da30     libucrt:lcidtoname_downlevel.obj
 0002:00006a40       ??_C@_1M@EDGINPNP@?$AAa?$AAr?$AA?9?$AAQ?$AAA@ 0046da40     libucrt:lcidtoname_downlevel.obj
 0002:00006a50       ??_C@_1M@MKDBIIJI@?$AAe?$AAs?$AA?9?$AAB?$AAO@ 0046da50     libucrt:lcidtoname_downlevel.obj
 0002:00006a60       ??_C@_1M@CPKKEBLD@?$AAe?$AAs?$AA?9?$AAS?$AAV@ 0046da60     libucrt:lcidtoname_downlevel.obj
 0002:00006a70       ??_C@_1M@NDBGMMJL@?$AAe?$AAs?$AA?9?$AAH?$AAN@ 0046da70     libucrt:lcidtoname_downlevel.obj
 0002:00006a80       ??_C@_1M@JIJIBHDP@?$AAe?$AAs?$AA?9?$AAN?$AAI@ 0046da80     libucrt:lcidtoname_downlevel.obj
 0002:00006a90       ??_C@_1M@CGFMKEEK@?$AAe?$AAs?$AA?9?$AAP?$AAR@ 0046da90     libucrt:lcidtoname_downlevel.obj
 0002:00006aa0       ??_C@_1O@ICJHKIIK@?$AAz?$AAh?$AA?9?$AAC?$AAH?$AAT@ 0046daa0     libucrt:lcidtoname_downlevel.obj
 0002:00006ab0       ??_C@_15CLNEJCE@?$AAs?$AAr@ 0046dab0     libucrt:lcidtoname_downlevel.obj
 0002:00007344       ??_C@_1M@KAHEKEIG@?$AAa?$AAf?$AA?9?$AAz?$AAa@ 0046e344     libucrt:lcidtoname_downlevel.obj
 0002:00007354       ??_C@_1M@GIECOABL@?$AAa?$AAr?$AA?9?$AAa?$AAe@ 0046e354     libucrt:lcidtoname_downlevel.obj
 0002:00007364       ??_C@_1M@BMLMEKGI@?$AAa?$AAr?$AA?9?$AAb?$AAh@ 0046e364     libucrt:lcidtoname_downlevel.obj
 0002:00007374       ??_C@_1M@DAPFDGGB@?$AAa?$AAr?$AA?9?$AAd?$AAz@ 0046e374     libucrt:lcidtoname_downlevel.obj
 0002:00007384       ??_C@_1M@FJNKGKIG@?$AAa?$AAr?$AA?9?$AAe?$AAg@ 0046e384     libucrt:lcidtoname_downlevel.obj
 0002:00007394       ??_C@_1M@FLGKKCLO@?$AAa?$AAr?$AA?9?$AAi?$AAq@ 0046e394     libucrt:lcidtoname_downlevel.obj
 0002:000073a4       ??_C@_1M@GNDIPALM@?$AAa?$AAr?$AA?9?$AAj?$AAo@ 0046e3a4     libucrt:lcidtoname_downlevel.obj
 0002:000073b4       ??_C@_1M@DDMJFMGJ@?$AAa?$AAr?$AA?9?$AAk?$AAw@ 0046e3b4     libucrt:lcidtoname_downlevel.obj
 0002:000073c4       ??_C@_1M@EJALMLHM@?$AAa?$AAr?$AA?9?$AAl?$AAb@ 0046e3c4     libucrt:lcidtoname_downlevel.obj
 0002:000073d4       ??_C@_1M@MOBDBLOC@?$AAa?$AAr?$AA?9?$AAl?$AAy@ 0046e3d4     libucrt:lcidtoname_downlevel.obj
 0002:000073e4       ??_C@_1M@JAOCLHDH@?$AAa?$AAr?$AA?9?$AAm?$AAa@ 0046e3e4     libucrt:lcidtoname_downlevel.obj
 0002:000073f4       ??_C@_1M@JHPMKJIE@?$AAa?$AAr?$AA?9?$AAo?$AAm@ 0046e3f4     libucrt:lcidtoname_downlevel.obj
 0002:00007404       ??_C@_1M@OEPGHFNH@?$AAa?$AAr?$AA?9?$AAq?$AAa@ 0046e404     libucrt:lcidtoname_downlevel.obj
 0002:00007414       ??_C@_1M@KJDONENM@?$AAa?$AAr?$AA?9?$AAs?$AAa@ 0046e414     libucrt:lcidtoname_downlevel.obj
 0002:00007424       ??_C@_1M@DMJDKLKM@?$AAa?$AAr?$AA?9?$AAs?$AAy@ 0046e424     libucrt:lcidtoname_downlevel.obj
 0002:00007434       ??_C@_1M@OMFIPEDC@?$AAa?$AAr?$AA?9?$AAt?$AAn@ 0046e434     libucrt:lcidtoname_downlevel.obj
 0002:00007444       ??_C@_1M@IHMHGAON@?$AAa?$AAr?$AA?9?$AAy?$AAe@ 0046e444     libucrt:lcidtoname_downlevel.obj
 0002:00007454       ??_C@_1BG@KDCPGJGB@?$AAa?$AAz?$AA?9?$AAa?$AAz?$AA?9?$AAc?$AAy?$AAr?$AAl@ 0046e454     libucrt:lcidtoname_downlevel.obj
 0002:00007470       ??_C@_1BG@IBCKDDOE@?$AAa?$AAz?$AA?9?$AAa?$AAz?$AA?9?$AAl?$AAa?$AAt?$AAn@ 0046e470     libucrt:lcidtoname_downlevel.obj
 0002:0000748c       ??_C@_1M@EGPFDCPD@?$AAb?$AAe?$AA?9?$AAb?$AAy@ 0046e48c     libucrt:lcidtoname_downlevel.obj
 0002:0000749c       ??_C@_1M@PCMGMCGC@?$AAb?$AAg?$AA?9?$AAb?$AAg@ 0046e49c     libucrt:lcidtoname_downlevel.obj
 0002:000074ac       ??_C@_1M@BJBMFGOB@?$AAb?$AAn?$AA?9?$AAi?$AAn@ 0046e4ac     libucrt:lcidtoname_downlevel.obj
 0002:000074bc       ??_C@_1BG@EAKMMACD@?$AAb?$AAs?$AA?9?$AAb?$AAa?$AA?9?$AAl?$AAa?$AAt?$AAn@ 0046e4bc     libucrt:lcidtoname_downlevel.obj
 0002:000074d8       ??_C@_1M@KGADAODK@?$AAc?$AAa?$AA?9?$AAe?$AAs@ 0046e4d8     libucrt:lcidtoname_downlevel.obj
 0002:000074e8       ??_C@_1M@COAJPDHI@?$AAc?$AAs?$AA?9?$AAc?$AAz@ 0046e4e8     libucrt:lcidtoname_downlevel.obj
 0002:000074f8       ??_C@_1M@DHBHFONH@?$AAc?$AAy?$AA?9?$AAg?$AAb@ 0046e4f8     libucrt:lcidtoname_downlevel.obj
 0002:00007508       ??_C@_1M@IMGKELGA@?$AAd?$AAa?$AA?9?$AAd?$AAk@ 0046e508     libucrt:lcidtoname_downlevel.obj
 0002:00007518       ??_C@_1M@NNDGDNGA@?$AAd?$AAe?$AA?9?$AAa?$AAt@ 0046e518     libucrt:lcidtoname_downlevel.obj
 0002:00007528       ??_C@_1M@IKDBHEEM@?$AAd?$AAe?$AA?9?$AAc?$AAh@ 0046e528     libucrt:lcidtoname_downlevel.obj
 0002:00007538       ??_C@_1M@GFFOJMCJ@?$AAd?$AAe?$AA?9?$AAd?$AAe@ 0046e538     libucrt:lcidtoname_downlevel.obj
 0002:00007548       ??_C@_1M@MDNLKBPM@?$AAd?$AAe?$AA?9?$AAl?$AAi@ 0046e548     libucrt:lcidtoname_downlevel.obj
 0002:00007558       ??_C@_1M@NJBEEJNL@?$AAd?$AAe?$AA?9?$AAl?$AAu@ 0046e558     libucrt:lcidtoname_downlevel.obj
 0002:00007568       ??_C@_1O@GNNELBAP@?$AAd?$AAi?$AAv?$AA?9?$AAm?$AAv@ 0046e568     libucrt:lcidtoname_downlevel.obj
 0002:00007578       ??_C@_1M@EJLEOGAE@?$AAe?$AAl?$AA?9?$AAg?$AAr@ 0046e578     libucrt:lcidtoname_downlevel.obj
 0002:00007588       ??_C@_1M@GMPONJN@?$AAe?$AAn?$AA?9?$AAa?$AAu@ 0046e588     libucrt:lcidtoname_downlevel.obj
 0002:00007598       ??_C@_1M@NIDIIPGF@?$AAe?$AAn?$AA?9?$AAb?$AAz@ 0046e598     libucrt:lcidtoname_downlevel.obj
 0002:000075a8       ??_C@_1M@JEHMIMFO@?$AAe?$AAn?$AA?9?$AAc?$AAa@ 0046e5a8     libucrt:lcidtoname_downlevel.obj
 0002:000075b8       ??_C@_1M@IGMJCDLA@?$AAe?$AAn?$AA?9?$AAc?$AAb@ 0046e5b8     libucrt:lcidtoname_downlevel.obj
 0002:000075c8       ??_C@_1M@BNFIGBKG@?$AAe?$AAn?$AA?9?$AAg?$AAb@ 0046e5c8     libucrt:lcidtoname_downlevel.obj
 0002:000075d8       ??_C@_1M@LKIFDIGP@?$AAe?$AAn?$AA?9?$AAi?$AAe@ 0046e5d8     libucrt:lcidtoname_downlevel.obj
 0002:000075e8       ??_C@_1M@PJKFGCCO@?$AAe?$AAn?$AA?9?$AAj?$AAm@ 0046e5e8     libucrt:lcidtoname_downlevel.obj
 0002:000075f8       ??_C@_1M@KPPKEPBO@?$AAe?$AAn?$AA?9?$AAn?$AAz@ 0046e5f8     libucrt:lcidtoname_downlevel.obj
 0002:00007608       ??_C@_1M@GMDGLDOB@?$AAe?$AAn?$AA?9?$AAp?$AAh@ 0046e608     libucrt:lcidtoname_downlevel.obj
 0002:00007618       ??_C@_1M@ONGIBJNA@?$AAe?$AAn?$AA?9?$AAt?$AAt@ 0046e618     libucrt:lcidtoname_downlevel.obj
 0002:00007628       ??_C@_1M@LLODPCMM@?$AAe?$AAn?$AA?9?$AAu?$AAs@ 0046e628     libucrt:lcidtoname_downlevel.obj
 0002:00007638       ??_C@_1M@LAKFNPAN@?$AAe?$AAn?$AA?9?$AAz?$AAa@ 0046e638     libucrt:lcidtoname_downlevel.obj
 0002:00007648       ??_C@_1M@MFNHNHEO@?$AAe?$AAn?$AA?9?$AAz?$AAw@ 0046e648     libucrt:lcidtoname_downlevel.obj
 0002:00007658       ??_C@_1M@EJEINPHM@?$AAe?$AAs?$AA?9?$AAa?$AAr@ 0046e658     libucrt:lcidtoname_downlevel.obj
 0002:00007668       ??_C@_1M@GNKPCCJA@?$AAe?$AAs?$AA?9?$AAb?$AAo@ 0046e668     libucrt:lcidtoname_downlevel.obj
 0002:00007678       ??_C@_1M@LEEGFONL@?$AAe?$AAs?$AA?9?$AAc?$AAl@ 0046e678     libucrt:lcidtoname_downlevel.obj
 0002:00007688       ??_C@_1M@KGPDPBDF@?$AAe?$AAs?$AA?9?$AAc?$AAo@ 0046e688     libucrt:lcidtoname_downlevel.obj
 0002:00007698       ??_C@_1M@EIAHOHH@?$AAe?$AAs?$AA?9?$AAc?$AAr@ 0046e698     libucrt:lcidtoname_downlevel.obj
 0002:000076a8       ??_C@_1M@LLPGMBIN@?$AAe?$AAs?$AA?9?$AAd?$AAo@ 0046e6a8     libucrt:lcidtoname_downlevel.obj
 0002:000076b8       ??_C@_1M@DKHMKNJA@?$AAe?$AAs?$AA?9?$AAe?$AAc@ 0046e6b8     libucrt:lcidtoname_downlevel.obj
 0002:000076c8       ??_C@_1M@GKGFPKAP@?$AAe?$AAs?$AA?9?$AAe?$AAs@ 0046e6c8     libucrt:lcidtoname_downlevel.obj
 0002:000076d8       ??_C@_1M@LKHKGDLN@?$AAe?$AAs?$AA?9?$AAg?$AAt@ 0046e6d8     libucrt:lcidtoname_downlevel.obj
 0002:000076e8       ??_C@_1M@HEIIGGJD@?$AAe?$AAs?$AA?9?$AAh?$AAn@ 0046e6e8     libucrt:lcidtoname_downlevel.obj
 0002:000076f8       ??_C@_1M@FBDHPPGD@?$AAe?$AAs?$AA?9?$AAm?$AAx@ 0046e6f8     libucrt:lcidtoname_downlevel.obj
 0002:00007708       ??_C@_1M@DPAGLNDH@?$AAe?$AAs?$AA?9?$AAn?$AAi@ 0046e708     libucrt:lcidtoname_downlevel.obj
 0002:00007718       ??_C@_1M@MDGOPGDD@?$AAe?$AAs?$AA?9?$AAp?$AAa@ 0046e718     libucrt:lcidtoname_downlevel.obj
 0002:00007728       ??_C@_1M@EMAMGBGE@?$AAe?$AAs?$AA?9?$AAp?$AAe@ 0046e728     libucrt:lcidtoname_downlevel.obj
 0002:00007738       ??_C@_1M@IBMCAOEC@?$AAe?$AAs?$AA?9?$AAp?$AAr@ 0046e738     libucrt:lcidtoname_downlevel.obj
 0002:00007748       ??_C@_1M@FGMDIJED@?$AAe?$AAs?$AA?9?$AAp?$AAy@ 0046e748     libucrt:lcidtoname_downlevel.obj
 0002:00007758       ??_C@_1M@IIDEOLLL@?$AAe?$AAs?$AA?9?$AAs?$AAv@ 0046e758     libucrt:lcidtoname_downlevel.obj
 0002:00007768       ??_C@_1M@GAOBIPA@?$AAe?$AAs?$AA?9?$AAu?$AAy@ 0046e768     libucrt:lcidtoname_downlevel.obj
 0002:00007778       ??_C@_1M@JKFFICHJ@?$AAe?$AAs?$AA?9?$AAv?$AAe@ 0046e778     libucrt:lcidtoname_downlevel.obj
 0002:00007788       ??_C@_1M@PNMLOJDF@?$AAe?$AAt?$AA?9?$AAe?$AAe@ 0046e788     libucrt:lcidtoname_downlevel.obj
 0002:00007798       ??_C@_1M@GHHLIKEI@?$AAe?$AAu?$AA?9?$AAe?$AAs@ 0046e798     libucrt:lcidtoname_downlevel.obj
 0002:000077a8       ??_C@_1M@PBNONODE@?$AAf?$AAa?$AA?9?$AAi?$AAr@ 0046e7a8     libucrt:lcidtoname_downlevel.obj
 0002:000077b8       ??_C@_1M@JEEHPMIL@?$AAf?$AAi?$AA?9?$AAf?$AAi@ 0046e7b8     libucrt:lcidtoname_downlevel.obj
 0002:000077c8       ??_C@_1M@LMDCNDBA@?$AAf?$AAo?$AA?9?$AAf?$AAo@ 0046e7c8     libucrt:lcidtoname_downlevel.obj
 0002:000077d8       ??_C@_1M@JKEOHLDK@?$AAf?$AAr?$AA?9?$AAb?$AAe@ 0046e7d8     libucrt:lcidtoname_downlevel.obj
 0002:000077e8       ??_C@_1M@NOHADPMI@?$AAf?$AAr?$AA?9?$AAc?$AAa@ 0046e7e8     libucrt:lcidtoname_downlevel.obj
 0002:000077f8       ??_C@_1M@KDHIHAEC@?$AAf?$AAr?$AA?9?$AAc?$AAh@ 0046e7f8     libucrt:lcidtoname_downlevel.obj
 0002:00007808       ??_C@_1M@MMBBFGAK@?$AAf?$AAr?$AA?9?$AAf?$AAr@ 0046e808     libucrt:lcidtoname_downlevel.obj
 0002:00007818       ??_C@_1M@PAFNENNF@?$AAf?$AAr?$AA?9?$AAl?$AAu@ 0046e818     libucrt:lcidtoname_downlevel.obj
 0002:00007828       ??_C@_1M@EOHDJGDD@?$AAf?$AAr?$AA?9?$AAm?$AAc@ 0046e828     libucrt:lcidtoname_downlevel.obj
 0002:00007838       ??_C@_1M@FAPLLOPF@?$AAg?$AAl?$AA?9?$AAe?$AAs@ 0046e838     libucrt:lcidtoname_downlevel.obj
 0002:00007848       ??_C@_1M@FOPBFLOO@?$AAg?$AAu?$AA?9?$AAi?$AAn@ 0046e848     libucrt:lcidtoname_downlevel.obj
 0002:00007858       ??_C@_1M@KBMCINPM@?$AAh?$AAe?$AA?9?$AAi?$AAl@ 0046e858     libucrt:lcidtoname_downlevel.obj
 0002:00007868       ??_C@_1M@BBPHKFPJ@?$AAh?$AAi?$AA?9?$AAi?$AAn@ 0046e868     libucrt:lcidtoname_downlevel.obj
 0002:00007878       ??_C@_1M@PMBNDPHD@?$AAh?$AAr?$AA?9?$AAb?$AAa@ 0046e878     libucrt:lcidtoname_downlevel.obj
 0002:00007888       ??_C@_1M@BPCKOEGE@?$AAh?$AAr?$AA?9?$AAh?$AAr@ 0046e888     libucrt:lcidtoname_downlevel.obj
 0002:00007898       ??_C@_1M@GACBMHKE@?$AAh?$AAu?$AA?9?$AAh?$AAu@ 0046e898     libucrt:lcidtoname_downlevel.obj
 0002:000078a8       ??_C@_1M@MILPAJJC@?$AAh?$AAy?$AA?9?$AAa?$AAm@ 0046e8a8     libucrt:lcidtoname_downlevel.obj
 0002:000078b8       ??_C@_1M@BABBICEC@?$AAi?$AAd?$AA?9?$AAi?$AAd@ 0046e8b8     libucrt:lcidtoname_downlevel.obj
 0002:000078c8       ??_C@_1M@BIKNHHPF@?$AAi?$AAs?$AA?9?$AAi?$AAs@ 0046e8c8     libucrt:lcidtoname_downlevel.obj
 0002:000078d8       ??_C@_1M@NMPCJPHE@?$AAi?$AAt?$AA?9?$AAc?$AAh@ 0046e8d8     libucrt:lcidtoname_downlevel.obj
 0002:000078e8       ??_C@_1M@GHKGFEDF@?$AAi?$AAt?$AA?9?$AAi?$AAt@ 0046e8e8     libucrt:lcidtoname_downlevel.obj
 0002:000078f8       ??_C@_1M@NIEJCJJA@?$AAj?$AAa?$AA?9?$AAj?$AAp@ 0046e8f8     libucrt:lcidtoname_downlevel.obj
 0002:00007908       ??_C@_1M@JILFNBIM@?$AAk?$AAa?$AA?9?$AAg?$AAe@ 0046e908     libucrt:lcidtoname_downlevel.obj
 0002:00007918       ??_C@_1M@PACPMGPH@?$AAk?$AAk?$AA?9?$AAk?$AAz@ 0046e918     libucrt:lcidtoname_downlevel.obj
 0002:00007928       ??_C@_1M@IELFGMHA@?$AAk?$AAn?$AA?9?$AAi?$AAn@ 0046e928     libucrt:lcidtoname_downlevel.obj
 0002:00007938       ??_C@_1O@IBBJHCH@?$AAk?$AAo?$AAk?$AA?9?$AAi?$AAn@ 0046e938     libucrt:lcidtoname_downlevel.obj
 0002:00007948       ??_C@_1M@DMHAEOGC@?$AAk?$AAo?$AA?9?$AAk?$AAr@ 0046e948     libucrt:lcidtoname_downlevel.obj
 0002:00007958       ??_C@_1M@HBAHBIGA@?$AAk?$AAy?$AA?9?$AAk?$AAg@ 0046e958     libucrt:lcidtoname_downlevel.obj
 0002:00007968       ??_C@_1M@KPMILCJG@?$AAl?$AAt?$AA?9?$AAl?$AAt@ 0046e968     libucrt:lcidtoname_downlevel.obj
 0002:00007978       ??_C@_1M@BDEKKCA@?$AAl?$AAv?$AA?9?$AAl?$AAv@ 0046e978     libucrt:lcidtoname_downlevel.obj
 0002:00007988       ??_C@_1M@ELCKCCJJ@?$AAm?$AAi?$AA?9?$AAn?$AAz@ 0046e988     libucrt:lcidtoname_downlevel.obj
 0002:00007998       ??_C@_1M@CBOOLAPA@?$AAm?$AAk?$AA?9?$AAm?$AAk@ 0046e998     libucrt:lcidtoname_downlevel.obj
 0002:000079a8       ??_C@_1M@GPHNBJKN@?$AAm?$AAl?$AA?9?$AAi?$AAn@ 0046e9a8     libucrt:lcidtoname_downlevel.obj
 0002:000079b8       ??_C@_1M@PABJILIG@?$AAm?$AAn?$AA?9?$AAm?$AAn@ 0046e9b8     libucrt:lcidtoname_downlevel.obj
 0002:000079c8       ??_C@_1M@FGBKKIPG@?$AAm?$AAr?$AA?9?$AAi?$AAn@ 0046e9c8     libucrt:lcidtoname_downlevel.obj
 0002:000079d8       ??_C@_1M@NDBPDDAL@?$AAm?$AAs?$AA?9?$AAb?$AAn@ 0046e9d8     libucrt:lcidtoname_downlevel.obj
 0002:000079e8       ??_C@_1M@OPIHOOPI@?$AAm?$AAs?$AA?9?$AAm?$AAy@ 0046e9e8     libucrt:lcidtoname_downlevel.obj
 0002:000079f8       ??_C@_1M@PPDBCNFM@?$AAm?$AAt?$AA?9?$AAm?$AAt@ 0046e9f8     libucrt:lcidtoname_downlevel.obj
 0002:00007a08       ??_C@_1M@KDJDKMDD@?$AAn?$AAb?$AA?9?$AAn?$AAo@ 0046ea08     libucrt:lcidtoname_downlevel.obj
 0002:00007a18       ??_C@_1M@KFCFLMJP@?$AAn?$AAl?$AA?9?$AAb?$AAe@ 0046ea18     libucrt:lcidtoname_downlevel.obj
 0002:00007a28       ??_C@_1M@KPOPDDGO@?$AAn?$AAl?$AA?9?$AAn?$AAl@ 0046ea28     libucrt:lcidtoname_downlevel.obj
 0002:00007a38       ??_C@_1M@LJKPEMLN@?$AAn?$AAn?$AA?9?$AAn?$AAo@ 0046ea38     libucrt:lcidtoname_downlevel.obj
 0002:00007a48       ??_C@_1M@BDGHHBFL@?$AAn?$AAs?$AA?9?$AAz?$AAa@ 0046ea48     libucrt:lcidtoname_downlevel.obj
 0002:00007a58       ??_C@_1M@IDEHOAP@?$AAp?$AAa?$AA?9?$AAi?$AAn@ 0046ea58     libucrt:lcidtoname_downlevel.obj
 0002:00007a68       ??_C@_1M@HDBKGOGH@?$AAp?$AAl?$AA?9?$AAp?$AAl@ 0046ea68     libucrt:lcidtoname_downlevel.obj
 0002:00007a78       ??_C@_1M@LJLLCMEH@?$AAp?$AAt?$AA?9?$AAb?$AAr@ 0046ea78     libucrt:lcidtoname_downlevel.obj
 0002:00007a88       ??_C@_1M@NCMONAAL@?$AAp?$AAt?$AA?9?$AAp?$AAt@ 0046ea88     libucrt:lcidtoname_downlevel.obj
 0002:00007a98       ??_C@_1O@EAKMAJDN@?$AAq?$AAu?$AAz?$AA?9?$AAb?$AAo@ 0046ea98     libucrt:lcidtoname_downlevel.obj
 0002:00007aa8       ??_C@_1O@BHHPIGDN@?$AAq?$AAu?$AAz?$AA?9?$AAe?$AAc@ 0046eaa8     libucrt:lcidtoname_downlevel.obj
 0002:00007ab8       ??_C@_1O@GBAPEKMJ@?$AAq?$AAu?$AAz?$AA?9?$AAp?$AAe@ 0046eab8     libucrt:lcidtoname_downlevel.obj
 0002:00007ac8       ??_C@_1M@CLGLEFBO@?$AAr?$AAo?$AA?9?$AAr?$AAo@ 0046eac8     libucrt:lcidtoname_downlevel.obj
 0002:00007ad8       ??_C@_1M@CEEDODME@?$AAr?$AAu?$AA?9?$AAr?$AAu@ 0046ead8     libucrt:lcidtoname_downlevel.obj
 0002:00007ae8       ??_C@_1M@HPKKKMPP@?$AAs?$AAa?$AA?9?$AAi?$AAn@ 0046eae8     libucrt:lcidtoname_downlevel.obj
 0002:00007af8       ??_C@_1M@BKMAIGOJ@?$AAs?$AAe?$AA?9?$AAf?$AAi@ 0046eaf8     libucrt:lcidtoname_downlevel.obj
 0002:00007b08       ??_C@_1M@NDPIFLFI@?$AAs?$AAe?$AA?9?$AAn?$AAo@ 0046eb08     libucrt:lcidtoname_downlevel.obj
 0002:00007b18       ??_C@_1M@DANKKHJ@?$AAs?$AAe?$AA?9?$AAs?$AAe@ 0046eb18     libucrt:lcidtoname_downlevel.obj
 0002:00007b28       ??_C@_1M@PNBLONPJ@?$AAs?$AAk?$AA?9?$AAs?$AAk@ 0046eb28     libucrt:lcidtoname_downlevel.obj
 0002:00007b38       ??_C@_1M@LFMODOAL@?$AAs?$AAl?$AA?9?$AAs?$AAi@ 0046eb38     libucrt:lcidtoname_downlevel.obj
 0002:00007b48       ??_C@_1O@DFKOMPG@?$AAs?$AAm?$AAa?$AA?9?$AAn?$AAo@ 0046eb48     libucrt:lcidtoname_downlevel.obj
 0002:00007b58       ??_C@_1O@NDKPBNNH@?$AAs?$AAm?$AAa?$AA?9?$AAs?$AAe@ 0046eb58     libucrt:lcidtoname_downlevel.obj
 0002:00007b68       ??_C@_1O@PLLKBHAB@?$AAs?$AAm?$AAj?$AA?9?$AAn?$AAo@ 0046eb68     libucrt:lcidtoname_downlevel.obj
 0002:00007b78       ??_C@_1O@CLEPOGCA@?$AAs?$AAm?$AAj?$AA?9?$AAs?$AAe@ 0046eb78     libucrt:lcidtoname_downlevel.obj
 0002:00007b88       ??_C@_1O@DLGJGKMK@?$AAs?$AAm?$AAn?$AA?9?$AAf?$AAi@ 0046eb88     libucrt:lcidtoname_downlevel.obj
 0002:00007b98       ??_C@_1O@OJDJGAJC@?$AAs?$AAm?$AAs?$AA?9?$AAf?$AAi@ 0046eb98     libucrt:lcidtoname_downlevel.obj
 0002:00007ba8       ??_C@_1M@BOFOGHPB@?$AAs?$AAq?$AA?9?$AAa?$AAl@ 0046eba8     libucrt:lcidtoname_downlevel.obj
 0002:00007bb8       ??_C@_1BG@LJBBIPGB@?$AAs?$AAr?$AA?9?$AAb?$AAa?$AA?9?$AAc?$AAy?$AAr?$AAl@ 0046ebb8     libucrt:lcidtoname_downlevel.obj
 0002:00007bd4       ??_C@_1BG@JLBENFOE@?$AAs?$AAr?$AA?9?$AAb?$AAa?$AA?9?$AAl?$AAa?$AAt?$AAn@ 0046ebd4     libucrt:lcidtoname_downlevel.obj
 0002:00007bf0       ??_C@_1BG@KODPNHE@?$AAs?$AAr?$AA?9?$AAs?$AAp?$AA?9?$AAc?$AAy?$AAr?$AAl@ 0046ebf0     libucrt:lcidtoname_downlevel.obj
 0002:00007c0c       ??_C@_1BG@CIOGKHPB@?$AAs?$AAr?$AA?9?$AAs?$AAp?$AA?9?$AAl?$AAa?$AAt?$AAn@ 0046ec0c     libucrt:lcidtoname_downlevel.obj
 0002:00007c28       ??_C@_1M@NGFJLMAC@?$AAs?$AAv?$AA?9?$AAf?$AAi@ 0046ec28     libucrt:lcidtoname_downlevel.obj
 0002:00007c38       ??_C@_1M@MPJEJAJC@?$AAs?$AAv?$AA?9?$AAs?$AAe@ 0046ec38     libucrt:lcidtoname_downlevel.obj
 0002:00007c48       ??_C@_1M@MPNDHLFK@?$AAs?$AAw?$AA?9?$AAk?$AAe@ 0046ec48     libucrt:lcidtoname_downlevel.obj
 0002:00007c58       ??_C@_1O@KOHBJJI@?$AAs?$AAy?$AAr?$AA?9?$AAs?$AAy@ 0046ec58     libucrt:lcidtoname_downlevel.obj
 0002:00007c68       ??_C@_1M@LDCEFHA@?$AAt?$AAa?$AA?9?$AAi?$AAn@ 0046ec68     libucrt:lcidtoname_downlevel.obj
 0002:00007c78       ??_C@_1M@CNJOFAK@?$AAt?$AAe?$AA?9?$AAi?$AAn@ 0046ec78     libucrt:lcidtoname_downlevel.obj
 0002:00007c88       ??_C@_1M@GNAECACD@?$AAt?$AAh?$AA?9?$AAt?$AAh@ 0046ec88     libucrt:lcidtoname_downlevel.obj
 0002:00007c98       ??_C@_1M@CHBIHOJO@?$AAt?$AAn?$AA?9?$AAz?$AAa@ 0046ec98     libucrt:lcidtoname_downlevel.obj
 0002:00007ca8       ??_C@_1M@GCCMIGPJ@?$AAt?$AAr?$AA?9?$AAt?$AAr@ 0046eca8     libucrt:lcidtoname_downlevel.obj
 0002:00007cb8       ??_C@_1M@CELMCNBK@?$AAt?$AAt?$AA?9?$AAr?$AAu@ 0046ecb8     libucrt:lcidtoname_downlevel.obj
 0002:00007cc8       ??_C@_1M@KLMCELGA@?$AAu?$AAk?$AA?9?$AAu?$AAa@ 0046ecc8     libucrt:lcidtoname_downlevel.obj
 0002:00007cd8       ??_C@_1M@EPAJJAJF@?$AAu?$AAr?$AA?9?$AAp?$AAk@ 0046ecd8     libucrt:lcidtoname_downlevel.obj
 0002:00007ce8       ??_C@_1BG@GEGPMCDJ@?$AAu?$AAz?$AA?9?$AAu?$AAz?$AA?9?$AAc?$AAy?$AAr?$AAl@ 0046ece8     libucrt:lcidtoname_downlevel.obj
 0002:00007d04       ??_C@_1BG@EGGKJILM@?$AAu?$AAz?$AA?9?$AAu?$AAz?$AA?9?$AAl?$AAa?$AAt?$AAn@ 0046ed04     libucrt:lcidtoname_downlevel.obj
 0002:00007d20       ??_C@_1M@GFOCLFF@?$AAv?$AAi?$AA?9?$AAv?$AAn@ 0046ed20     libucrt:lcidtoname_downlevel.obj
 0002:00007d30       ??_C@_1M@CPAMEDFI@?$AAx?$AAh?$AA?9?$AAz?$AAa@ 0046ed30     libucrt:lcidtoname_downlevel.obj
 0002:00007d40       ??_C@_1O@EBKIFIGN@?$AAz?$AAh?$AA?9?$AAc?$AAh?$AAs@ 0046ed40     libucrt:lcidtoname_downlevel.obj
 0002:00007d50       ??_C@_1O@NMHPGANE@?$AAz?$AAh?$AA?9?$AAc?$AAh?$AAt@ 0046ed50     libucrt:lcidtoname_downlevel.obj
 0002:00007d60       ??_C@_1M@LPINJOMC@?$AAz?$AAh?$AA?9?$AAc?$AAn@ 0046ed60     libucrt:lcidtoname_downlevel.obj
 0002:00007d70       ??_C@_1M@OCJEJODD@?$AAz?$AAh?$AA?9?$AAh?$AAk@ 0046ed70     libucrt:lcidtoname_downlevel.obj
 0002:00007d80       ??_C@_1M@DNDLJINH@?$AAz?$AAh?$AA?9?$AAm?$AAo@ 0046ed80     libucrt:lcidtoname_downlevel.obj
 0002:00007d90       ??_C@_1M@MBFDNDND@?$AAz?$AAh?$AA?9?$AAs?$AAg@ 0046ed90     libucrt:lcidtoname_downlevel.obj
 0002:00007da0       ??_C@_1M@IMEPLEPE@?$AAz?$AAh?$AA?9?$AAt?$AAw@ 0046eda0     libucrt:lcidtoname_downlevel.obj
 0002:00007db0       ??_C@_1M@BBGHNHJP@?$AAz?$AAu?$AA?9?$AAz?$AAa@ 0046edb0     libucrt:lcidtoname_downlevel.obj
 0002:00007dc0       ?large_power_data@?1??multiply_by_power_of_ten@__crt_strtox@@YA_NAAUbig_integer@2@I@Z@4QBIB 0046edc0     libucrt:cfout.obj
 0002:00008898       ?large_power_indices@?1??multiply_by_power_of_ten@__crt_strtox@@YA_NAAUbig_integer@2@I@Z@4QBUunpack_index@?1??12@YA_N0I@Z@B 0046f898     libucrt:cfout.obj
 0002:00008950       ?small_powers_of_ten@?1??multiply_by_power_of_ten@__crt_strtox@@YA_NAAUbig_integer@2@I@Z@4QBIB 0046f950     libucrt:cfout.obj
 0002:0000897c       ??_C@_01GBGANLPD@0@        0046f97c     libucrt:cfout.obj
 0002:00008980       ??_C@_05DNEBIAHO@1?$CDINF@ 0046f980     libucrt:cfout.obj
 0002:00008988       ??_C@_06IMKFLFPG@1?$CDQNAN@ 0046f988     libucrt:cfout.obj
 0002:00008990       ??_C@_06PGGFOGJG@1?$CDSNAN@ 0046f990     libucrt:cfout.obj
 0002:00008998       ??_C@_05PHHOCPM@1?$CDIND@  0046f998     libucrt:cfout.obj
 0002:00008a28       ??_C@_1BA@BALFACEM@?$AAC?$AAO?$AAN?$AAO?$AAU?$AAT?$AA$@ 0046fa28     libucrt:initcon.obj
 0002:00008b80       __infinity                 0046fb80     libucrt:87tran.obj
 0002:00008b8a       __minfinity                0046fb8a     libucrt:87tran.obj
 0002:00008b94       __logemax                  0046fb94     libucrt:87tran.obj
 0002:00008bba       __OP_EXPjmptab             0046fbba     libucrt:87tran.obj
 0002:00008bf0       __indefinite               0046fbf0     libucrt:87disp.obj
 0002:00008bfa       __piby2                    0046fbfa     libucrt:87disp.obj
 0002:00008c04       __piby4                    0046fc04     libucrt:87disp.obj
 0002:00008c48       __DEFAULT_CW_in_mem        0046fc48     libucrt:common.obj
 0002:00008c4a       __pi_by_2_to_61            0046fc4a     libucrt:common.obj
 0002:00008d24       ??_C@_03MGHMBJCF@log@      0046fd24     libucrt:libm_error.obj
 0002:00008d28       ??_C@_05HGHHAHAP@log10@    0046fd28     libucrt:libm_error.obj
 0002:00008d30       ??_C@_03KHJOGHMM@exp@      0046fd30     libucrt:libm_error.obj
 0002:00008d34       ??_C@_03JGHBODFD@pow@      0046fd34     libucrt:libm_error.obj
 0002:00008d38       ??_C@_04FIHNOPOL@asin@     0046fd38     libucrt:libm_error.obj
 0002:00008d40       ??_C@_04PDIFKINK@acos@     0046fd40     libucrt:libm_error.obj
 0002:00008d48       ??_C@_04EIAKFFMI@sqrt@     0046fd48     libucrt:libm_error.obj
 0002:00008d50       __real@3ff0000000000000    0046fd50     libucrt:libm_error.obj
 0002:00008d60       ___acrt_log10_table_t      0046fd60     libucrt:log10_tables.obj
 0002:00009240       ___acrt_log10_table_cb     00470240     libucrt:log10_tables.obj
 0002:00009720       __real@0000000000000000    00470720     libucrt:powhlp.obj
 0002:00009730       __real@3fe0000000000000    00470730     libucrt:powhlp.obj
 0002:00009858       ??_C@_04COOMCNPB@sinh@     00470858     libucrt:fpexcept.obj
 0002:00009860       ??_C@_04HPJJNFIM@cosh@     00470860     libucrt:fpexcept.obj
 0002:00009868       ??_C@_04FJHINJAO@tanh@     00470868     libucrt:fpexcept.obj
 0002:00009870       ??_C@_04MLLJIGOK@atan@     00470870     libucrt:fpexcept.obj
 0002:00009878       ??_C@_05KNGEOGJB@atan2@    00470878     libucrt:fpexcept.obj
 0002:00009880       ??_C@_03BLEJJJBH@sin@      00470880     libucrt:fpexcept.obj
 0002:00009884       ??_C@_03LALBNOCG@cos@      00470884     libucrt:fpexcept.obj
 0002:00009888       ??_C@_03IIINPABG@tan@      00470888     libucrt:fpexcept.obj
 0002:0000988c       ??_C@_04GFPJNGEK@ceil@     0047088c     libucrt:fpexcept.obj
 0002:00009894       ??_C@_05PBJFFIGL@floor@    00470894     libucrt:fpexcept.obj
 0002:0000989c       ??_C@_04ODHECPBC@fabs@     0047089c     libucrt:fpexcept.obj
 0002:000098a4       ??_C@_04EHEDPDJG@modf@     004708a4     libucrt:fpexcept.obj
 0002:000098ac       ??_C@_05CEJMAHNP@ldexp@    004708ac     libucrt:fpexcept.obj
 0002:000098b4       ??_C@_05KBKMEMPO@_cabs@    004708b4     libucrt:fpexcept.obj
 0002:000098bc       ??_C@_06MEIMCGCF@_hypot@   004708bc     libucrt:fpexcept.obj
 0002:000098c4       ??_C@_04KEPJIHGP@fmod@     004708c4     libucrt:fpexcept.obj
 0002:000098cc       ??_C@_05GKKHEGJL@frexp@    004708cc     libucrt:fpexcept.obj
 0002:000098d4       ??_C@_03MJLDFKDL@_y0@      004708d4     libucrt:fpexcept.obj
 0002:000098d8       ??_C@_03NAKIGLHK@_y1@      004708d8     libucrt:fpexcept.obj
 0002:000098dc       ??_C@_03ONILCKOB@_yn@      004708dc     libucrt:fpexcept.obj
 0002:000098e0       ??_C@_05JGDBENOH@_logb@    004708e0     libucrt:fpexcept.obj
 0002:000098e8       ??_C@_0L@KDOEJCKC@_nextafter@ 004708e8     libucrt:fpexcept.obj
 0002:000098f8       __d_inf                    004708f8     libucrt:util.obj
 0002:00009908       __d_ind                    00470908     libucrt:util.obj
 0002:00009918       __d_max                    00470918     libucrt:util.obj
 0002:00009928       __d_min                    00470928     libucrt:util.obj
 0002:00009938       __d_mzero                  00470938     libucrt:util.obj
 0002:000099b8       __Denorm_C                 004709b8     libucrt:_values.obj
 0002:000099c8       __Inf_C                    004709c8     libucrt:_values.obj
 0002:000099d8       __Nan_C                    004709d8     libucrt:_values.obj
 0002:000099e8       __Snan_C                   004709e8     libucrt:_values.obj
 0002:000099f8       __Hugeval_C                004709f8     libucrt:_values.obj
 0002:00009a08       __FDenorm_C                00470a08     libucrt:_values.obj
 0002:00009a18       __FInf_C                   00470a18     libucrt:_values.obj
 0002:00009a28       __FNan_C                   00470a28     libucrt:_values.obj
 0002:00009a38       __FSnan_C                  00470a38     libucrt:_values.obj
 0002:00009a48       __LDenorm_C                00470a48     libucrt:_values.obj
 0002:00009a58       __LInf_C                   00470a58     libucrt:_values.obj
